
/Users/chipmc/Documents/Maker/Particle/Projects/Cellular-Monitoring/target/2.3.0/electron/Cellular-Monitoring.elf:     file format elf32-littlearm

Sections:
Idx Name          Size      VMA       LMA       File off  Algn
  0 .module_info  00000018  08080000  08080000  00010000  2**0
                  CONTENTS, ALLOC, LOAD, READONLY, DATA
  1 .dynalib      00000004  08080018  08080018  00010018  2**2
                  CONTENTS, ALLOC, LOAD, READONLY, DATA
  2 .text         00006790  08080020  08080020  00010020  2**3
                  CONTENTS, ALLOC, LOAD, READONLY, CODE
  3 .backup       00000018  40024000  080867b0  00024000  2**2
                  CONTENTS, ALLOC, LOAD, DATA
  4 .data         00000100  20000000  080867c8  00030000  2**2
                  CONTENTS, ALLOC, LOAD, DATA
  5 .bss          000006b4  20000100  20000100  00040100  2**3
                  ALLOC
  6 .module_info_suffix 00000028  080868c8  080868c8  000368c8  2**0
                  CONTENTS, ALLOC, LOAD, READONLY, DATA
  7 .module_info_crc 00000004  080868f0  080868f0  000368f0  2**0
                  CONTENTS, ALLOC, LOAD, READONLY, DATA
  8 .debug_info   00151c41  00000000  00000000  000368f4  2**0
                  CONTENTS, READONLY, DEBUGGING
  9 .debug_abbrev 0001819d  00000000  00000000  00188535  2**0
                  CONTENTS, READONLY, DEBUGGING
 10 .debug_aranges 00002928  00000000  00000000  001a06d2  2**0
                  CONTENTS, READONLY, DEBUGGING
 11 .debug_ranges 00006900  00000000  00000000  001a2ffa  2**0
                  CONTENTS, READONLY, DEBUGGING
 12 .debug_macro  0002a61e  00000000  00000000  001a98fa  2**0
                  CONTENTS, READONLY, DEBUGGING
 13 .debug_line   000371a6  00000000  00000000  001d3f18  2**0
                  CONTENTS, READONLY, DEBUGGING
 14 .debug_str    000b9c90  00000000  00000000  0020b0be  2**0
                  CONTENTS, READONLY, DEBUGGING
 15 .debug_frame  00007120  00000000  00000000  002c4d50  2**2
                  CONTENTS, READONLY, DEBUGGING
 16 .debug_loc    00022e45  00000000  00000000  002cbe70  2**0
                  CONTENTS, READONLY, DEBUGGING

Disassembly of section .text:

08080020 <localtime_r>:
#endif // !(defined(DYNALIB_IMPORT) && (defined(PARTICLE_COMPILE_LTO) || defined(PARTICLE_COMPILE_LTO_FAT)))
DYNALIB_FN(18, services2, mktime32, time32_t(struct tm*))
DYNALIB_FN(19, services2, __ssvfscanf_r, int(struct _reent*, FILE*, const char*, va_list))
DYNALIB_FN(20, services2, _printf_i, int(struct _reent*, struct _prt_data_t*, FILE*, int (*pfunc)(struct _reent *, FILE *, const char *, size_t), va_list*))
DYNALIB_FN(21, services2, localtime32_r, struct tm*(const time32_t*, struct tm*))
DYNALIB_FN(22, services2, localtime_r, struct tm*(const time_t*, struct tm*))
 8080020:	b508      	push	{r3, lr}
 8080022:	4b02      	ldr	r3, [pc, #8]	; (808002c <localtime_r+0xc>)
 8080024:	681b      	ldr	r3, [r3, #0]
 8080026:	6d9b      	ldr	r3, [r3, #88]	; 0x58
 8080028:	9301      	str	r3, [sp, #4]
 808002a:	bd08      	pop	{r3, pc}
 808002c:	0806002c 	.word	0x0806002c

08080030 <module_user_pre_init>:
/**
 * Initializes this user module. Returns the start of the heap.
 */
void* module_user_pre_init() {

    if ( (&link_global_data_start!=&link_global_data_initial_values) && (link_global_data_size != 0))
 8080030:	4809      	ldr	r0, [pc, #36]	; (8080058 <module_user_pre_init+0x28>)
 8080032:	490a      	ldr	r1, [pc, #40]	; (808005c <module_user_pre_init+0x2c>)
void* module_user_pre_init() {
 8080034:	b508      	push	{r3, lr}
    if ( (&link_global_data_start!=&link_global_data_initial_values) && (link_global_data_size != 0))
 8080036:	4288      	cmp	r0, r1
 8080038:	d005      	beq.n	8080046 <module_user_pre_init+0x16>
 808003a:	4a09      	ldr	r2, [pc, #36]	; (8080060 <module_user_pre_init+0x30>)
 808003c:	4282      	cmp	r2, r0
 808003e:	d002      	beq.n	8080046 <module_user_pre_init+0x16>
    {
        memcpy(&link_global_data_start, &link_global_data_initial_values, link_global_data_size);
 8080040:	1a12      	subs	r2, r2, r0
 8080042:	f005 fdc6 	bl	8085bd2 <memcpy>
    }

    memset(&link_bss_location, 0, link_bss_size );
 8080046:	4807      	ldr	r0, [pc, #28]	; (8080064 <module_user_pre_init+0x34>)
 8080048:	4a07      	ldr	r2, [pc, #28]	; (8080068 <module_user_pre_init+0x38>)
 808004a:	2100      	movs	r1, #0
 808004c:	1a12      	subs	r2, r2, r0
 808004e:	f005 fde8 	bl	8085c22 <memset>
    return &link_heap_start;
}
 8080052:	4806      	ldr	r0, [pc, #24]	; (808006c <module_user_pre_init+0x3c>)
 8080054:	bd08      	pop	{r3, pc}
 8080056:	bf00      	nop
 8080058:	20000000 	.word	0x20000000
 808005c:	080867c8 	.word	0x080867c8
 8080060:	20000100 	.word	0x20000100
 8080064:	20000100 	.word	0x20000100
 8080068:	200007b1 	.word	0x200007b1
 808006c:	200007b1 	.word	0x200007b1

08080070 <module_user_init>:
extern constructor_ptr_t link_constructors_location[];
extern constructor_ptr_t link_constructors_end;
#define link_constructors_size   ((unsigned long)&link_constructors_end  -  (unsigned long)&link_constructors_location )

void module_user_init()
{
 8080070:	b570      	push	{r4, r5, r6, lr}
    module_user_init_hook();
 8080072:	f004 fc9f 	bl	80849b4 <module_user_init_hook>

    // invoke constructors
    int ctor_num;
    for (ctor_num=0; ctor_num < link_constructors_size/sizeof(constructor_ptr_t); ctor_num++ )
 8080076:	2500      	movs	r5, #0
 8080078:	4e05      	ldr	r6, [pc, #20]	; (8080090 <module_user_init+0x20>)
 808007a:	4c06      	ldr	r4, [pc, #24]	; (8080094 <module_user_init+0x24>)
 808007c:	1ba4      	subs	r4, r4, r6
 808007e:	08a4      	lsrs	r4, r4, #2
 8080080:	42a5      	cmp	r5, r4
 8080082:	d100      	bne.n	8080086 <module_user_init+0x16>
    {
        link_constructors_location[ctor_num]();
    }
}
 8080084:	bd70      	pop	{r4, r5, r6, pc}
        link_constructors_location[ctor_num]();
 8080086:	f856 3b04 	ldr.w	r3, [r6], #4
 808008a:	4798      	blx	r3
    for (ctor_num=0; ctor_num < link_constructors_size/sizeof(constructor_ptr_t); ctor_num++ )
 808008c:	3501      	adds	r5, #1
 808008e:	e7f7      	b.n	8080080 <module_user_init+0x10>
 8080090:	0808678c 	.word	0x0808678c
 8080094:	080867ac 	.word	0x080867ac

08080098 <module_user_setup>:

/**
 * Export these functions with a fuller name so they don't clash with the setup/loop wrappers in the system module.
 */
void module_user_setup() {
    setup();
 8080098:	f001 ba04 	b.w	80814a4 <setup>

0808009c <module_user_loop>:
}

void module_user_loop() {
 808009c:	b508      	push	{r3, lr}
    loop();
 808009e:	f001 f88b 	bl	80811b8 <loop>
    _post_loop();
}
 80800a2:	e8bd 4008 	ldmia.w	sp!, {r3, lr}
    _post_loop();
 80800a6:	f004 bc3d 	b.w	8084924 <_post_loop>

080800aa <_Znwj>:
 * Implement C++ new/delete operators using the heap
 */

void *operator new(size_t size)
{
	return malloc(size);
 80800aa:	f001 bf51 	b.w	8081f50 <malloc>

080800ae <_Znaj>:
 80800ae:	f001 bf4f 	b.w	8081f50 <malloc>

080800b2 <_ZdlPv>:
	return malloc(size);
}

void operator delete(void *p)
{
	free(p);
 80800b2:	f001 bf55 	b.w	8081f60 <free>
	...

080800b8 <__cxa_pure_virtual>:
    return (char*)"";
}

/* Default implementation for call made to pure virtual function. */
void __cxa_pure_virtual() {
  PANIC(PureVirtualCall,"Call on pure virtual");
 80800b8:	2100      	movs	r1, #0
 80800ba:	200c      	movs	r0, #12
void __cxa_pure_virtual() {
 80800bc:	b508      	push	{r3, lr}
  PANIC(PureVirtualCall,"Call on pure virtual");
 80800be:	4a02      	ldr	r2, [pc, #8]	; (80800c8 <__cxa_pure_virtual+0x10>)
 80800c0:	f001 fdf6 	bl	8081cb0 <panic_>
  while (1);
 80800c4:	e7fe      	b.n	80800c4 <__cxa_pure_virtual+0xc>
 80800c6:	bf00      	nop
 80800c8:	080819d1 	.word	0x080819d1

080800cc <__cxa_guard_acquire>:

/* Provide default implemenation for __cxa_guard_acquire() and
 * __cxa_guard_release(). Note: these must be revisited if a multitasking
 * OS is ported to this platform. */
__extension__ typedef int __guard __attribute__((mode (__DI__)));
int __cxa_guard_acquire(__guard *g) {return !*(char *)(g);};
 80800cc:	7800      	ldrb	r0, [r0, #0]
 80800ce:	fab0 f080 	clz	r0, r0
 80800d2:	0940      	lsrs	r0, r0, #5
 80800d4:	4770      	bx	lr

080800d6 <__cxa_guard_release>:
void __cxa_guard_release (__guard *g) {*(char *)g = 1;};
 80800d6:	2301      	movs	r3, #1
 80800d8:	7003      	strb	r3, [r0, #0]
 80800da:	4770      	bx	lr

080800dc <_ZN7TwoWire5writeEi>:
  bool unlock();

  inline size_t write(unsigned long n) { return write((uint8_t)n); }
  inline size_t write(long n) { return write((uint8_t)n); }
  inline size_t write(unsigned int n) { return write((uint8_t)n); }
  inline size_t write(int n) { return write((uint8_t)n); }
 80800dc:	6803      	ldr	r3, [r0, #0]
 80800de:	b2c9      	uxtb	r1, r1
 80800e0:	689b      	ldr	r3, [r3, #8]
 80800e2:	4718      	bx	r3

080800e4 <_ZN17Adafruit_FRAM_I2CC1Ev>:
    Constructor
*/
/**************************************************************************/
Adafruit_FRAM_I2C::Adafruit_FRAM_I2C(void)
{
  _framInitialised = false;
 80800e4:	2200      	movs	r2, #0
 80800e6:	7042      	strb	r2, [r0, #1]
}
 80800e8:	4770      	bx	lr

080800ea <_ZN17Adafruit_FRAM_I2C6write8Eth>:
    @params[in] i2cAddr
                The 8-bit value to write at framAddr
*/
/**************************************************************************/
void Adafruit_FRAM_I2C::write8 (uint16_t framAddr, uint8_t value)
{
 80800ea:	b570      	push	{r4, r5, r6, lr}
 80800ec:	4606      	mov	r6, r0
 80800ee:	460c      	mov	r4, r1
 80800f0:	4615      	mov	r5, r2
  Wire.beginTransmission(i2c_addr);
 80800f2:	f004 fd43 	bl	8084b7c <_Z19__fetch_global_Wirev>
 80800f6:	7831      	ldrb	r1, [r6, #0]
 80800f8:	f002 fcbe 	bl	8082a78 <_ZN7TwoWire17beginTransmissionEh>
  Wire.write(framAddr >> 8);
 80800fc:	f004 fd3e 	bl	8084b7c <_Z19__fetch_global_Wirev>
 8080100:	0a21      	lsrs	r1, r4, #8
 8080102:	f7ff ffeb 	bl	80800dc <_ZN7TwoWire5writeEi>
  Wire.write(framAddr & 0xFF);
 8080106:	f004 fd39 	bl	8084b7c <_Z19__fetch_global_Wirev>
 808010a:	b2e1      	uxtb	r1, r4
 808010c:	f7ff ffe6 	bl	80800dc <_ZN7TwoWire5writeEi>
  Wire.write(value);
 8080110:	f004 fd34 	bl	8084b7c <_Z19__fetch_global_Wirev>
 8080114:	6803      	ldr	r3, [r0, #0]
 8080116:	4629      	mov	r1, r5
 8080118:	689b      	ldr	r3, [r3, #8]
 808011a:	4798      	blx	r3
  Wire.endTransmission();
 808011c:	f004 fd2e 	bl	8084b7c <_Z19__fetch_global_Wirev>
}
 8080120:	e8bd 4070 	ldmia.w	sp!, {r4, r5, r6, lr}
  Wire.endTransmission();
 8080124:	f002 bccb 	b.w	8082abe <_ZN7TwoWire15endTransmissionEv>

08080128 <_ZN17Adafruit_FRAM_I2C5read8Et>:

    @returns    The 8-bit value retrieved at framAddr
*/
/**************************************************************************/
uint8_t Adafruit_FRAM_I2C::read8 (uint16_t framAddr)
{
 8080128:	b538      	push	{r3, r4, r5, lr}
 808012a:	4604      	mov	r4, r0
 808012c:	460d      	mov	r5, r1
  Wire.beginTransmission(i2c_addr);
 808012e:	f004 fd25 	bl	8084b7c <_Z19__fetch_global_Wirev>
 8080132:	7821      	ldrb	r1, [r4, #0]
 8080134:	f002 fca0 	bl	8082a78 <_ZN7TwoWire17beginTransmissionEh>
  Wire.write(framAddr >> 8);
 8080138:	f004 fd20 	bl	8084b7c <_Z19__fetch_global_Wirev>
 808013c:	0a29      	lsrs	r1, r5, #8
 808013e:	f7ff ffcd 	bl	80800dc <_ZN7TwoWire5writeEi>
  Wire.write(framAddr & 0xFF);
 8080142:	f004 fd1b 	bl	8084b7c <_Z19__fetch_global_Wirev>
 8080146:	b2e9      	uxtb	r1, r5
 8080148:	f7ff ffc8 	bl	80800dc <_ZN7TwoWire5writeEi>
  Wire.endTransmission();
 808014c:	f004 fd16 	bl	8084b7c <_Z19__fetch_global_Wirev>
 8080150:	f002 fcb5 	bl	8082abe <_ZN7TwoWire15endTransmissionEv>

  Wire.requestFrom(i2c_addr, (uint8_t)1);
 8080154:	f004 fd12 	bl	8084b7c <_Z19__fetch_global_Wirev>
 8080158:	2201      	movs	r2, #1
 808015a:	7821      	ldrb	r1, [r4, #0]
 808015c:	f002 fc89 	bl	8082a72 <_ZN7TwoWire11requestFromEhj>

  return Wire.read();
 8080160:	f004 fd0c 	bl	8084b7c <_Z19__fetch_global_Wirev>
 8080164:	6803      	ldr	r3, [r0, #0]
 8080166:	695b      	ldr	r3, [r3, #20]
 8080168:	4798      	blx	r3
}
 808016a:	b2c0      	uxtb	r0, r0
 808016c:	bd38      	pop	{r3, r4, r5, pc}

0808016e <_ZN17Adafruit_FRAM_I2C11getDeviceIDEPtS0_>:
                  Product ID fields (bytes 7..0). Should be 0x510 for
                  the MB85RC256V.
*/
/**************************************************************************/
void Adafruit_FRAM_I2C::getDeviceID(uint16_t *manufacturerID, uint16_t *productID)
{
 808016e:	b5f8      	push	{r3, r4, r5, r6, r7, lr}
 8080170:	4604      	mov	r4, r0
 8080172:	4616      	mov	r6, r2
 8080174:	460f      	mov	r7, r1
  uint8_t a[3] = { 0, 0, 0 };
  uint8_t results;

  Wire.beginTransmission(MB85RC_SLAVE_ID >> 1);
 8080176:	f004 fd01 	bl	8084b7c <_Z19__fetch_global_Wirev>
 808017a:	217c      	movs	r1, #124	; 0x7c
 808017c:	f002 fc80 	bl	8082a80 <_ZN7TwoWire17beginTransmissionEi>
  Wire.write(i2c_addr << 1);
 8080180:	f004 fcfc 	bl	8084b7c <_Z19__fetch_global_Wirev>
 8080184:	7821      	ldrb	r1, [r4, #0]
 8080186:	0049      	lsls	r1, r1, #1
 8080188:	f7ff ffa8 	bl	80800dc <_ZN7TwoWire5writeEi>
  results = Wire.endTransmission(false);
 808018c:	f004 fcf6 	bl	8084b7c <_Z19__fetch_global_Wirev>
 8080190:	2100      	movs	r1, #0
 8080192:	f002 fc90 	bl	8082ab6 <_ZN7TwoWire15endTransmissionEh>

  Wire.requestFrom(MB85RC_SLAVE_ID >> 1, 3);
 8080196:	f004 fcf1 	bl	8084b7c <_Z19__fetch_global_Wirev>
 808019a:	2203      	movs	r2, #3
 808019c:	217c      	movs	r1, #124	; 0x7c
 808019e:	f002 fc68 	bl	8082a72 <_ZN7TwoWire11requestFromEhj>
  a[0] = Wire.read();
 80801a2:	f004 fceb 	bl	8084b7c <_Z19__fetch_global_Wirev>
 80801a6:	6803      	ldr	r3, [r0, #0]
 80801a8:	695b      	ldr	r3, [r3, #20]
 80801aa:	4798      	blx	r3
 80801ac:	4605      	mov	r5, r0
  a[1] = Wire.read();
 80801ae:	f004 fce5 	bl	8084b7c <_Z19__fetch_global_Wirev>
 80801b2:	6803      	ldr	r3, [r0, #0]
  a[2] = Wire.read();

  /* Shift values to separate manuf and prod IDs */
  /* See p.10 of http://www.fujitsu.com/downloads/MICRO/fsa/pdf/products/memory/fram/MB85RC256V-DS501-00017-3v0-E.pdf */
  *manufacturerID = (a[0] << 4) + (a[1]  >> 4);
 80801b4:	b2ed      	uxtb	r5, r5
  a[1] = Wire.read();
 80801b6:	695b      	ldr	r3, [r3, #20]
 80801b8:	4798      	blx	r3
 80801ba:	4604      	mov	r4, r0
  a[2] = Wire.read();
 80801bc:	f004 fcde 	bl	8084b7c <_Z19__fetch_global_Wirev>
 80801c0:	6803      	ldr	r3, [r0, #0]
 80801c2:	695b      	ldr	r3, [r3, #20]
 80801c4:	4798      	blx	r3
  *manufacturerID = (a[0] << 4) + (a[1]  >> 4);
 80801c6:	f3c4 1303 	ubfx	r3, r4, #4, #4
  *productID = ((a[1] & 0x0F) << 8) + a[2];
 80801ca:	0224      	lsls	r4, r4, #8
 80801cc:	f404 6470 	and.w	r4, r4, #3840	; 0xf00
 80801d0:	b2c0      	uxtb	r0, r0
  *manufacturerID = (a[0] << 4) + (a[1]  >> 4);
 80801d2:	eb03 1505 	add.w	r5, r3, r5, lsl #4
  *productID = ((a[1] & 0x0F) << 8) + a[2];
 80801d6:	4404      	add	r4, r0
  *manufacturerID = (a[0] << 4) + (a[1]  >> 4);
 80801d8:	803d      	strh	r5, [r7, #0]
  *productID = ((a[1] & 0x0F) << 8) + a[2];
 80801da:	8034      	strh	r4, [r6, #0]
}
 80801dc:	bdf8      	pop	{r3, r4, r5, r6, r7, pc}

080801de <_ZN17Adafruit_FRAM_I2C5beginEh>:
{
 80801de:	b513      	push	{r0, r1, r4, lr}
 80801e0:	4604      	mov	r4, r0
  i2c_addr = addr;
 80801e2:	7001      	strb	r1, [r0, #0]
  Wire.begin();
 80801e4:	f004 fcca 	bl	8084b7c <_Z19__fetch_global_Wirev>
 80801e8:	f002 fc14 	bl	8082a14 <_ZN7TwoWire5beginEv>
  getDeviceID(&manufID, &prodID);
 80801ec:	4620      	mov	r0, r4
 80801ee:	f10d 0206 	add.w	r2, sp, #6
 80801f2:	a901      	add	r1, sp, #4
 80801f4:	f7ff ffbb 	bl	808016e <_ZN17Adafruit_FRAM_I2C11getDeviceIDEPtS0_>
  if (manufID != 0x00A)
 80801f8:	f8bd 3004 	ldrh.w	r3, [sp, #4]
 80801fc:	2b0a      	cmp	r3, #10
 80801fe:	d108      	bne.n	8080212 <_ZN17Adafruit_FRAM_I2C5beginEh+0x34>
  if (prodID != 0x510)
 8080200:	f8bd 3006 	ldrh.w	r3, [sp, #6]
 8080204:	f5b3 6fa2 	cmp.w	r3, #1296	; 0x510
 8080208:	d103      	bne.n	8080212 <_ZN17Adafruit_FRAM_I2C5beginEh+0x34>
  _framInitialised = true;
 808020a:	2001      	movs	r0, #1
 808020c:	7060      	strb	r0, [r4, #1]
}
 808020e:	b002      	add	sp, #8
 8080210:	bd10      	pop	{r4, pc}
    return false;
 8080212:	2000      	movs	r0, #0
 8080214:	e7fb      	b.n	808020e <_ZN17Adafruit_FRAM_I2C5beginEh+0x30>

08080216 <_ZN5spark10LogHandler5writeEPKcj>:
    }
}

inline void spark::LogHandler::write(const char *data, size_t size) {
    // Default implementation does nothing
}
 8080216:	4770      	bx	lr

08080218 <_ZN5spark16StreamLogHandler5writeEPKcj>:
inline Print* spark::StreamLogHandler::stream() const {
    return stream_;
}

inline void spark::StreamLogHandler::write(const char *data, size_t size) {
    stream_->write((const uint8_t*)data, size);
 8080218:	6a00      	ldr	r0, [r0, #32]
 808021a:	6803      	ldr	r3, [r0, #0]
 808021c:	68db      	ldr	r3, [r3, #12]
 808021e:	4718      	bx	r3

08080220 <_Z7sendNow6String>:
  }
  else return 0;
}

int sendNow(String command) // Function to force sending data in current hour
{
 8080220:	b508      	push	{r3, lr}
	operator StringIfHelperType() const { return buffer ? &String::StringIfHelper : 0; }
	int compareTo(const String &s) const;
	unsigned char equals(const String &s) const;
	unsigned char equals(const char *cstr) const;
	unsigned char operator == (const String &rhs) const {return equals(rhs);}
	unsigned char operator == (const char *cstr) const {return equals(cstr);}
 8080222:	4904      	ldr	r1, [pc, #16]	; (8080234 <_Z7sendNow6String+0x14>)
 8080224:	f004 f850 	bl	80842c8 <_ZNK6String6equalsEPKc>
  if (command == "1")
 8080228:	b118      	cbz	r0, 8080232 <_Z7sendNow6String+0x12>
  {
    state = REPORTING_STATE;
 808022a:	2204      	movs	r2, #4
    return 1;
 808022c:	2001      	movs	r0, #1
    state = REPORTING_STATE;
 808022e:	4b02      	ldr	r3, [pc, #8]	; (8080238 <_Z7sendNow6String+0x18>)
 8080230:	701a      	strb	r2, [r3, #0]
  }
  else return 0;
}
 8080232:	bd08      	pop	{r3, pc}
 8080234:	08085fd4 	.word	0x08085fd4
 8080238:	20000180 	.word	0x20000180

0808023c <_Z11watchdogISRv>:
{
 808023c:	b508      	push	{r3, lr}
  if (pettingEnabled) {
 808023e:	4b07      	ldr	r3, [pc, #28]	; (808025c <_Z11watchdogISRv+0x20>)
 8080240:	781b      	ldrb	r3, [r3, #0]
 8080242:	b14b      	cbz	r3, 8080258 <_Z11watchdogISRv+0x1c>
    digitalWrite(donePin, HIGH);                              // Pet the watchdog
 8080244:	2101      	movs	r1, #1
 8080246:	2006      	movs	r0, #6
 8080248:	f004 fc41 	bl	8084ace <digitalWrite>
}
 808024c:	e8bd 4008 	ldmia.w	sp!, {r3, lr}
    digitalWrite(donePin, LOW);
 8080250:	2100      	movs	r1, #0
 8080252:	2006      	movs	r0, #6
 8080254:	f004 bc3b 	b.w	8084ace <digitalWrite>
}
 8080258:	bd08      	pop	{r3, pc}
 808025a:	bf00      	nop
 808025c:	20000004 	.word	0x20000004

08080260 <_Z12hardResetNow6String>:
{
 8080260:	b508      	push	{r3, lr}
 8080262:	4905      	ldr	r1, [pc, #20]	; (8080278 <_Z12hardResetNow6String+0x18>)
 8080264:	f004 f830 	bl	80842c8 <_ZNK6String6equalsEPKc>
  if (command == "1")
 8080268:	b120      	cbz	r0, 8080274 <_Z12hardResetNow6String+0x14>
    digitalWrite(hardResetPin,HIGH);          // This will cut all power to the Electron AND the carrir board
 808026a:	2004      	movs	r0, #4
 808026c:	2101      	movs	r1, #1
 808026e:	f004 fc2e 	bl	8084ace <digitalWrite>
 8080272:	2001      	movs	r0, #1
}
 8080274:	bd08      	pop	{r3, pc}
 8080276:	bf00      	nop
 8080278:	08085fd4 	.word	0x08085fd4

0808027c <_ZN10CloudClass7publishEPKcS1_N8particle5FlagsI15PublishFlagTypehEES5_.isra.0.constprop.0>:
    inline particle::Future<bool> publish(const char *eventName, PublishFlags flags1, PublishFlags flags2 = PublishFlags())
    {
        return publish(eventName, NULL, flags1, flags2);
    }

    inline particle::Future<bool> publish(const char *eventName, const char *eventData, PublishFlags flags1, PublishFlags flags2 = PublishFlags())
 808027c:	b537      	push	{r0, r1, r2, r4, r5, lr}
 808027e:	4604      	mov	r4, r0
 8080280:	f89d 5018 	ldrb.w	r5, [sp, #24]
        val_(val) {
}

template<typename TagT, typename ValueT>
inline particle::Flags<TagT, ValueT> particle::Flags<TagT, ValueT>::operator|(Flags<TagT, ValueT> flags) const {
    return Flags<TagT, ValueT>(val_ | flags.val_);
 8080284:	431d      	orrs	r5, r3
        return publish(eventName, eventData, DEFAULT_CLOUD_EVENT_TTL, flags1, flags2);
    }

    inline particle::Future<bool> publish(const char *eventName, const char *eventData, int ttl, PublishFlags flags1, PublishFlags flags2 = PublishFlags())
    {
        return publish_event(eventName, eventData, ttl, flags1 | flags2);
 8080286:	f88d 5000 	strb.w	r5, [sp]
 808028a:	233c      	movs	r3, #60	; 0x3c
 808028c:	f002 f98a 	bl	80825a4 <_ZN10CloudClass13publish_eventEPKcS1_iN8particle5FlagsI15PublishFlagTypehEE>
    }
 8080290:	4620      	mov	r0, r4
 8080292:	b003      	add	sp, #12
 8080294:	bd30      	pop	{r4, r5, pc}
	...

08080298 <_ZN5spark16SerialLogHandlerD1Ev>:
            StreamLogHandler(Serial, level, filters) {
        Serial.begin(baud);
        LogManager::instance()->addHandler(this);
    }

    virtual ~SerialLogHandler() {
 8080298:	b510      	push	{r4, lr}
 808029a:	4604      	mov	r4, r0
 808029c:	4b09      	ldr	r3, [pc, #36]	; (80802c4 <_ZN5spark16SerialLogHandlerD1Ev+0x2c>)
 808029e:	6003      	str	r3, [r0, #0]
        LogManager::instance()->removeHandler(this);
 80802a0:	f002 ffd2 	bl	8083248 <_ZN5spark10LogManager8instanceEv>
 80802a4:	4621      	mov	r1, r4
 80802a6:	f003 f9df 	bl	8083668 <_ZN5spark10LogManager13removeHandlerEPNS_10LogHandlerE>
        Serial.end();
 80802aa:	f004 fa9b 	bl	80847e4 <_Z16_fetch_usbserialv>
 80802ae:	f004 fa7f 	bl	80847b0 <_ZN9USBSerial3endEv>
    virtual ~LogHandler() = default;
 80802b2:	4620      	mov	r0, r4
 80802b4:	4b04      	ldr	r3, [pc, #16]	; (80802c8 <_ZN5spark16SerialLogHandlerD1Ev+0x30>)
 80802b6:	f840 3b04 	str.w	r3, [r0], #4
 80802ba:	f003 f8c3 	bl	8083444 <_ZN5spark6detail9LogFilterD1Ev>
    }
 80802be:	4620      	mov	r0, r4
 80802c0:	bd10      	pop	{r4, pc}
 80802c2:	bf00      	nop
 80802c4:	0808637c 	.word	0x0808637c
 80802c8:	08086364 	.word	0x08086364

080802cc <_ZN5spark16SerialLogHandlerD0Ev>:
    virtual ~SerialLogHandler() {
 80802cc:	b510      	push	{r4, lr}
 80802ce:	4604      	mov	r4, r0
    }
 80802d0:	f7ff ffe2 	bl	8080298 <_ZN5spark16SerialLogHandlerD1Ev>
 80802d4:	4620      	mov	r0, r4
 80802d6:	2124      	movs	r1, #36	; 0x24
 80802d8:	f004 fca6 	bl	8084c28 <_ZdlPvj>
 80802dc:	4620      	mov	r0, r4
 80802de:	bd10      	pop	{r4, pc}

080802e0 <_ZN5spark13CellularClass3offEv>:
    }
    void on() {
        network_on(*this, 0, 0, NULL);
    }
    void off() {
        network_off(*this, 0, 0, NULL);
 80802e0:	2300      	movs	r3, #0
 80802e2:	6840      	ldr	r0, [r0, #4]
 80802e4:	461a      	mov	r2, r3
 80802e6:	4619      	mov	r1, r3
 80802e8:	f001 bdfa 	b.w	8081ee0 <network_off>

080802ec <_ZN5spark13CellularClass5readyEv>:
        return network_listening(*this, 0, NULL);
    }

    bool ready()
    {
        return network_ready(*this, 0,  NULL);
 80802ec:	2200      	movs	r2, #0
 80802ee:	6840      	ldr	r0, [r0, #4]
 80802f0:	4611      	mov	r1, r2
 80802f2:	f001 bde5 	b.w	8081ec0 <network_ready>

080802f6 <_ZNK5spark6Logger4infoEPKcz>:
    va_start(args, fmt);
    log(LOG_LEVEL_TRACE, fmt, args);
    va_end(args);
}

inline void spark::Logger::info(const char *fmt, ...) const {
 80802f6:	b40e      	push	{r1, r2, r3}
 80802f8:	b510      	push	{r4, lr}
}

inline void spark::Logger::log(LogLevel level, const char *fmt, va_list args) const {
    LogAttributes attr;
    attr.size = sizeof(LogAttributes);
    attr.flags = 0;
 80802fa:	2300      	movs	r3, #0
    log(LOG_LEVEL_INFO, fmt, args);
 80802fc:	6801      	ldr	r1, [r0, #0]
    attr.flags = 0;
 80802fe:	2020      	movs	r0, #32
inline void spark::Logger::info(const char *fmt, ...) const {
 8080300:	b08d      	sub	sp, #52	; 0x34
 8080302:	aa0f      	add	r2, sp, #60	; 0x3c
 8080304:	f852 4b04 	ldr.w	r4, [r2], #4
    attr.flags = 0;
 8080308:	e9cd 0304 	strd	r0, r3, [sp, #16]
    log_message_v(level, name_, &attr, nullptr, fmt, args);
 808030c:	e9cd 4200 	strd	r4, r2, [sp]
    va_start(args, fmt);
 8080310:	9203      	str	r2, [sp, #12]
    log_message_v(level, name_, &attr, nullptr, fmt, args);
 8080312:	201e      	movs	r0, #30
 8080314:	aa04      	add	r2, sp, #16
 8080316:	f001 fcd3 	bl	8081cc0 <log_message_v>
}
 808031a:	b00d      	add	sp, #52	; 0x34
 808031c:	e8bd 4010 	ldmia.w	sp!, {r4, lr}
 8080320:	b003      	add	sp, #12
 8080322:	4770      	bx	lr

08080324 <_Z9FRAMread8j>:
// Begin section
uint8_t FRAMread8(unsigned int address)  // Read 8 bits from FRAM
{
    uint8_t result;
    //Serial.println("In FRAMread8");
    result = fram.read8(address);
 8080324:	b281      	uxth	r1, r0
 8080326:	4801      	ldr	r0, [pc, #4]	; (808032c <_Z9FRAMread8j+0x8>)
 8080328:	f7ff befe 	b.w	8080128 <_ZN17Adafruit_FRAM_I2C5read8Et>
 808032c:	20000139 	.word	0x20000139

08080330 <_Z10FRAMwrite8jh>:
    return result;
}

void FRAMwrite8(unsigned int address, uint8_t value)    // Write 8 bits to FRAM
{
 8080330:	460a      	mov	r2, r1
    fram.write8(address,value);
 8080332:	b281      	uxth	r1, r0
 8080334:	4801      	ldr	r0, [pc, #4]	; (808033c <_Z10FRAMwrite8jh+0xc>)
 8080336:	f7ff bed8 	b.w	80800ea <_ZN17Adafruit_FRAM_I2C6write8Eth>
 808033a:	bf00      	nop
 808033c:	20000139 	.word	0x20000139

08080340 <_Z10FRAMread16j>:
}

int FRAMread16(unsigned int address)
{
 8080340:	b570      	push	{r4, r5, r6, lr}
    long two;
    long one;
    //Read the 2 bytes from  memory.
    two = fram.read8(address);
 8080342:	4e07      	ldr	r6, [pc, #28]	; (8080360 <_Z10FRAMread16j+0x20>)
 8080344:	b284      	uxth	r4, r0
 8080346:	4621      	mov	r1, r4
 8080348:	4630      	mov	r0, r6
 808034a:	f7ff feed 	bl	8080128 <_ZN17Adafruit_FRAM_I2C5read8Et>
    one = fram.read8(address + 1);
 808034e:	1c61      	adds	r1, r4, #1
    two = fram.read8(address);
 8080350:	4605      	mov	r5, r0
    one = fram.read8(address + 1);
 8080352:	b289      	uxth	r1, r1
 8080354:	4630      	mov	r0, r6
 8080356:	f7ff fee7 	bl	8080128 <_ZN17Adafruit_FRAM_I2C5read8Et>
    //Return the recomposed long by using bitshift.
    return ((two << 0) & 0xFF) + ((one << 8) & 0xFFFF);
}
 808035a:	eb05 2000 	add.w	r0, r5, r0, lsl #8
 808035e:	bd70      	pop	{r4, r5, r6, pc}
 8080360:	20000139 	.word	0x20000139

08080364 <_Z11FRAMwrite16ji>:

void FRAMwrite16(unsigned int address, int value)   // Write 16 bits to FRAM
{
 8080364:	b570      	push	{r4, r5, r6, lr}
 8080366:	460d      	mov	r5, r1
    //Decomposition from a long to 2 bytes by using bitshift.
    //One = Most significant -> Four = Least significant byte
    uint8_t two = (value & 0xFF);
    uint8_t one = ((value >> 8) & 0xFF);
    //Write the 2 bytes into the eeprom memory.
    fram.write8(address, two);
 8080368:	4e07      	ldr	r6, [pc, #28]	; (8080388 <_Z11FRAMwrite16ji+0x24>)
 808036a:	b284      	uxth	r4, r0
 808036c:	b2ca      	uxtb	r2, r1
 808036e:	4630      	mov	r0, r6
 8080370:	4621      	mov	r1, r4
    fram.write8(address + 1, one);
 8080372:	3401      	adds	r4, #1
    fram.write8(address, two);
 8080374:	f7ff feb9 	bl	80800ea <_ZN17Adafruit_FRAM_I2C6write8Eth>
    fram.write8(address + 1, one);
 8080378:	4630      	mov	r0, r6
 808037a:	f3c5 2207 	ubfx	r2, r5, #8, #8
 808037e:	b2a1      	uxth	r1, r4
}
 8080380:	e8bd 4070 	ldmia.w	sp!, {r4, r5, r6, lr}
    fram.write8(address + 1, one);
 8080384:	f7ff beb1 	b.w	80800ea <_ZN17Adafruit_FRAM_I2C6write8Eth>
 8080388:	20000139 	.word	0x20000139

0808038c <_Z11resetCounts6String>:
{
 808038c:	b508      	push	{r3, lr}
 808038e:	490a      	ldr	r1, [pc, #40]	; (80803b8 <_Z11resetCounts6String+0x2c>)
 8080390:	f003 ff9a 	bl	80842c8 <_ZNK6String6equalsEPKc>
  if (command == "1")
 8080394:	b170      	cbz	r0, 80803b4 <_Z11resetCounts6String+0x28>
    FRAMwrite8(RESETCOUNT,0);          // If so, store incremented number - watchdog must have done This
 8080396:	2100      	movs	r1, #0
 8080398:	2002      	movs	r0, #2
 808039a:	f7ff ffc9 	bl	8080330 <_Z10FRAMwrite8jh>
    resetCount = 0;
 808039e:	2100      	movs	r1, #0
 80803a0:	4b06      	ldr	r3, [pc, #24]	; (80803bc <_Z11resetCounts6String+0x30>)
    FRAMwrite16(DAILYPUMPMINUTES,0);
 80803a2:	2014      	movs	r0, #20
    resetCount = 0;
 80803a4:	6019      	str	r1, [r3, #0]
    dataInFlight = false;
 80803a6:	4b06      	ldr	r3, [pc, #24]	; (80803c0 <_Z11resetCounts6String+0x34>)
 80803a8:	7019      	strb	r1, [r3, #0]
    dailyPumpingMins = 0;
 80803aa:	4b06      	ldr	r3, [pc, #24]	; (80803c4 <_Z11resetCounts6String+0x38>)
 80803ac:	6019      	str	r1, [r3, #0]
    FRAMwrite16(DAILYPUMPMINUTES,0);
 80803ae:	f7ff ffd9 	bl	8080364 <_Z11FRAMwrite16ji>
 80803b2:	2001      	movs	r0, #1
}
 80803b4:	bd08      	pop	{r3, pc}
 80803b6:	bf00      	nop
 80803b8:	08085fd4 	.word	0x08085fd4
 80803bc:	20000178 	.word	0x20000178
 80803c0:	20000138 	.word	0x20000138
 80803c4:	20000134 	.word	0x20000134

080803c8 <_Z10FRAMread32m>:

unsigned long FRAMread32(unsigned long address)
{
 80803c8:	e92d 41f0 	stmdb	sp!, {r4, r5, r6, r7, r8, lr}
    long four;
    long three;
    long two;
    long one;
    //Read the 4 bytes from memory.
    four = fram.read8(address);
 80803cc:	4e0f      	ldr	r6, [pc, #60]	; (808040c <_Z10FRAMread32m+0x44>)
 80803ce:	b284      	uxth	r4, r0
 80803d0:	4621      	mov	r1, r4
 80803d2:	4630      	mov	r0, r6
 80803d4:	f7ff fea8 	bl	8080128 <_ZN17Adafruit_FRAM_I2C5read8Et>
    three = fram.read8(address + 1);
 80803d8:	1c61      	adds	r1, r4, #1
    four = fram.read8(address);
 80803da:	4605      	mov	r5, r0
    three = fram.read8(address + 1);
 80803dc:	b289      	uxth	r1, r1
 80803de:	4630      	mov	r0, r6
 80803e0:	f7ff fea2 	bl	8080128 <_ZN17Adafruit_FRAM_I2C5read8Et>
    two = fram.read8(address + 2);
 80803e4:	1ca1      	adds	r1, r4, #2
    three = fram.read8(address + 1);
 80803e6:	4680      	mov	r8, r0
    two = fram.read8(address + 2);
 80803e8:	b289      	uxth	r1, r1
 80803ea:	4630      	mov	r0, r6
 80803ec:	f7ff fe9c 	bl	8080128 <_ZN17Adafruit_FRAM_I2C5read8Et>
    one = fram.read8(address + 3);
 80803f0:	1ce1      	adds	r1, r4, #3
    two = fram.read8(address + 2);
 80803f2:	4607      	mov	r7, r0
    one = fram.read8(address + 3);
 80803f4:	b289      	uxth	r1, r1
 80803f6:	4630      	mov	r0, r6
 80803f8:	f7ff fe96 	bl	8080128 <_ZN17Adafruit_FRAM_I2C5read8Et>
    //Return the recomposed long by using bitshift.
    return ((four << 0) & 0xFF) + ((three << 8) & 0xFFFF) + ((two << 16) & 0xFFFFFF) + ((one << 24) & 0xFFFFFFFF);
 80803fc:	eb05 2508 	add.w	r5, r5, r8, lsl #8
 8080400:	eb05 4507 	add.w	r5, r5, r7, lsl #16
}
 8080404:	eb05 6000 	add.w	r0, r5, r0, lsl #24
 8080408:	e8bd 81f0 	ldmia.w	sp!, {r4, r5, r6, r7, r8, pc}
 808040c:	20000139 	.word	0x20000139

08080410 <_Z11FRAMwrite32im>:

void FRAMwrite32(int address, unsigned long value)  // Write 32 bits to FRAM
{
 8080410:	b570      	push	{r4, r5, r6, lr}
 8080412:	460d      	mov	r5, r1
    uint8_t four = (value & 0xFF);
    uint8_t three = ((value >> 8) & 0xFF);
    uint8_t two = ((value >> 16) & 0xFF);
    uint8_t one = ((value >> 24) & 0xFF);
    //Write the 4 bytes into the eeprom memory.
    fram.write8(address, four);
 8080414:	4e0e      	ldr	r6, [pc, #56]	; (8080450 <_Z11FRAMwrite32im+0x40>)
 8080416:	b284      	uxth	r4, r0
 8080418:	b2ca      	uxtb	r2, r1
 808041a:	4630      	mov	r0, r6
 808041c:	4621      	mov	r1, r4
 808041e:	f7ff fe64 	bl	80800ea <_ZN17Adafruit_FRAM_I2C6write8Eth>
    fram.write8(address + 1, three);
 8080422:	1c61      	adds	r1, r4, #1
 8080424:	4630      	mov	r0, r6
 8080426:	f3c5 2207 	ubfx	r2, r5, #8, #8
 808042a:	b289      	uxth	r1, r1
 808042c:	f7ff fe5d 	bl	80800ea <_ZN17Adafruit_FRAM_I2C6write8Eth>
    fram.write8(address + 2, two);
 8080430:	1ca1      	adds	r1, r4, #2
 8080432:	4630      	mov	r0, r6
 8080434:	f3c5 4207 	ubfx	r2, r5, #16, #8
 8080438:	b289      	uxth	r1, r1
    fram.write8(address + 3, one);
 808043a:	3403      	adds	r4, #3
    fram.write8(address + 2, two);
 808043c:	f7ff fe55 	bl	80800ea <_ZN17Adafruit_FRAM_I2C6write8Eth>
    fram.write8(address + 3, one);
 8080440:	4630      	mov	r0, r6
 8080442:	0e2a      	lsrs	r2, r5, #24
 8080444:	b2a1      	uxth	r1, r4
}
 8080446:	e8bd 4070 	ldmia.w	sp!, {r4, r5, r6, lr}
    fram.write8(address + 3, one);
 808044a:	f7ff be4e 	b.w	80800ea <_ZN17Adafruit_FRAM_I2C6write8Eth>
 808044e:	bf00      	nop
 8080450:	20000139 	.word	0x20000139

08080454 <_Z17getSignalStrengthv>:
void getSignalStrength() {
 8080454:	b530      	push	{r4, r5, lr}
  const char* radioTech[10] = {"Unknown","None","WiFi","GSM","UMTS","CDMA","LTE","IEEE802154","LTE_CAT_M1","LTE_CAT_NB1"};
 8080456:	4d17      	ldr	r5, [pc, #92]	; (80804b4 <_Z17getSignalStrengthv+0x60>)
void getSignalStrength() {
 8080458:	b099      	sub	sp, #100	; 0x64
  const char* radioTech[10] = {"Unknown","None","WiFi","GSM","UMTS","CDMA","LTE","IEEE802154","LTE_CAT_M1","LTE_CAT_NB1"};
 808045a:	ac04      	add	r4, sp, #16
 808045c:	cd0f      	ldmia	r5!, {r0, r1, r2, r3}
 808045e:	c40f      	stmia	r4!, {r0, r1, r2, r3}
 8080460:	cd0f      	ldmia	r5!, {r0, r1, r2, r3}
 8080462:	c40f      	stmia	r4!, {r0, r1, r2, r3}
 8080464:	e895 0003 	ldmia.w	r5, {r0, r1}
 8080468:	e884 0003 	stmia.w	r4, {r0, r1}
  CellularSignal sig = Cellular.RSSI();
 808046c:	4912      	ldr	r1, [pc, #72]	; (80804b8 <_Z17getSignalStrengthv+0x64>)
 808046e:	a80e      	add	r0, sp, #56	; 0x38
 8080470:	f001 fe14 	bl	808209c <_ZN5spark13CellularClass4RSSIEv>
  auto rat = sig.getAccessTechnology();
 8080474:	a80e      	add	r0, sp, #56	; 0x38
 8080476:	f001 fe64 	bl	8082142 <_ZNK14CellularSignal19getAccessTechnologyEv>
 808047a:	4604      	mov	r4, r0
  float strengthPercentage = sig.getStrength();
 808047c:	a80e      	add	r0, sp, #56	; 0x38
 808047e:	f001 fe7f 	bl	8082180 <_ZNK14CellularSignal11getStrengthEv>
 8080482:	4605      	mov	r5, r0
  float qualityPercentage = sig.getQuality();
 8080484:	a80e      	add	r0, sp, #56	; 0x38
 8080486:	f001 fea5 	bl	80821d4 <_ZNK14CellularSignal10getQualityEv>
  snprintf(SignalString,sizeof(SignalString), "%s S:%2.0f%%, Q:%2.0f%% ", radioTech[rat], strengthPercentage, qualityPercentage);
 808048a:	ab18      	add	r3, sp, #96	; 0x60
 808048c:	eb03 0484 	add.w	r4, r3, r4, lsl #2
 8080490:	f004 fd38 	bl	8084f04 <__aeabi_f2d>
 8080494:	e9cd 0102 	strd	r0, r1, [sp, #8]
 8080498:	4628      	mov	r0, r5
 808049a:	f004 fd33 	bl	8084f04 <__aeabi_f2d>
 808049e:	e9cd 0100 	strd	r0, r1, [sp]
 80804a2:	4a06      	ldr	r2, [pc, #24]	; (80804bc <_Z17getSignalStrengthv+0x68>)
 80804a4:	2111      	movs	r1, #17
 80804a6:	f854 3c50 	ldr.w	r3, [r4, #-80]
 80804aa:	4805      	ldr	r0, [pc, #20]	; (80804c0 <_Z17getSignalStrengthv+0x6c>)
 80804ac:	f001 fd70 	bl	8081f90 <snprintf>
}
 80804b0:	b019      	add	sp, #100	; 0x64
 80804b2:	bd30      	pop	{r4, r5, pc}
 80804b4:	0808638c 	.word	0x0808638c
 80804b8:	2000019c 	.word	0x2000019c
 80804bc:	08085ffb 	.word	0x08085ffb
 80804c0:	40024000 	.word	0x40024000
 80804c4:	00000000 	.word	0x00000000

080804c8 <_Z14getTemperaturev>:
{
 80804c8:	b508      	push	{r3, lr}
  int reading = analogRead(tmp36Pin);   //getting the voltage reading from the temperature sensor
 80804ca:	200a      	movs	r0, #10
 80804cc:	f004 fb18 	bl	8084b00 <analogRead>
  float voltage = reading * 3.3;        // converting that reading to voltage, for 3.3v arduino use 3.3
 80804d0:	f004 fd06 	bl	8084ee0 <__aeabi_i2d>
 80804d4:	a314      	add	r3, pc, #80	; (adr r3, 8080528 <_Z14getTemperaturev+0x60>)
 80804d6:	e9d3 2300 	ldrd	r2, r3, [r3]
 80804da:	f004 fd6b 	bl	8084fb4 <__aeabi_dmul>
 80804de:	f004 ffc3 	bl	8085468 <__aeabi_d2f>
  voltage /= 4096.0;                    // Electron is different than the Arduino where there are only 1024 steps
 80804e2:	f04f 5166 	mov.w	r1, #964689920	; 0x39800000
 80804e6:	f005 f91d 	bl	8085724 <__aeabi_fmul>
  int temperatureC = int(((voltage - 0.5) * 100));  //converting from 10 mv per degree with 500 mV offset to degrees ((voltage - 500mV) times 100) - 5 degree calibration
 80804ea:	f004 fd0b 	bl	8084f04 <__aeabi_f2d>
 80804ee:	2200      	movs	r2, #0
 80804f0:	4b0f      	ldr	r3, [pc, #60]	; (8080530 <_Z14getTemperaturev+0x68>)
 80804f2:	f004 fba7 	bl	8084c44 <__aeabi_dsub>
 80804f6:	2200      	movs	r2, #0
 80804f8:	4b0e      	ldr	r3, [pc, #56]	; (8080534 <_Z14getTemperaturev+0x6c>)
 80804fa:	f004 fd5b 	bl	8084fb4 <__aeabi_dmul>
 80804fe:	f004 ff6b 	bl	80853d8 <__aeabi_d2iz>
  temperatureF = int((temperatureC * 9.0 / 5.0) + 32.0);  // now convert to Fahrenheit
 8080502:	f004 fced 	bl	8084ee0 <__aeabi_i2d>
 8080506:	2200      	movs	r2, #0
 8080508:	4b0b      	ldr	r3, [pc, #44]	; (8080538 <_Z14getTemperaturev+0x70>)
 808050a:	f004 fd53 	bl	8084fb4 <__aeabi_dmul>
 808050e:	2200      	movs	r2, #0
 8080510:	4b0a      	ldr	r3, [pc, #40]	; (808053c <_Z14getTemperaturev+0x74>)
 8080512:	f004 fe79 	bl	8085208 <__aeabi_ddiv>
 8080516:	2200      	movs	r2, #0
 8080518:	4b09      	ldr	r3, [pc, #36]	; (8080540 <_Z14getTemperaturev+0x78>)
 808051a:	f004 fb95 	bl	8084c48 <__adddf3>
 808051e:	f004 ff5b 	bl	80853d8 <__aeabi_d2iz>
 8080522:	4b08      	ldr	r3, [pc, #32]	; (8080544 <_Z14getTemperaturev+0x7c>)
 8080524:	6018      	str	r0, [r3, #0]
}
 8080526:	bd08      	pop	{r3, pc}
 8080528:	66666666 	.word	0x66666666
 808052c:	400a6666 	.word	0x400a6666
 8080530:	3fe00000 	.word	0x3fe00000
 8080534:	40590000 	.word	0x40590000
 8080538:	40220000 	.word	0x40220000
 808053c:	40140000 	.word	0x40140000
 8080540:	40400000 	.word	0x40400000
 8080544:	20000190 	.word	0x20000190

08080548 <_Z17connectToParticlev>:
{
 8080548:	e92d 47f0 	stmdb	sp!, {r4, r5, r6, r7, r8, r9, sl, lr}
  if (!Cellular.ready())
 808054c:	4d2f      	ldr	r5, [pc, #188]	; (808060c <_Z17connectToParticlev+0xc4>)
 808054e:	4628      	mov	r0, r5
 8080550:	f7ff fecc 	bl	80802ec <_ZN5spark13CellularClass5readyEv>
 8080554:	4604      	mov	r4, r0
 8080556:	b308      	cbz	r0, 808059c <_Z17connectToParticlev+0x54>
		return !timeout_fn;
	}

	static inline system_tick_t current_time()
	{
		return HAL_Timer_Get_Milli_Seconds();
 8080558:	f001 fa42 	bl	80819e0 <HAL_Timer_Get_Milli_Seconds>
	/**
	 * Lifesign that the application is still working normally.
	 */
	static void checkin()
	{
		last_checkin = current_time();
 808055c:	4d2c      	ldr	r5, [pc, #176]	; (8080610 <_Z17connectToParticlev+0xc8>)
        HAL_Core_Button_Mirror_Pin_Disable((uint8_t)bootloader, 0, NULL);
    }

    // This function is similar to the global millis() but returns a 64-bit value
    static uint64_t millis() {
        return hal_timer_millis(nullptr);
 808055e:	f04f 0a00 	mov.w	sl, #0
 8080562:	6028      	str	r0, [r5, #0]
        spark_cloud_flag_connect();
    }
    static void disconnect(const CloudDisconnectOptions& options = CloudDisconnectOptions());
    static void process(void) {
    		application_checkin();
    		spark_process();
 8080564:	f001 fc3c 	bl	8081de0 <spark_process>
        spark_cloud_flag_connect();
 8080568:	f001 fc42 	bl	8081df0 <spark_cloud_flag_connect>
 808056c:	2000      	movs	r0, #0
 808056e:	f001 fa47 	bl	8081a00 <hal_timer_millis>
        while (_while() && !_condition()) {
 8080572:	f247 582f 	movw	r8, #29999	; 0x752f
        return hal_timer_millis(nullptr);
 8080576:	4604      	mov	r4, r0
        while (_while() && !_condition()) {
 8080578:	f04f 0900 	mov.w	r9, #0
        return hal_timer_millis(nullptr);
 808057c:	2000      	movs	r0, #0
 808057e:	f001 fa3f 	bl	8081a00 <hal_timer_millis>
        return waitConditionWhile(_condition, [=]{ return (millis()-start)<timeout; });
 8080582:	1b06      	subs	r6, r0, r4
 8080584:	eb61 070a 	sbc.w	r7, r1, sl
        while (_while() && !_condition()) {
 8080588:	45b9      	cmp	r9, r7
 808058a:	bf08      	it	eq
 808058c:	45b0      	cmpeq	r8, r6
 808058e:	d332      	bcc.n	80805f6 <_Z17connectToParticlev+0xae>
    static bool connected(void) { return spark_cloud_flag_connected(); }
 8080590:	f001 fc36 	bl	8081e00 <spark_cloud_flag_connected>
 8080594:	bb78      	cbnz	r0, 80805f6 <_Z17connectToParticlev+0xae>
            spark_process();
 8080596:	f001 fc23 	bl	8081de0 <spark_process>
        while (_while() && !_condition()) {
 808059a:	e7ef      	b.n	808057c <_Z17connectToParticlev+0x34>
        network_on(*this, 0, 0, NULL);
 808059c:	4603      	mov	r3, r0
 808059e:	4602      	mov	r2, r0
 80805a0:	4601      	mov	r1, r0
 80805a2:	6868      	ldr	r0, [r5, #4]
 80805a4:	f001 fc94 	bl	8081ed0 <network_on>
        network_connect(*this, flags, 0, NULL);
 80805a8:	4623      	mov	r3, r4
 80805aa:	4622      	mov	r2, r4
 80805ac:	4621      	mov	r1, r4
 80805ae:	6868      	ldr	r0, [r5, #4]
 80805b0:	f001 fc6e 	bl	8081e90 <network_connect>
        return hal_timer_millis(nullptr);
 80805b4:	4620      	mov	r0, r4
 80805b6:	f001 fa23 	bl	8081a00 <hal_timer_millis>
 80805ba:	4682      	mov	sl, r0
 80805bc:	2000      	movs	r0, #0
 80805be:	f001 fa1f 	bl	8081a00 <hal_timer_millis>
        while (_while() && !_condition()) {
 80805c2:	2300      	movs	r3, #0
        return waitConditionWhile(_condition, [=]{ return (millis()-start)<timeout; });
 80805c4:	ebb0 080a 	subs.w	r8, r0, sl
        while (_while() && !_condition()) {
 80805c8:	4a12      	ldr	r2, [pc, #72]	; (8080614 <_Z17connectToParticlev+0xcc>)
        return waitConditionWhile(_condition, [=]{ return (millis()-start)<timeout; });
 80805ca:	eb61 0904 	sbc.w	r9, r1, r4
        while (_while() && !_condition()) {
 80805ce:	454b      	cmp	r3, r9
 80805d0:	bf08      	it	eq
 80805d2:	4542      	cmpeq	r2, r8
 80805d4:	d306      	bcc.n	80805e4 <_Z17connectToParticlev+0x9c>
    if(!waitFor(Cellular.ready,90000)) return false;         // Connect to cellular - give it 90 seconds
 80805d6:	4628      	mov	r0, r5
 80805d8:	f7ff fe88 	bl	80802ec <_ZN5spark13CellularClass5readyEv>
 80805dc:	b910      	cbnz	r0, 80805e4 <_Z17connectToParticlev+0x9c>
            spark_process();
 80805de:	f001 fbff 	bl	8081de0 <spark_process>
        while (_while() && !_condition()) {
 80805e2:	e7eb      	b.n	80805bc <_Z17connectToParticlev+0x74>
 80805e4:	4809      	ldr	r0, [pc, #36]	; (808060c <_Z17connectToParticlev+0xc4>)
 80805e6:	f7ff fe81 	bl	80802ec <_ZN5spark13CellularClass5readyEv>
 80805ea:	2800      	cmp	r0, #0
 80805ec:	d1b4      	bne.n	8080558 <_Z17connectToParticlev+0x10>
 80805ee:	2400      	movs	r4, #0
}
 80805f0:	4620      	mov	r0, r4
 80805f2:	e8bd 87f0 	ldmia.w	sp!, {r4, r5, r6, r7, r8, r9, sl, pc}
 80805f6:	f001 fc03 	bl	8081e00 <spark_cloud_flag_connected>
  if(!waitFor(Particle.connected,30000)) return false;     // Connect to Particle - give it 30 seconds
 80805fa:	4604      	mov	r4, r0
 80805fc:	2800      	cmp	r0, #0
 80805fe:	d0f6      	beq.n	80805ee <_Z17connectToParticlev+0xa6>
		return HAL_Timer_Get_Milli_Seconds();
 8080600:	f001 f9ee 	bl	80819e0 <HAL_Timer_Get_Milli_Seconds>
		last_checkin = current_time();
 8080604:	6028      	str	r0, [r5, #0]
    		spark_process();
 8080606:	f001 fbeb 	bl	8081de0 <spark_process>
    }
 808060a:	e7f1      	b.n	80805f0 <_Z17connectToParticlev+0xa8>
 808060c:	2000019c 	.word	0x2000019c
 8080610:	200006dc 	.word	0x200006dc
 8080614:	00015f8f 	.word	0x00015f8f

08080618 <_Z12notConnectedv>:
bool notConnected() {
 8080618:	b508      	push	{r3, lr}
    static bool connected(void) { return spark_cloud_flag_connected(); }
 808061a:	f001 fbf1 	bl	8081e00 <spark_cloud_flag_connected>
  return !Particle.connected();                             // This is a requirement to use waitFor
 808061e:	f080 0001 	eor.w	r0, r0, #1
}
 8080622:	b2c0      	uxtb	r0, r0
 8080624:	bd08      	pop	{r3, pc}
	...

08080628 <_Z22disconnectFromParticlev>:
{
 8080628:	e92d 43f0 	stmdb	sp!, {r4, r5, r6, r7, r8, r9, lr}
inline CloudDisconnectOptions::CloudDisconnectOptions(unsigned flags, system_tick_t timeout, bool graceful,
        bool clearSession) :
        flags_(flags),
        timeout_(timeout),
        graceful_(graceful),
        clearSession_(clearSession) {
 808062c:	2400      	movs	r4, #0
 808062e:	b085      	sub	sp, #20
  Particle.disconnect();                                   // Disconnect from Particle in prep for sleep
 8080630:	a801      	add	r0, sp, #4
 8080632:	e9cd 4401 	strd	r4, r4, [sp, #4]
 8080636:	f8ad 400c 	strh.w	r4, [sp, #12]
 808063a:	f001 fe9f 	bl	808237c <_ZN10CloudClass10disconnectERK22CloudDisconnectOptions>
        return hal_timer_millis(nullptr);
 808063e:	4620      	mov	r0, r4
 8080640:	f001 f9de 	bl	8081a00 <hal_timer_millis>
        while (_while() && !_condition()) {
 8080644:	f242 780f 	movw	r8, #9999	; 0x270f
        return hal_timer_millis(nullptr);
 8080648:	4605      	mov	r5, r0
        while (_while() && !_condition()) {
 808064a:	f04f 0900 	mov.w	r9, #0
        return hal_timer_millis(nullptr);
 808064e:	2000      	movs	r0, #0
 8080650:	f001 f9d6 	bl	8081a00 <hal_timer_millis>
        return waitConditionWhile(_condition, [=]{ return (millis()-start)<timeout; });
 8080654:	1b46      	subs	r6, r0, r5
 8080656:	eb61 0704 	sbc.w	r7, r1, r4
        while (_while() && !_condition()) {
 808065a:	45b9      	cmp	r9, r7
 808065c:	bf08      	it	eq
 808065e:	45b0      	cmpeq	r8, r6
 8080660:	d305      	bcc.n	808066e <_Z22disconnectFromParticlev+0x46>
  waitFor(notConnected,10000);
 8080662:	f7ff ffd9 	bl	8080618 <_Z12notConnectedv>
 8080666:	b910      	cbnz	r0, 808066e <_Z22disconnectFromParticlev+0x46>
            spark_process();
 8080668:	f001 fbba 	bl	8081de0 <spark_process>
        while (_while() && !_condition()) {
 808066c:	e7ef      	b.n	808064e <_Z22disconnectFromParticlev+0x26>
        network_disconnect(*this, NETWORK_DISCONNECT_REASON_USER, NULL);
 808066e:	4c09      	ldr	r4, [pc, #36]	; (8080694 <_Z22disconnectFromParticlev+0x6c>)
 8080670:	f7ff ffd2 	bl	8080618 <_Z12notConnectedv>
 8080674:	2200      	movs	r2, #0
 8080676:	2102      	movs	r1, #2
 8080678:	6860      	ldr	r0, [r4, #4]
 808067a:	f001 fc19 	bl	8081eb0 <network_disconnect>
  delay(3000);
 808067e:	f640 30b8 	movw	r0, #3000	; 0xbb8
 8080682:	f001 fcad 	bl	8081fe0 <delay>
  Cellular.off();                                           // Turn off the cellular modem
 8080686:	4620      	mov	r0, r4
 8080688:	f7ff fe2a 	bl	80802e0 <_ZN5spark13CellularClass3offEv>
}
 808068c:	2001      	movs	r0, #1
 808068e:	b005      	add	sp, #20
 8080690:	e8bd 83f0 	ldmia.w	sp!, {r4, r5, r6, r7, r8, r9, pc}
 8080694:	2000019c 	.word	0x2000019c

08080698 <_Z12getLostPowerv>:
        AbstractDiagnosticData(id, name, type) {
}

template<typename UnderlyingTypeT>
inline int AbstractTypeDiagnosticData<UnderlyingTypeT>::get(DiagnosticDataId id, UnderlyingTypeT& val) {
    const diag_source* src = nullptr;
 8080698:	2200      	movs	r2, #0
  Particle.publish("Time",Time.timeStr(t), PRIVATE);
  lastPublish = millis();
  return 1;
}

bool getLostPower() {
 808069a:	b510      	push	{r4, lr}
 808069c:	b086      	sub	sp, #24
    const int ret = diag_get_source(id, &src, nullptr);
 808069e:	2018      	movs	r0, #24
 80806a0:	a902      	add	r1, sp, #8
    const diag_source* src = nullptr;
 80806a2:	9202      	str	r2, [sp, #8]
    const int ret = diag_get_source(id, &src, nullptr);
 80806a4:	f001 fb24 	bl	8081cf0 <diag_get_source>
    if (ret != SYSTEM_ERROR_NONE) {
 80806a8:	b9b8      	cbnz	r0, 80806da <_Z12getLostPowerv+0x42>
        return ret;
    }
    return get(src, val);
 80806aa:	9c02      	ldr	r4, [sp, #8]
    SPARK_ASSERT(src && src->callback);
 80806ac:	b10c      	cbz	r4, 80806b2 <_Z12getLostPowerv+0x1a>
 80806ae:	6923      	ldr	r3, [r4, #16]
 80806b0:	b923      	cbnz	r3, 80806bc <_Z12getLostPowerv+0x24>
 80806b2:	2100      	movs	r1, #0
 80806b4:	200a      	movs	r0, #10
 80806b6:	4a0e      	ldr	r2, [pc, #56]	; (80806f0 <_Z12getLostPowerv+0x58>)
 80806b8:	f001 fafa 	bl	8081cb0 <panic_>
    diag_source_get_cmd_data d = { sizeof(diag_source_get_cmd_data), 0 /* reserved */, data, size };
 80806bc:	2300      	movs	r3, #0
 80806be:	f8ad 300e 	strh.w	r3, [sp, #14]
 80806c2:	230c      	movs	r3, #12
 80806c4:	f8ad 300c 	strh.w	r3, [sp, #12]
 80806c8:	ab01      	add	r3, sp, #4
 80806ca:	9304      	str	r3, [sp, #16]
 80806cc:	2304      	movs	r3, #4
    const int ret = src->callback(src, DIAG_SOURCE_CMD_GET, &d);
 80806ce:	2101      	movs	r1, #1
    diag_source_get_cmd_data d = { sizeof(diag_source_get_cmd_data), 0 /* reserved */, data, size };
 80806d0:	9305      	str	r3, [sp, #20]
    const int ret = src->callback(src, DIAG_SOURCE_CMD_GET, &d);
 80806d2:	4620      	mov	r0, r4
 80806d4:	6923      	ldr	r3, [r4, #16]
 80806d6:	aa03      	add	r2, sp, #12
 80806d8:	4798      	blx	r3
    }

    int powerSource() const {
        particle::AbstractIntegerDiagnosticData::IntType val;
        const auto r = particle::AbstractIntegerDiagnosticData::get(DIAG_ID_SYSTEM_POWER_SOURCE, val);
        if (r < 0) {
 80806da:	2800      	cmp	r0, #0
 80806dc:	db05      	blt.n	80806ea <_Z12getLostPowerv+0x52>
      POWER_SOURCE_BATTERY = 5
  } power_source_t;

  int powerSource = System.powerSource();

  if (powerSource == POWER_SOURCE_VIN) return 0;        // Return false if power is good
 80806de:	9801      	ldr	r0, [sp, #4]
 80806e0:	3801      	subs	r0, #1
 80806e2:	bf18      	it	ne
 80806e4:	2001      	movne	r0, #1
  else return 1;                                        // Return true otherwise 
}
 80806e6:	b006      	add	sp, #24
 80806e8:	bd10      	pop	{r4, pc}
  else return 1;                                        // Return true otherwise 
 80806ea:	2001      	movs	r0, #1
 80806ec:	e7fb      	b.n	80806e6 <_Z12getLostPowerv+0x4e>
 80806ee:	bf00      	nop
 80806f0:	080819d1 	.word	0x080819d1

080806f4 <_Z20meterParticlePublishv>:

bool meterParticlePublish(void)
{
 80806f4:	b508      	push	{r3, lr}

#ifdef __cplusplus
extern "C" {
#endif

inline system_tick_t millis(void) { return HAL_Timer_Get_Milli_Seconds(); }
 80806f6:	f001 f973 	bl	80819e0 <HAL_Timer_Get_Milli_Seconds>
  if(millis() - lastPublish >= publishFrequency) return 1;
 80806fa:	4b05      	ldr	r3, [pc, #20]	; (8080710 <_Z20meterParticlePublishv+0x1c>)
 80806fc:	681b      	ldr	r3, [r3, #0]
 80806fe:	1ac0      	subs	r0, r0, r3
 8080700:	4b04      	ldr	r3, [pc, #16]	; (8080714 <_Z20meterParticlePublishv+0x20>)
 8080702:	681b      	ldr	r3, [r3, #0]
  else return 0;
}
 8080704:	4298      	cmp	r0, r3
 8080706:	bf34      	ite	cc
 8080708:	2000      	movcc	r0, #0
 808070a:	2001      	movcs	r0, #1
 808070c:	bd08      	pop	{r3, pc}
 808070e:	bf00      	nop
 8080710:	20000140 	.word	0x20000140
 8080714:	20000008 	.word	0x20000008

08080718 <_ZN11SystemClass18waitConditionWhileIZ11setTimeZone6StringEUlvE0_ZNS_13waitConditionIS2_EEbT_EUlvE_EEbS4_T0_.isra.0>:
    template<typename Condition, typename While> static bool waitConditionWhile(Condition _condition, While _while) {
 8080718:	b508      	push	{r3, lr}
    waitUntil(meterParticlePublish);
 808071a:	f7ff ffeb 	bl	80806f4 <_Z20meterParticlePublishv>
        while (_while() && !_condition()) {
 808071e:	b910      	cbnz	r0, 8080726 <_ZN11SystemClass18waitConditionWhileIZ11setTimeZone6StringEUlvE0_ZNS_13waitConditionIS2_EEbT_EUlvE_EEbS4_T0_.isra.0+0xe>
            spark_process();
 8080720:	f001 fb5e 	bl	8081de0 <spark_process>
        while (_while() && !_condition()) {
 8080724:	e7f9      	b.n	808071a <_ZN11SystemClass18waitConditionWhileIZ11setTimeZone6StringEUlvE0_ZNS_13waitConditionIS2_EEbT_EUlvE_EEbS4_T0_.isra.0+0x2>
    }
 8080726:	e8bd 4008 	ldmia.w	sp!, {r3, lr}
 808072a:	f7ff bfe3 	b.w	80806f4 <_Z20meterParticlePublishv>
	...

08080730 <_Z15meterSampleRatev>:

bool meterSampleRate(void)
{
 8080730:	b510      	push	{r4, lr}
 8080732:	f001 f955 	bl	80819e0 <HAL_Timer_Get_Milli_Seconds>
  static unsigned long lastSample = 0;
  if(millis() - lastSample >= sampleFrequency) {
 8080736:	4c07      	ldr	r4, [pc, #28]	; (8080754 <_Z15meterSampleRatev+0x24>)
 8080738:	6823      	ldr	r3, [r4, #0]
 808073a:	1ac0      	subs	r0, r0, r3
 808073c:	4b06      	ldr	r3, [pc, #24]	; (8080758 <_Z15meterSampleRatev+0x28>)
 808073e:	681b      	ldr	r3, [r3, #0]
 8080740:	4298      	cmp	r0, r3
 8080742:	d304      	bcc.n	808074e <_Z15meterSampleRatev+0x1e>
 8080744:	f001 f94c 	bl	80819e0 <HAL_Timer_Get_Milli_Seconds>
    lastSample = millis();
 8080748:	6020      	str	r0, [r4, #0]
 808074a:	2001      	movs	r0, #1
    return 1;
  } 
  else return 0;
}
 808074c:	bd10      	pop	{r4, pc}
  else return 0;
 808074e:	2000      	movs	r0, #0
 8080750:	e7fc      	b.n	808074c <_Z15meterSampleRatev+0x1c>
 8080752:	bf00      	nop
 8080754:	2000011c 	.word	0x2000011c
 8080758:	20000014 	.word	0x20000014

0808075c <_Z14fullModemResetv>:
 808075c:	2300      	movs	r3, #0

void fullModemReset() {  // Adapted form Rikkas7's https://github.com/rickkas7/electronsample
 808075e:	b530      	push	{r4, r5, lr}
 8080760:	b085      	sub	sp, #20

	Particle.disconnect(); 	                                         // Disconnect from the cloud
 8080762:	a801      	add	r0, sp, #4
 8080764:	e9cd 3301 	strd	r3, r3, [sp, #4]
 8080768:	f8ad 300c 	strh.w	r3, [sp, #12]
 808076c:	f001 fe06 	bl	808237c <_ZN10CloudClass10disconnectERK22CloudDisconnectOptions>
 8080770:	f001 f936 	bl	80819e0 <HAL_Timer_Get_Milli_Seconds>
	unsigned long startTime = millis();  	                           // Wait up to 15 seconds to disconnect
	while(Particle.connected() && millis() - startTime < 15000) {
 8080774:	f643 2597 	movw	r5, #14999	; 0x3a97
 8080778:	4604      	mov	r4, r0
    static bool connected(void) { return spark_cloud_flag_connected(); }
 808077a:	f001 fb41 	bl	8081e00 <spark_cloud_flag_connected>
 808077e:	b140      	cbz	r0, 8080792 <_Z14fullModemResetv+0x36>
 8080780:	f001 f92e 	bl	80819e0 <HAL_Timer_Get_Milli_Seconds>
 8080784:	1b00      	subs	r0, r0, r4
 8080786:	42a8      	cmp	r0, r5
 8080788:	d803      	bhi.n	8080792 <_Z14fullModemResetv+0x36>
		delay(100);
 808078a:	2064      	movs	r0, #100	; 0x64
 808078c:	f001 fc28 	bl	8081fe0 <delay>
	while(Particle.connected() && millis() - startTime < 15000) {
 8080790:	e7f3      	b.n	808077a <_Z14fullModemResetv+0x1e>
	}
  Cellular.off();
 8080792:	4808      	ldr	r0, [pc, #32]	; (80807b4 <_Z14fullModemResetv+0x58>)
 8080794:	f7ff fda4 	bl	80802e0 <_ZN5spark13CellularClass3offEv>
  delay(10000);
 8080798:	f242 7010 	movw	r0, #10000	; 0x2710
 808079c:	f001 fc20 	bl	8081fe0 <delay>
	System.sleep(SLEEP_MODE_DEEP, 10);
 80807a0:	4b05      	ldr	r3, [pc, #20]	; (80807b8 <_Z14fullModemResetv+0x5c>)
 80807a2:	220a      	movs	r2, #10
 80807a4:	2101      	movs	r1, #1
 80807a6:	681b      	ldr	r3, [r3, #0]
 80807a8:	a801      	add	r0, sp, #4
 80807aa:	f003 fe09 	bl	80843c0 <_ZN11SystemClass5sleepE19Spark_Sleep_TypeDeflN8particle5FlagsI19SleepOptionFlagTypemEE>
}
 80807ae:	b005      	add	sp, #20
 80807b0:	bd30      	pop	{r4, r5, pc}
 80807b2:	bf00      	nop
 80807b4:	2000019c 	.word	0x2000019c
 80807b8:	20000114 	.word	0x20000114

080807bc <_ZNSt14__shared_countILN9__gnu_cxx12_Lock_policyE0EED1Ev>:
      explicit __shared_count(const __weak_count<_Lp>& __r);

      // Does not throw if __r._M_get_use_count() == 0, caller must check.
      explicit __shared_count(const __weak_count<_Lp>& __r, std::nothrow_t);

      ~__shared_count() noexcept
 80807bc:	b538      	push	{r3, r4, r5, lr}
      {
	if (_M_pi != nullptr)
 80807be:	6804      	ldr	r4, [r0, #0]
      ~__shared_count() noexcept
 80807c0:	4605      	mov	r5, r0
	if (_M_pi != nullptr)
 80807c2:	b17c      	cbz	r4, 80807e4 <_ZNSt14__shared_countILN9__gnu_cxx12_Lock_policyE0EED1Ev+0x28>
      if (--_M_use_count == 0)
 80807c4:	6863      	ldr	r3, [r4, #4]
 80807c6:	3b01      	subs	r3, #1
 80807c8:	6063      	str	r3, [r4, #4]
 80807ca:	b95b      	cbnz	r3, 80807e4 <_ZNSt14__shared_countILN9__gnu_cxx12_Lock_policyE0EED1Ev+0x28>
          _M_dispose();
 80807cc:	6823      	ldr	r3, [r4, #0]
 80807ce:	4620      	mov	r0, r4
 80807d0:	689b      	ldr	r3, [r3, #8]
 80807d2:	4798      	blx	r3
          if (--_M_weak_count == 0)
 80807d4:	68a3      	ldr	r3, [r4, #8]
 80807d6:	3b01      	subs	r3, #1
 80807d8:	60a3      	str	r3, [r4, #8]
 80807da:	b91b      	cbnz	r3, 80807e4 <_ZNSt14__shared_countILN9__gnu_cxx12_Lock_policyE0EED1Ev+0x28>
            _M_destroy();
 80807dc:	6823      	ldr	r3, [r4, #0]
 80807de:	4620      	mov	r0, r4
 80807e0:	68db      	ldr	r3, [r3, #12]
 80807e2:	4798      	blx	r3
	  _M_pi->_M_release();
      }
 80807e4:	4628      	mov	r0, r5
 80807e6:	bd38      	pop	{r3, r4, r5, pc}

080807e8 <_Z9ResetFRAMv>:


void ResetFRAM()  // This will reset the FRAM - set the version and preserve delay and sensitivity
{
 80807e8:	e92d 41ff 	stmdb	sp!, {r0, r1, r2, r3, r4, r5, r6, r7, r8, lr}
    // Note - have to hard code the size here due to this issue - http://www.microchip.com/forums/m501193.aspx
    byte tempControlReg = FRAMread8(CONTROLREGISTER);
 80807ec:	2007      	movs	r0, #7
 80807ee:	f7ff fd99 	bl	8080324 <_Z9FRAMread8j>
    Particle.publish("FRAM","Resetting in progress", PRIVATE);
 80807f2:	2300      	movs	r3, #0
 80807f4:	f88d 3000 	strb.w	r3, [sp]
 80807f8:	4b20      	ldr	r3, [pc, #128]	; (808087c <_Z9ResetFRAMv+0x94>)
 80807fa:	4a21      	ldr	r2, [pc, #132]	; (8080880 <_Z9ResetFRAMv+0x98>)
 80807fc:	781b      	ldrb	r3, [r3, #0]
 80807fe:	4921      	ldr	r1, [pc, #132]	; (8080884 <_Z9ResetFRAMv+0x9c>)
    byte tempControlReg = FRAMread8(CONTROLREGISTER);
 8080800:	4605      	mov	r5, r0
    Particle.publish("FRAM","Resetting in progress", PRIVATE);
 8080802:	a802      	add	r0, sp, #8
 8080804:	f7ff fd3a 	bl	808027c <_ZN10CloudClass7publishEPKcS1_N8particle5FlagsI15PublishFlagTypehEES5_.isra.0.constprop.0>
	: _M_ptr(__p), _M_refcount(__r._M_refcount) // never throws
	{ }

      __shared_ptr(const __shared_ptr&) noexcept = default;
      __shared_ptr& operator=(const __shared_ptr&) noexcept = default;
      ~__shared_ptr() = default;
 8080808:	a803      	add	r0, sp, #12
 808080a:	f7ff ffd7 	bl	80807bc <_ZNSt14__shared_countILN9__gnu_cxx12_Lock_policyE0EED1Ev>
    for (unsigned long i=8; i < 32768; i++) {  // Start at 8 to not overwrite permanent settings
 808080e:	2408      	movs	r4, #8
        FRAMwrite8(i,0x0);
        if (i==8192) Serial.println(F("25% done"));
        if (i==16384) Serial.println(F("50% done"));
        if (i==(24576)) Serial.println(F("75% done"));
        if (i==32767) Serial.println(F("Done"));
 8080810:	4e1d      	ldr	r6, [pc, #116]	; (8080888 <_Z9ResetFRAMv+0xa0>)
        if (i==(24576)) Serial.println(F("75% done"));
 8080812:	4f1e      	ldr	r7, [pc, #120]	; (808088c <_Z9ResetFRAMv+0xa4>)
        if (i==16384) Serial.println(F("50% done"));
 8080814:	f8df 807c 	ldr.w	r8, [pc, #124]	; 8080894 <_Z9ResetFRAMv+0xac>
        FRAMwrite8(i,0x0);
 8080818:	2100      	movs	r1, #0
 808081a:	4620      	mov	r0, r4
 808081c:	f7ff fd88 	bl	8080330 <_Z10FRAMwrite8jh>
        if (i==8192) Serial.println(F("25% done"));
 8080820:	f5b4 5f00 	cmp.w	r4, #8192	; 0x2000
 8080824:	d113      	bne.n	808084e <_Z9ResetFRAMv+0x66>
 8080826:	f003 ffdd 	bl	80847e4 <_Z16_fetch_usbserialv>
 808082a:	4919      	ldr	r1, [pc, #100]	; (8080890 <_Z9ResetFRAMv+0xa8>)
        if (i==32767) Serial.println(F("Done"));
 808082c:	f003 fc40 	bl	80840b0 <_ZN5Print7printlnEPKc>
    for (unsigned long i=8; i < 32768; i++) {  // Start at 8 to not overwrite permanent settings
 8080830:	3401      	adds	r4, #1
 8080832:	f5b4 4f00 	cmp.w	r4, #32768	; 0x8000
 8080836:	d1ef      	bne.n	8080818 <_Z9ResetFRAMv+0x30>
    }
    FRAMwrite8(CONTROLREGISTER,tempControlReg);   // Preserce the control register values
 8080838:	4629      	mov	r1, r5
 808083a:	2007      	movs	r0, #7
 808083c:	f7ff fd78 	bl	8080330 <_Z10FRAMwrite8jh>
    FRAMwrite8(VERSIONADDR,VERSIONNUMBER);  // Reset version to match #define value for sketch
 8080840:	2109      	movs	r1, #9
 8080842:	2000      	movs	r0, #0
 8080844:	f7ff fd74 	bl	8080330 <_Z10FRAMwrite8jh>
}
 8080848:	b004      	add	sp, #16
 808084a:	e8bd 81f0 	ldmia.w	sp!, {r4, r5, r6, r7, r8, pc}
        if (i==16384) Serial.println(F("50% done"));
 808084e:	f5b4 4f80 	cmp.w	r4, #16384	; 0x4000
 8080852:	d103      	bne.n	808085c <_Z9ResetFRAMv+0x74>
 8080854:	f003 ffc6 	bl	80847e4 <_Z16_fetch_usbserialv>
 8080858:	4641      	mov	r1, r8
 808085a:	e7e7      	b.n	808082c <_Z9ResetFRAMv+0x44>
        if (i==(24576)) Serial.println(F("75% done"));
 808085c:	f5b4 4fc0 	cmp.w	r4, #24576	; 0x6000
 8080860:	d103      	bne.n	808086a <_Z9ResetFRAMv+0x82>
 8080862:	f003 ffbf 	bl	80847e4 <_Z16_fetch_usbserialv>
 8080866:	4639      	mov	r1, r7
 8080868:	e7e0      	b.n	808082c <_Z9ResetFRAMv+0x44>
        if (i==32767) Serial.println(F("Done"));
 808086a:	f647 73ff 	movw	r3, #32767	; 0x7fff
 808086e:	429c      	cmp	r4, r3
 8080870:	d1de      	bne.n	8080830 <_Z9ResetFRAMv+0x48>
 8080872:	f003 ffb7 	bl	80847e4 <_Z16_fetch_usbserialv>
 8080876:	4631      	mov	r1, r6
 8080878:	e7d8      	b.n	808082c <_Z9ResetFRAMv+0x44>
 808087a:	bf00      	nop
 808087c:	20000118 	.word	0x20000118
 8080880:	08086014 	.word	0x08086014
 8080884:	0808630d 	.word	0x0808630d
 8080888:	08086045 	.word	0x08086045
 808088c:	0808603c 	.word	0x0808603c
 8080890:	0808602a 	.word	0x0808602a
 8080894:	08086033 	.word	0x08086033

08080898 <_Z9resetFRAM6String>:
{
 8080898:	b508      	push	{r3, lr}
 808089a:	4904      	ldr	r1, [pc, #16]	; (80808ac <_Z9resetFRAM6String+0x14>)
 808089c:	f003 fd14 	bl	80842c8 <_ZNK6String6equalsEPKc>
  if (command == "1")
 80808a0:	b110      	cbz	r0, 80808a8 <_Z9resetFRAM6String+0x10>
    ResetFRAM();
 80808a2:	f7ff ffa1 	bl	80807e8 <_Z9ResetFRAMv>
    return 1;
 80808a6:	2001      	movs	r0, #1
}
 80808a8:	bd08      	pop	{r3, pc}
 80808aa:	bf00      	nop
 80808ac:	08085fd4 	.word	0x08085fd4

080808b0 <_Z12resolveAlertv>:
  char data[128] = "";
 80808b0:	2100      	movs	r1, #0
{
 80808b2:	b510      	push	{r4, lr}
 80808b4:	b0a4      	sub	sp, #144	; 0x90
  char data[128] = "";
 80808b6:	227c      	movs	r2, #124	; 0x7c
 80808b8:	a805      	add	r0, sp, #20
 80808ba:	9104      	str	r1, [sp, #16]
 80808bc:	f005 f9b1 	bl	8085c22 <memset>
  if (alertValue & 0b00000001) strcat(data,"Booster No Flow 1 - ");
 80808c0:	4b20      	ldr	r3, [pc, #128]	; (8080944 <_Z12resolveAlertv+0x94>)
 80808c2:	781c      	ldrb	r4, [r3, #0]
 80808c4:	07e2      	lsls	r2, r4, #31
 80808c6:	d503      	bpl.n	80808d0 <_Z12resolveAlertv+0x20>
 80808c8:	491f      	ldr	r1, [pc, #124]	; (8080948 <_Z12resolveAlertv+0x98>)
 80808ca:	a804      	add	r0, sp, #16
 80808cc:	f005 f9d6 	bl	8085c7c <strcat>
  if (alertValue & 0b00000010) strcat(data,"Booster No Flow 2 - ");
 80808d0:	07a3      	lsls	r3, r4, #30
 80808d2:	d503      	bpl.n	80808dc <_Z12resolveAlertv+0x2c>
 80808d4:	491d      	ldr	r1, [pc, #116]	; (808094c <_Z12resolveAlertv+0x9c>)
 80808d6:	a804      	add	r0, sp, #16
 80808d8:	f005 f9d0 	bl	8085c7c <strcat>
  if (alertValue & 0b00000100) strcat(data,"Storage Tank Low - ");
 80808dc:	0760      	lsls	r0, r4, #29
 80808de:	d503      	bpl.n	80808e8 <_Z12resolveAlertv+0x38>
 80808e0:	491b      	ldr	r1, [pc, #108]	; (8080950 <_Z12resolveAlertv+0xa0>)
 80808e2:	a804      	add	r0, sp, #16
 80808e4:	f005 f9ca 	bl	8085c7c <strcat>
  if (alertValue & 0b00001000) strcat(data,"Pump 1 Called - ");
 80808e8:	0721      	lsls	r1, r4, #28
 80808ea:	d503      	bpl.n	80808f4 <_Z12resolveAlertv+0x44>
 80808ec:	4919      	ldr	r1, [pc, #100]	; (8080954 <_Z12resolveAlertv+0xa4>)
 80808ee:	a804      	add	r0, sp, #16
 80808f0:	f005 f9c4 	bl	8085c7c <strcat>
  if (alertValue & 0b00010000) strcat(data,"Pump 2 Called - ");
 80808f4:	06e2      	lsls	r2, r4, #27
 80808f6:	d503      	bpl.n	8080900 <_Z12resolveAlertv+0x50>
 80808f8:	4917      	ldr	r1, [pc, #92]	; (8080958 <_Z12resolveAlertv+0xa8>)
 80808fa:	a804      	add	r0, sp, #16
 80808fc:	f005 f9be 	bl	8085c7c <strcat>
  if (alertValue & 0b10000000) strcat(data,"Lost Power");
 8080900:	0623      	lsls	r3, r4, #24
 8080902:	d503      	bpl.n	808090c <_Z12resolveAlertv+0x5c>
 8080904:	4915      	ldr	r1, [pc, #84]	; (808095c <_Z12resolveAlertv+0xac>)
 8080906:	a804      	add	r0, sp, #16
 8080908:	f005 f9b8 	bl	8085c7c <strcat>
        return waitConditionWhile(_condition, []{ return true; });
 808090c:	f7ff ff04 	bl	8080718 <_ZN11SystemClass18waitConditionWhileIZ11setTimeZone6StringEUlvE0_ZNS_13waitConditionIS2_EEbT_EUlvE_EEbS4_T0_.isra.0>
  if(verboseMode) Particle.publish("Alerts",data,PRIVATE);
 8080910:	4b13      	ldr	r3, [pc, #76]	; (8080960 <_Z12resolveAlertv+0xb0>)
 8080912:	781b      	ldrb	r3, [r3, #0]
 8080914:	b163      	cbz	r3, 8080930 <_Z12resolveAlertv+0x80>
 8080916:	2300      	movs	r3, #0
 8080918:	f88d 3000 	strb.w	r3, [sp]
 808091c:	4b11      	ldr	r3, [pc, #68]	; (8080964 <_Z12resolveAlertv+0xb4>)
 808091e:	a802      	add	r0, sp, #8
 8080920:	781b      	ldrb	r3, [r3, #0]
 8080922:	4911      	ldr	r1, [pc, #68]	; (8080968 <_Z12resolveAlertv+0xb8>)
 8080924:	aa04      	add	r2, sp, #16
 8080926:	f7ff fca9 	bl	808027c <_ZN10CloudClass7publishEPKcS1_N8particle5FlagsI15PublishFlagTypehEES5_.isra.0.constprop.0>
 808092a:	a803      	add	r0, sp, #12
 808092c:	f7ff ff46 	bl	80807bc <_ZNSt14__shared_countILN9__gnu_cxx12_Lock_policyE0EED1Ev>
  Log.info(data);
 8080930:	a904      	add	r1, sp, #16
 8080932:	480e      	ldr	r0, [pc, #56]	; (808096c <_Z12resolveAlertv+0xbc>)
 8080934:	f7ff fcdf 	bl	80802f6 <_ZNK5spark6Logger4infoEPKcz>
 8080938:	f001 f852 	bl	80819e0 <HAL_Timer_Get_Milli_Seconds>
  lastPublish = millis();
 808093c:	4b0c      	ldr	r3, [pc, #48]	; (8080970 <_Z12resolveAlertv+0xc0>)
 808093e:	6018      	str	r0, [r3, #0]
}
 8080940:	b024      	add	sp, #144	; 0x90
 8080942:	bd10      	pop	{r4, pc}
 8080944:	20000120 	.word	0x20000120
 8080948:	0808604a 	.word	0x0808604a
 808094c:	0808605f 	.word	0x0808605f
 8080950:	08086074 	.word	0x08086074
 8080954:	08086088 	.word	0x08086088
 8080958:	08086099 	.word	0x08086099
 808095c:	080860aa 	.word	0x080860aa
 8080960:	20000194 	.word	0x20000194
 8080964:	20000118 	.word	0x20000118
 8080968:	080860b5 	.word	0x080860b5
 808096c:	200001d8 	.word	0x200001d8
 8080970:	20000140 	.word	0x20000140

08080974 <_Z9sendEventv>:
{
 8080974:	b570      	push	{r4, r5, r6, lr}
        val_(0) {
 8080976:	2500      	movs	r5, #0
  snprintf(data, sizeof(data), "{\"alertValue\":%i, \"pumpMins\":%i, \"battery\":%i, \"temp\":%i, \"resets\":%i}",alertValue, dailyPumpingMins, stateOfCharge, temperatureF,resetCount);
 8080978:	4b1b      	ldr	r3, [pc, #108]	; (80809e8 <_Z9sendEventv+0x74>)
{
 808097a:	b0c6      	sub	sp, #280	; 0x118
  snprintf(data, sizeof(data), "{\"alertValue\":%i, \"pumpMins\":%i, \"battery\":%i, \"temp\":%i, \"resets\":%i}",alertValue, dailyPumpingMins, stateOfCharge, temperatureF,resetCount);
 808097c:	681b      	ldr	r3, [r3, #0]
 808097e:	4e1b      	ldr	r6, [pc, #108]	; (80809ec <_Z9sendEventv+0x78>)
 8080980:	9303      	str	r3, [sp, #12]
 8080982:	4b1b      	ldr	r3, [pc, #108]	; (80809f0 <_Z9sendEventv+0x7c>)
 8080984:	4c1b      	ldr	r4, [pc, #108]	; (80809f4 <_Z9sendEventv+0x80>)
 8080986:	681b      	ldr	r3, [r3, #0]
 8080988:	f44f 7180 	mov.w	r1, #256	; 0x100
 808098c:	9302      	str	r3, [sp, #8]
 808098e:	4b1a      	ldr	r3, [pc, #104]	; (80809f8 <_Z9sendEventv+0x84>)
 8080990:	4a1a      	ldr	r2, [pc, #104]	; (80809fc <_Z9sendEventv+0x88>)
 8080992:	681b      	ldr	r3, [r3, #0]
 8080994:	a806      	add	r0, sp, #24
 8080996:	9301      	str	r3, [sp, #4]
 8080998:	4b19      	ldr	r3, [pc, #100]	; (8080a00 <_Z9sendEventv+0x8c>)
 808099a:	681b      	ldr	r3, [r3, #0]
 808099c:	9300      	str	r3, [sp, #0]
 808099e:	7833      	ldrb	r3, [r6, #0]
 80809a0:	f001 faf6 	bl	8081f90 <snprintf>
  Particle.publish("Monitoring_Hourly", data, PRIVATE);
 80809a4:	7823      	ldrb	r3, [r4, #0]
 80809a6:	aa06      	add	r2, sp, #24
 80809a8:	4916      	ldr	r1, [pc, #88]	; (8080a04 <_Z9sendEventv+0x90>)
 80809aa:	a804      	add	r0, sp, #16
 80809ac:	f88d 5000 	strb.w	r5, [sp]
 80809b0:	f7ff fc64 	bl	808027c <_ZN10CloudClass7publishEPKcS1_N8particle5FlagsI15PublishFlagTypehEES5_.isra.0.constprop.0>
 80809b4:	a805      	add	r0, sp, #20
 80809b6:	f7ff ff01 	bl	80807bc <_ZNSt14__shared_countILN9__gnu_cxx12_Lock_policyE0EED1Ev>
  snprintf(data,sizeof(data),"{\"data\":%i}",alertValue);
 80809ba:	7833      	ldrb	r3, [r6, #0]
 80809bc:	f44f 7180 	mov.w	r1, #256	; 0x100
 80809c0:	4a11      	ldr	r2, [pc, #68]	; (8080a08 <_Z9sendEventv+0x94>)
 80809c2:	a806      	add	r0, sp, #24
 80809c4:	f001 fae4 	bl	8081f90 <snprintf>
  Particle.publish("Monitoring-UbiFunction-Hook", data,PRIVATE);
 80809c8:	7823      	ldrb	r3, [r4, #0]
 80809ca:	aa06      	add	r2, sp, #24
 80809cc:	490f      	ldr	r1, [pc, #60]	; (8080a0c <_Z9sendEventv+0x98>)
 80809ce:	a804      	add	r0, sp, #16
 80809d0:	f88d 5000 	strb.w	r5, [sp]
 80809d4:	f7ff fc52 	bl	808027c <_ZN10CloudClass7publishEPKcS1_N8particle5FlagsI15PublishFlagTypehEES5_.isra.0.constprop.0>
 80809d8:	a805      	add	r0, sp, #20
 80809da:	f7ff feef 	bl	80807bc <_ZNSt14__shared_countILN9__gnu_cxx12_Lock_policyE0EED1Ev>
  dataInFlight = true; // set the data inflight flag
 80809de:	2201      	movs	r2, #1
 80809e0:	4b0b      	ldr	r3, [pc, #44]	; (8080a10 <_Z9sendEventv+0x9c>)
 80809e2:	701a      	strb	r2, [r3, #0]
}
 80809e4:	b046      	add	sp, #280	; 0x118
 80809e6:	bd70      	pop	{r4, r5, r6, pc}
 80809e8:	20000178 	.word	0x20000178
 80809ec:	20000120 	.word	0x20000120
 80809f0:	20000190 	.word	0x20000190
 80809f4:	20000118 	.word	0x20000118
 80809f8:	20000184 	.word	0x20000184
 80809fc:	080860bc 	.word	0x080860bc
 8080a00:	20000134 	.word	0x20000134
 8080a04:	08086103 	.word	0x08086103
 8080a08:	08086115 	.word	0x08086115
 8080a0c:	08086121 	.word	0x08086121
 8080a10:	20000138 	.word	0x20000138

08080a14 <_Z14UbidotsHandlerPKcS0_>:
{
 8080a14:	b51f      	push	{r0, r1, r2, r3, r4, lr}
  if (!data) {                                            // First check to see if there is any data
 8080a16:	460c      	mov	r4, r1
 8080a18:	b999      	cbnz	r1, 8080a42 <_Z14UbidotsHandlerPKcS0_+0x2e>
 8080a1a:	f7ff fe7d 	bl	8080718 <_ZN11SystemClass18waitConditionWhileIZ11setTimeZone6StringEUlvE0_ZNS_13waitConditionIS2_EEbT_EUlvE_EEbS4_T0_.isra.0>
    Particle.publish("Ubidots Hook", "No Data",PRIVATE);
 8080a1e:	4b20      	ldr	r3, [pc, #128]	; (8080aa0 <_Z14UbidotsHandlerPKcS0_+0x8c>)
 8080a20:	f88d 4000 	strb.w	r4, [sp]
 8080a24:	781b      	ldrb	r3, [r3, #0]
 8080a26:	4a1f      	ldr	r2, [pc, #124]	; (8080aa4 <_Z14UbidotsHandlerPKcS0_+0x90>)
 8080a28:	491f      	ldr	r1, [pc, #124]	; (8080aa8 <_Z14UbidotsHandlerPKcS0_+0x94>)
 8080a2a:	a802      	add	r0, sp, #8
 8080a2c:	f7ff fc26 	bl	808027c <_ZN10CloudClass7publishEPKcS1_N8particle5FlagsI15PublishFlagTypehEES5_.isra.0.constprop.0>
 8080a30:	a803      	add	r0, sp, #12
 8080a32:	f7ff fec3 	bl	80807bc <_ZNSt14__shared_countILN9__gnu_cxx12_Lock_policyE0EED1Ev>
 8080a36:	f000 ffd3 	bl	80819e0 <HAL_Timer_Get_Milli_Seconds>
    lastPublish = millis();
 8080a3a:	4b1c      	ldr	r3, [pc, #112]	; (8080aac <_Z14UbidotsHandlerPKcS0_+0x98>)
 8080a3c:	6018      	str	r0, [r3, #0]
}
 8080a3e:	b004      	add	sp, #16
 8080a40:	bd10      	pop	{r4, pc}
  int responseCode = atoi(data);                          // Response is only a single number thanks to Template
 8080a42:	4608      	mov	r0, r1
 8080a44:	f005 f8ba 	bl	8085bbc <atoi>
  if ((responseCode == 200) || (responseCode == 201))
 8080a48:	38c8      	subs	r0, #200	; 0xc8
 8080a4a:	2801      	cmp	r0, #1
 8080a4c:	d819      	bhi.n	8080a82 <_Z14UbidotsHandlerPKcS0_+0x6e>
 8080a4e:	f7ff fe63 	bl	8080718 <_ZN11SystemClass18waitConditionWhileIZ11setTimeZone6StringEUlvE0_ZNS_13waitConditionIS2_EEbT_EUlvE_EEbS4_T0_.isra.0>
    if(verboseMode) Particle.publish("State","Response Received",PRIVATE);
 8080a52:	4b17      	ldr	r3, [pc, #92]	; (8080ab0 <_Z14UbidotsHandlerPKcS0_+0x9c>)
 8080a54:	781b      	ldrb	r3, [r3, #0]
 8080a56:	b163      	cbz	r3, 8080a72 <_Z14UbidotsHandlerPKcS0_+0x5e>
 8080a58:	2300      	movs	r3, #0
 8080a5a:	f88d 3000 	strb.w	r3, [sp]
 8080a5e:	4b10      	ldr	r3, [pc, #64]	; (8080aa0 <_Z14UbidotsHandlerPKcS0_+0x8c>)
 8080a60:	a802      	add	r0, sp, #8
 8080a62:	781b      	ldrb	r3, [r3, #0]
 8080a64:	4a13      	ldr	r2, [pc, #76]	; (8080ab4 <_Z14UbidotsHandlerPKcS0_+0xa0>)
 8080a66:	4914      	ldr	r1, [pc, #80]	; (8080ab8 <_Z14UbidotsHandlerPKcS0_+0xa4>)
 8080a68:	f7ff fc08 	bl	808027c <_ZN10CloudClass7publishEPKcS1_N8particle5FlagsI15PublishFlagTypehEES5_.isra.0.constprop.0>
 8080a6c:	a803      	add	r0, sp, #12
 8080a6e:	f7ff fea5 	bl	80807bc <_ZNSt14__shared_countILN9__gnu_cxx12_Lock_policyE0EED1Ev>
 8080a72:	f000 ffb5 	bl	80819e0 <HAL_Timer_Get_Milli_Seconds>
    dataInFlight = false;                                 // Data has been received
 8080a76:	2200      	movs	r2, #0
    lastPublish = millis();
 8080a78:	4b0c      	ldr	r3, [pc, #48]	; (8080aac <_Z14UbidotsHandlerPKcS0_+0x98>)
 8080a7a:	6018      	str	r0, [r3, #0]
    dataInFlight = false;                                 // Data has been received
 8080a7c:	4b0f      	ldr	r3, [pc, #60]	; (8080abc <_Z14UbidotsHandlerPKcS0_+0xa8>)
 8080a7e:	701a      	strb	r2, [r3, #0]
 8080a80:	e7dd      	b.n	8080a3e <_Z14UbidotsHandlerPKcS0_+0x2a>
  else Particle.publish("Ubidots Hook", data, PRIVATE);             // Publish the response code
 8080a82:	2300      	movs	r3, #0
 8080a84:	f88d 3000 	strb.w	r3, [sp]
 8080a88:	4b05      	ldr	r3, [pc, #20]	; (8080aa0 <_Z14UbidotsHandlerPKcS0_+0x8c>)
 8080a8a:	a802      	add	r0, sp, #8
 8080a8c:	4622      	mov	r2, r4
 8080a8e:	781b      	ldrb	r3, [r3, #0]
 8080a90:	4905      	ldr	r1, [pc, #20]	; (8080aa8 <_Z14UbidotsHandlerPKcS0_+0x94>)
 8080a92:	f7ff fbf3 	bl	808027c <_ZN10CloudClass7publishEPKcS1_N8particle5FlagsI15PublishFlagTypehEES5_.isra.0.constprop.0>
 8080a96:	a803      	add	r0, sp, #12
 8080a98:	f7ff fe90 	bl	80807bc <_ZNSt14__shared_countILN9__gnu_cxx12_Lock_policyE0EED1Ev>
 8080a9c:	e7cf      	b.n	8080a3e <_Z14UbidotsHandlerPKcS0_+0x2a>
 8080a9e:	bf00      	nop
 8080aa0:	20000118 	.word	0x20000118
 8080aa4:	0808613d 	.word	0x0808613d
 8080aa8:	08086145 	.word	0x08086145
 8080aac:	20000140 	.word	0x20000140
 8080ab0:	20000194 	.word	0x20000194
 8080ab4:	08086152 	.word	0x08086152
 8080ab8:	08086354 	.word	0x08086354
 8080abc:	20000138 	.word	0x20000138

08080ac0 <_Z16takeMeasurementsv>:
bool takeMeasurements() {
 8080ac0:	e92d 4ff0 	stmdb	sp!, {r4, r5, r6, r7, r8, r9, sl, fp, lr}
  byte lastAlertValue = alertValue;                                             // Last value - so we can detect a change
 8080ac4:	4ca9      	ldr	r4, [pc, #676]	; (8080d6c <_Z16takeMeasurementsv+0x2ac>)
bool takeMeasurements() {
 8080ac6:	b0c7      	sub	sp, #284	; 0x11c
  controlRegister = FRAMread8(CONTROLREGISTER);                               // Check the control register
 8080ac8:	2007      	movs	r0, #7
 8080aca:	f7ff fc2b 	bl	8080324 <_Z9FRAMread8j>
  byte lastAlertValue = alertValue;                                             // Last value - so we can detect a change
 8080ace:	f894 b000 	ldrb.w	fp, [r4]
  alertValueInt = int(alertValue);
 8080ad2:	4ba7      	ldr	r3, [pc, #668]	; (8080d70 <_Z16takeMeasurementsv+0x2b0>)
  controlRegister = FRAMread8(CONTROLREGISTER);                               // Check the control register
 8080ad4:	4ea7      	ldr	r6, [pc, #668]	; (8080d74 <_Z16takeMeasurementsv+0x2b4>)
  alertValueInt = int(alertValue);
 8080ad6:	f8c3 b000 	str.w	fp, [r3]
  alertValue = 0;                                                               // Reset for each run through
 8080ada:	2300      	movs	r3, #0
  controlRegister = FRAMread8(CONTROLREGISTER);                               // Check the control register
 8080adc:	7030      	strb	r0, [r6, #0]
  if (Cellular.ready()) getSignalStrength();                                    // Test signal strength if the cellular modem is on and ready
 8080ade:	48a6      	ldr	r0, [pc, #664]	; (8080d78 <_Z16takeMeasurementsv+0x2b8>)
  alertValue = 0;                                                               // Reset for each run through
 8080ae0:	7023      	strb	r3, [r4, #0]
  if (Cellular.ready()) getSignalStrength();                                    // Test signal strength if the cellular modem is on and ready
 8080ae2:	f7ff fc03 	bl	80802ec <_ZN5spark13CellularClass5readyEv>
 8080ae6:	46a2      	mov	sl, r4
 8080ae8:	b108      	cbz	r0, 8080aee <_Z16takeMeasurementsv+0x2e>
 8080aea:	f7ff fcb3 	bl	8080454 <_Z17getSignalStrengthv>
  getTemperature();                                                             // Get Temperature at startup as well
 8080aee:	f7ff fceb 	bl	80804c8 <_Z14getTemperaturev>
  stateOfCharge = int(batteryMonitor.getSoC());                                 // Percentage of full charge
 8080af2:	48a2      	ldr	r0, [pc, #648]	; (8080d7c <_Z16takeMeasurementsv+0x2bc>)
 8080af4:	f001 ff26 	bl	8082944 <_ZN9FuelGauge6getSoCEv>
 8080af8:	f004 ffda 	bl	8085ab0 <__aeabi_f2iz>
 8080afc:	4ba0      	ldr	r3, [pc, #640]	; (8080d80 <_Z16takeMeasurementsv+0x2c0>)
/* Disabling USE_BIT_BAND since bitbanding is much slower! as per comment
 * by @pkourany on PR: https://github.com/spark/firmware/pull/556 */
#define USE_BIT_BAND 0

__attribute__((always_inline)) inline const Hal_Pin_Info* fastPinGetPinmap() {
    static const Hal_Pin_Info* pinMap = HAL_Pin_Map();
 8080afe:	4da1      	ldr	r5, [pc, #644]	; (8080d84 <_Z16takeMeasurementsv+0x2c4>)
 8080b00:	6018      	str	r0, [r3, #0]
 8080b02:	782b      	ldrb	r3, [r5, #0]
 8080b04:	4ca0      	ldr	r4, [pc, #640]	; (8080d88 <_Z16takeMeasurementsv+0x2c8>)
 8080b06:	f013 0f01 	tst.w	r3, #1
 8080b0a:	f3bf 8f5b 	dmb	ish
 8080b0e:	d109      	bne.n	8080b24 <_Z16takeMeasurementsv+0x64>
 8080b10:	4628      	mov	r0, r5
 8080b12:	f7ff fadb 	bl	80800cc <__cxa_guard_acquire>
 8080b16:	b128      	cbz	r0, 8080b24 <_Z16takeMeasurementsv+0x64>
 8080b18:	f000 ff82 	bl	8081a20 <HAL_Pin_Map>
 8080b1c:	6020      	str	r0, [r4, #0]
 8080b1e:	4628      	mov	r0, r5
 8080b20:	f7ff fad9 	bl	80800d6 <__cxa_guard_release>
    fastPinGetPinmap()[_pin].gpio_peripheral->BSRRH = fastPinGetPinmap()[_pin].gpio_pin;
}

inline int32_t pinReadFast(pin_t _pin)
{
	return ((fastPinGetPinmap()[_pin].gpio_peripheral->IDR & fastPinGetPinmap()[_pin].gpio_pin) == 0 ? LOW : HIGH);
 8080b24:	6823      	ldr	r3, [r4, #0]
 8080b26:	f8d3 3150 	ldr.w	r3, [r3, #336]	; 0x150
 8080b2a:	691f      	ldr	r7, [r3, #16]
    static const Hal_Pin_Info* pinMap = HAL_Pin_Map();
 8080b2c:	782b      	ldrb	r3, [r5, #0]
 8080b2e:	f3bf 8f5b 	dmb	ish
 8080b32:	07d9      	lsls	r1, r3, #31
 8080b34:	d409      	bmi.n	8080b4a <_Z16takeMeasurementsv+0x8a>
 8080b36:	4893      	ldr	r0, [pc, #588]	; (8080d84 <_Z16takeMeasurementsv+0x2c4>)
 8080b38:	f7ff fac8 	bl	80800cc <__cxa_guard_acquire>
 8080b3c:	b128      	cbz	r0, 8080b4a <_Z16takeMeasurementsv+0x8a>
 8080b3e:	f000 ff6f 	bl	8081a20 <HAL_Pin_Map>
 8080b42:	6020      	str	r0, [r4, #0]
 8080b44:	488f      	ldr	r0, [pc, #572]	; (8080d84 <_Z16takeMeasurementsv+0x2c4>)
 8080b46:	f7ff fac6 	bl	80800d6 <__cxa_guard_release>
	return ((fastPinGetPinmap()[_pin].gpio_peripheral->IDR & fastPinGetPinmap()[_pin].gpio_pin) == 0 ? LOW : HIGH);
 8080b4a:	6823      	ldr	r3, [r4, #0]
 8080b4c:	f8b3 3154 	ldrh.w	r3, [r3, #340]	; 0x154
  if (!pinReadFast(anyOnDetectPin)) {
 8080b50:	423b      	tst	r3, r7
 8080b52:	f040 80b4 	bne.w	8080cbe <_Z16takeMeasurementsv+0x1fe>
    static const Hal_Pin_Info* pinMap = HAL_Pin_Map();
 8080b56:	782b      	ldrb	r3, [r5, #0]
 8080b58:	f3bf 8f5b 	dmb	ish
 8080b5c:	07da      	lsls	r2, r3, #31
 8080b5e:	d409      	bmi.n	8080b74 <_Z16takeMeasurementsv+0xb4>
 8080b60:	4888      	ldr	r0, [pc, #544]	; (8080d84 <_Z16takeMeasurementsv+0x2c4>)
 8080b62:	f7ff fab3 	bl	80800cc <__cxa_guard_acquire>
 8080b66:	b128      	cbz	r0, 8080b74 <_Z16takeMeasurementsv+0xb4>
 8080b68:	f000 ff5a 	bl	8081a20 <HAL_Pin_Map>
 8080b6c:	6020      	str	r0, [r4, #0]
 8080b6e:	4885      	ldr	r0, [pc, #532]	; (8080d84 <_Z16takeMeasurementsv+0x2c4>)
 8080b70:	f7ff fab1 	bl	80800d6 <__cxa_guard_release>
	return ((fastPinGetPinmap()[_pin].gpio_peripheral->IDR & fastPinGetPinmap()[_pin].gpio_pin) == 0 ? LOW : HIGH);
 8080b74:	6823      	ldr	r3, [r4, #0]
 8080b76:	f8d3 32bc 	ldr.w	r3, [r3, #700]	; 0x2bc
 8080b7a:	691f      	ldr	r7, [r3, #16]
    static const Hal_Pin_Info* pinMap = HAL_Pin_Map();
 8080b7c:	782b      	ldrb	r3, [r5, #0]
 8080b7e:	f3bf 8f5b 	dmb	ish
 8080b82:	07db      	lsls	r3, r3, #31
 8080b84:	d409      	bmi.n	8080b9a <_Z16takeMeasurementsv+0xda>
 8080b86:	487f      	ldr	r0, [pc, #508]	; (8080d84 <_Z16takeMeasurementsv+0x2c4>)
 8080b88:	f7ff faa0 	bl	80800cc <__cxa_guard_acquire>
 8080b8c:	b128      	cbz	r0, 8080b9a <_Z16takeMeasurementsv+0xda>
 8080b8e:	f000 ff47 	bl	8081a20 <HAL_Pin_Map>
 8080b92:	6020      	str	r0, [r4, #0]
 8080b94:	487b      	ldr	r0, [pc, #492]	; (8080d84 <_Z16takeMeasurementsv+0x2c4>)
 8080b96:	f7ff fa9e 	bl	80800d6 <__cxa_guard_release>
	return ((fastPinGetPinmap()[_pin].gpio_peripheral->IDR & fastPinGetPinmap()[_pin].gpio_pin) == 0 ? LOW : HIGH);
 8080b9a:	6823      	ldr	r3, [r4, #0]
 8080b9c:	f8b3 32c0 	ldrh.w	r3, [r3, #704]	; 0x2c0
    if (!pinReadFast(boosterNoFlow1Pin)) alertValue = alertValue | 0b00000001;  // Set the value for alertValue
 8080ba0:	423b      	tst	r3, r7
 8080ba2:	bf02      	ittt	eq
 8080ba4:	f89a 3000 	ldrbeq.w	r3, [sl]
 8080ba8:	f043 0301 	orreq.w	r3, r3, #1
 8080bac:	f88a 3000 	strbeq.w	r3, [sl]
    static const Hal_Pin_Info* pinMap = HAL_Pin_Map();
 8080bb0:	782b      	ldrb	r3, [r5, #0]
 8080bb2:	f3bf 8f5b 	dmb	ish
 8080bb6:	07d8      	lsls	r0, r3, #31
 8080bb8:	d409      	bmi.n	8080bce <_Z16takeMeasurementsv+0x10e>
 8080bba:	4872      	ldr	r0, [pc, #456]	; (8080d84 <_Z16takeMeasurementsv+0x2c4>)
 8080bbc:	f7ff fa86 	bl	80800cc <__cxa_guard_acquire>
 8080bc0:	b128      	cbz	r0, 8080bce <_Z16takeMeasurementsv+0x10e>
 8080bc2:	f000 ff2d 	bl	8081a20 <HAL_Pin_Map>
 8080bc6:	6020      	str	r0, [r4, #0]
 8080bc8:	486e      	ldr	r0, [pc, #440]	; (8080d84 <_Z16takeMeasurementsv+0x2c4>)
 8080bca:	f7ff fa84 	bl	80800d6 <__cxa_guard_release>
	return ((fastPinGetPinmap()[_pin].gpio_peripheral->IDR & fastPinGetPinmap()[_pin].gpio_pin) == 0 ? LOW : HIGH);
 8080bce:	6823      	ldr	r3, [r4, #0]
 8080bd0:	f8d3 32d8 	ldr.w	r3, [r3, #728]	; 0x2d8
 8080bd4:	691f      	ldr	r7, [r3, #16]
    static const Hal_Pin_Info* pinMap = HAL_Pin_Map();
 8080bd6:	782b      	ldrb	r3, [r5, #0]
 8080bd8:	f3bf 8f5b 	dmb	ish
 8080bdc:	07d9      	lsls	r1, r3, #31
 8080bde:	d409      	bmi.n	8080bf4 <_Z16takeMeasurementsv+0x134>
 8080be0:	4868      	ldr	r0, [pc, #416]	; (8080d84 <_Z16takeMeasurementsv+0x2c4>)
 8080be2:	f7ff fa73 	bl	80800cc <__cxa_guard_acquire>
 8080be6:	b128      	cbz	r0, 8080bf4 <_Z16takeMeasurementsv+0x134>
 8080be8:	f000 ff1a 	bl	8081a20 <HAL_Pin_Map>
 8080bec:	6020      	str	r0, [r4, #0]
 8080bee:	4865      	ldr	r0, [pc, #404]	; (8080d84 <_Z16takeMeasurementsv+0x2c4>)
 8080bf0:	f7ff fa71 	bl	80800d6 <__cxa_guard_release>
	return ((fastPinGetPinmap()[_pin].gpio_peripheral->IDR & fastPinGetPinmap()[_pin].gpio_pin) == 0 ? LOW : HIGH);
 8080bf4:	6823      	ldr	r3, [r4, #0]
 8080bf6:	f8b3 32dc 	ldrh.w	r3, [r3, #732]	; 0x2dc
    if (!pinReadFast(boosterNoFlow2Pin)) alertValue = alertValue | 0b00000010;  // Set the value for alertValue
 8080bfa:	423b      	tst	r3, r7
 8080bfc:	bf02      	ittt	eq
 8080bfe:	f89a 3000 	ldrbeq.w	r3, [sl]
 8080c02:	f043 0302 	orreq.w	r3, r3, #2
 8080c06:	f88a 3000 	strbeq.w	r3, [sl]
    static const Hal_Pin_Info* pinMap = HAL_Pin_Map();
 8080c0a:	782b      	ldrb	r3, [r5, #0]
 8080c0c:	f3bf 8f5b 	dmb	ish
 8080c10:	07da      	lsls	r2, r3, #31
 8080c12:	d409      	bmi.n	8080c28 <_Z16takeMeasurementsv+0x168>
 8080c14:	485b      	ldr	r0, [pc, #364]	; (8080d84 <_Z16takeMeasurementsv+0x2c4>)
 8080c16:	f7ff fa59 	bl	80800cc <__cxa_guard_acquire>
 8080c1a:	b128      	cbz	r0, 8080c28 <_Z16takeMeasurementsv+0x168>
 8080c1c:	f000 ff00 	bl	8081a20 <HAL_Pin_Map>
 8080c20:	6020      	str	r0, [r4, #0]
 8080c22:	4858      	ldr	r0, [pc, #352]	; (8080d84 <_Z16takeMeasurementsv+0x2c4>)
 8080c24:	f7ff fa57 	bl	80800d6 <__cxa_guard_release>
	return ((fastPinGetPinmap()[_pin].gpio_peripheral->IDR & fastPinGetPinmap()[_pin].gpio_pin) == 0 ? LOW : HIGH);
 8080c28:	6823      	ldr	r3, [r4, #0]
 8080c2a:	f8d3 32f4 	ldr.w	r3, [r3, #756]	; 0x2f4
 8080c2e:	691f      	ldr	r7, [r3, #16]
    static const Hal_Pin_Info* pinMap = HAL_Pin_Map();
 8080c30:	782b      	ldrb	r3, [r5, #0]
 8080c32:	f3bf 8f5b 	dmb	ish
 8080c36:	07db      	lsls	r3, r3, #31
 8080c38:	d409      	bmi.n	8080c4e <_Z16takeMeasurementsv+0x18e>
 8080c3a:	4852      	ldr	r0, [pc, #328]	; (8080d84 <_Z16takeMeasurementsv+0x2c4>)
 8080c3c:	f7ff fa46 	bl	80800cc <__cxa_guard_acquire>
 8080c40:	b128      	cbz	r0, 8080c4e <_Z16takeMeasurementsv+0x18e>
 8080c42:	f000 feed 	bl	8081a20 <HAL_Pin_Map>
 8080c46:	6020      	str	r0, [r4, #0]
 8080c48:	484e      	ldr	r0, [pc, #312]	; (8080d84 <_Z16takeMeasurementsv+0x2c4>)
 8080c4a:	f7ff fa44 	bl	80800d6 <__cxa_guard_release>
	return ((fastPinGetPinmap()[_pin].gpio_peripheral->IDR & fastPinGetPinmap()[_pin].gpio_pin) == 0 ? LOW : HIGH);
 8080c4e:	6823      	ldr	r3, [r4, #0]
 8080c50:	f8b3 32f8 	ldrh.w	r3, [r3, #760]	; 0x2f8
    if (!pinReadFast(storageTankLowPin)) alertValue = alertValue | 0b00000100;  // Set the value for alertValue
 8080c54:	423b      	tst	r3, r7
 8080c56:	bf02      	ittt	eq
 8080c58:	f89a 3000 	ldrbeq.w	r3, [sl]
 8080c5c:	f043 0304 	orreq.w	r3, r3, #4
 8080c60:	f88a 3000 	strbeq.w	r3, [sl]
    static const Hal_Pin_Info* pinMap = HAL_Pin_Map();
 8080c64:	782b      	ldrb	r3, [r5, #0]
 8080c66:	f3bf 8f5b 	dmb	ish
 8080c6a:	07d8      	lsls	r0, r3, #31
 8080c6c:	d409      	bmi.n	8080c82 <_Z16takeMeasurementsv+0x1c2>
 8080c6e:	4845      	ldr	r0, [pc, #276]	; (8080d84 <_Z16takeMeasurementsv+0x2c4>)
 8080c70:	f7ff fa2c 	bl	80800cc <__cxa_guard_acquire>
 8080c74:	b128      	cbz	r0, 8080c82 <_Z16takeMeasurementsv+0x1c2>
 8080c76:	f000 fed3 	bl	8081a20 <HAL_Pin_Map>
 8080c7a:	6020      	str	r0, [r4, #0]
 8080c7c:	4841      	ldr	r0, [pc, #260]	; (8080d84 <_Z16takeMeasurementsv+0x2c4>)
 8080c7e:	f7ff fa2a 	bl	80800d6 <__cxa_guard_release>
	return ((fastPinGetPinmap()[_pin].gpio_peripheral->IDR & fastPinGetPinmap()[_pin].gpio_pin) == 0 ? LOW : HIGH);
 8080c82:	6823      	ldr	r3, [r4, #0]
 8080c84:	f8d3 3310 	ldr.w	r3, [r3, #784]	; 0x310
 8080c88:	691f      	ldr	r7, [r3, #16]
    static const Hal_Pin_Info* pinMap = HAL_Pin_Map();
 8080c8a:	782b      	ldrb	r3, [r5, #0]
 8080c8c:	f3bf 8f5b 	dmb	ish
 8080c90:	07d9      	lsls	r1, r3, #31
 8080c92:	d409      	bmi.n	8080ca8 <_Z16takeMeasurementsv+0x1e8>
 8080c94:	483b      	ldr	r0, [pc, #236]	; (8080d84 <_Z16takeMeasurementsv+0x2c4>)
 8080c96:	f7ff fa19 	bl	80800cc <__cxa_guard_acquire>
 8080c9a:	b128      	cbz	r0, 8080ca8 <_Z16takeMeasurementsv+0x1e8>
 8080c9c:	f000 fec0 	bl	8081a20 <HAL_Pin_Map>
 8080ca0:	6020      	str	r0, [r4, #0]
 8080ca2:	4838      	ldr	r0, [pc, #224]	; (8080d84 <_Z16takeMeasurementsv+0x2c4>)
 8080ca4:	f7ff fa17 	bl	80800d6 <__cxa_guard_release>
	return ((fastPinGetPinmap()[_pin].gpio_peripheral->IDR & fastPinGetPinmap()[_pin].gpio_pin) == 0 ? LOW : HIGH);
 8080ca8:	6823      	ldr	r3, [r4, #0]
 8080caa:	f8b3 3314 	ldrh.w	r3, [r3, #788]	; 0x314
    if (!pinReadFast(pump1CalledPin)) alertValue = alertValue | 0b00001000;     // Set the value for alertValue
 8080cae:	423b      	tst	r3, r7
 8080cb0:	bf02      	ittt	eq
 8080cb2:	f89a 3000 	ldrbeq.w	r3, [sl]
 8080cb6:	f043 0308 	orreq.w	r3, r3, #8
 8080cba:	f88a 3000 	strbeq.w	r3, [sl]
    static const Hal_Pin_Info* pinMap = HAL_Pin_Map();
 8080cbe:	782b      	ldrb	r3, [r5, #0]
 8080cc0:	f3bf 8f5b 	dmb	ish
 8080cc4:	07da      	lsls	r2, r3, #31
 8080cc6:	d409      	bmi.n	8080cdc <_Z16takeMeasurementsv+0x21c>
 8080cc8:	482e      	ldr	r0, [pc, #184]	; (8080d84 <_Z16takeMeasurementsv+0x2c4>)
 8080cca:	f7ff f9ff 	bl	80800cc <__cxa_guard_acquire>
 8080cce:	b128      	cbz	r0, 8080cdc <_Z16takeMeasurementsv+0x21c>
 8080cd0:	f000 fea6 	bl	8081a20 <HAL_Pin_Map>
 8080cd4:	6020      	str	r0, [r4, #0]
 8080cd6:	482b      	ldr	r0, [pc, #172]	; (8080d84 <_Z16takeMeasurementsv+0x2c4>)
 8080cd8:	f7ff f9fd 	bl	80800d6 <__cxa_guard_release>
	return ((fastPinGetPinmap()[_pin].gpio_peripheral->IDR & fastPinGetPinmap()[_pin].gpio_pin) == 0 ? LOW : HIGH);
 8080cdc:	6823      	ldr	r3, [r4, #0]
 8080cde:	f8d3 3188 	ldr.w	r3, [r3, #392]	; 0x188
 8080ce2:	691f      	ldr	r7, [r3, #16]
    static const Hal_Pin_Info* pinMap = HAL_Pin_Map();
 8080ce4:	782b      	ldrb	r3, [r5, #0]
 8080ce6:	f3bf 8f5b 	dmb	ish
 8080cea:	07db      	lsls	r3, r3, #31
 8080cec:	d409      	bmi.n	8080d02 <_Z16takeMeasurementsv+0x242>
 8080cee:	4825      	ldr	r0, [pc, #148]	; (8080d84 <_Z16takeMeasurementsv+0x2c4>)
 8080cf0:	f7ff f9ec 	bl	80800cc <__cxa_guard_acquire>
 8080cf4:	b128      	cbz	r0, 8080d02 <_Z16takeMeasurementsv+0x242>
 8080cf6:	f000 fe93 	bl	8081a20 <HAL_Pin_Map>
 8080cfa:	6020      	str	r0, [r4, #0]
 8080cfc:	4821      	ldr	r0, [pc, #132]	; (8080d84 <_Z16takeMeasurementsv+0x2c4>)
 8080cfe:	f7ff f9ea 	bl	80800d6 <__cxa_guard_release>
	return ((fastPinGetPinmap()[_pin].gpio_peripheral->IDR & fastPinGetPinmap()[_pin].gpio_pin) == 0 ? LOW : HIGH);
 8080d02:	6823      	ldr	r3, [r4, #0]
 8080d04:	7831      	ldrb	r1, [r6, #0]
 8080d06:	f8b3 318c 	ldrh.w	r3, [r3, #396]	; 0x18c
  if (!pinReadFast(pump2CalledPin)) {
 8080d0a:	423b      	tst	r3, r7
 8080d0c:	f040 80ae 	bne.w	8080e6c <_Z16takeMeasurementsv+0x3ac>
    alertValue = alertValue | 0b00010000;                                      // Set the value for alertValue
 8080d10:	f89a 3000 	ldrb.w	r3, [sl]
    if (controlRegister ^ 0b00000010) {                                        // This is a new pumping session
 8080d14:	2902      	cmp	r1, #2
    alertValue = alertValue | 0b00010000;                                      // Set the value for alertValue
 8080d16:	f043 0310 	orr.w	r3, r3, #16
 8080d1a:	f88a 3000 	strb.w	r3, [sl]
    if (controlRegister ^ 0b00000010) {                                        // This is a new pumping session
 8080d1e:	d010      	beq.n	8080d42 <_Z16takeMeasurementsv+0x282>
      pumpingStart = Time.now();
 8080d20:	f003 fc3d 	bl	808459e <_ZN9TimeClass3nowEv>
 8080d24:	4602      	mov	r2, r0
 8080d26:	4601      	mov	r1, r0
 8080d28:	17c3      	asrs	r3, r0, #31
 8080d2a:	4818      	ldr	r0, [pc, #96]	; (8080d8c <_Z16takeMeasurementsv+0x2cc>)
 8080d2c:	e9c0 2300 	strd	r2, r3, [r0]
      FRAMwrite32(CURRENTCOUNTSTIME,pumpingStart);                              // Write to FRAM in case of a reset
 8080d30:	200e      	movs	r0, #14
 8080d32:	f7ff fb6d 	bl	8080410 <_Z11FRAMwrite32im>
      FRAMwrite8(CONTROLREGISTER,controlRegister | 0b00000010);                 // Turn on the pumping bit
 8080d36:	7831      	ldrb	r1, [r6, #0]
 8080d38:	2007      	movs	r0, #7
 8080d3a:	f041 0102 	orr.w	r1, r1, #2
 8080d3e:	f7ff faf7 	bl	8080330 <_Z10FRAMwrite8jh>
  if (verboseMode) {
 8080d42:	4b13      	ldr	r3, [pc, #76]	; (8080d90 <_Z16takeMeasurementsv+0x2d0>)
 8080d44:	781b      	ldrb	r3, [r3, #0]
 8080d46:	2b00      	cmp	r3, #0
 8080d48:	d07e      	beq.n	8080e48 <_Z16takeMeasurementsv+0x388>
    static const Hal_Pin_Info* pinMap = HAL_Pin_Map();
 8080d4a:	782b      	ldrb	r3, [r5, #0]
 8080d4c:	f3bf 8f5b 	dmb	ish
 8080d50:	07d8      	lsls	r0, r3, #31
 8080d52:	d41f      	bmi.n	8080d94 <_Z16takeMeasurementsv+0x2d4>
 8080d54:	480b      	ldr	r0, [pc, #44]	; (8080d84 <_Z16takeMeasurementsv+0x2c4>)
 8080d56:	f7ff f9b9 	bl	80800cc <__cxa_guard_acquire>
 8080d5a:	b1d8      	cbz	r0, 8080d94 <_Z16takeMeasurementsv+0x2d4>
 8080d5c:	f000 fe60 	bl	8081a20 <HAL_Pin_Map>
 8080d60:	6020      	str	r0, [r4, #0]
 8080d62:	4808      	ldr	r0, [pc, #32]	; (8080d84 <_Z16takeMeasurementsv+0x2c4>)
 8080d64:	f7ff f9b7 	bl	80800d6 <__cxa_guard_release>
 8080d68:	e014      	b.n	8080d94 <_Z16takeMeasurementsv+0x2d4>
 8080d6a:	bf00      	nop
 8080d6c:	20000120 	.word	0x20000120
 8080d70:	20000124 	.word	0x20000124
 8080d74:	20000130 	.word	0x20000130
 8080d78:	2000019c 	.word	0x2000019c
 8080d7c:	20000128 	.word	0x20000128
 8080d80:	20000184 	.word	0x20000184
 8080d84:	20000100 	.word	0x20000100
 8080d88:	20000104 	.word	0x20000104
 8080d8c:	20000170 	.word	0x20000170
 8080d90:	20000194 	.word	0x20000194
	return ((fastPinGetPinmap()[_pin].gpio_peripheral->IDR & fastPinGetPinmap()[_pin].gpio_pin) == 0 ? LOW : HIGH);
 8080d94:	6823      	ldr	r3, [r4, #0]
 8080d96:	f8d3 3310 	ldr.w	r3, [r3, #784]	; 0x310
 8080d9a:	691e      	ldr	r6, [r3, #16]
    static const Hal_Pin_Info* pinMap = HAL_Pin_Map();
 8080d9c:	782b      	ldrb	r3, [r5, #0]
 8080d9e:	f3bf 8f5b 	dmb	ish
 8080da2:	07d9      	lsls	r1, r3, #31
 8080da4:	d409      	bmi.n	8080dba <_Z16takeMeasurementsv+0x2fa>
 8080da6:	4847      	ldr	r0, [pc, #284]	; (8080ec4 <_Z16takeMeasurementsv+0x404>)
 8080da8:	f7ff f990 	bl	80800cc <__cxa_guard_acquire>
 8080dac:	b128      	cbz	r0, 8080dba <_Z16takeMeasurementsv+0x2fa>
 8080dae:	f000 fe37 	bl	8081a20 <HAL_Pin_Map>
 8080db2:	6020      	str	r0, [r4, #0]
 8080db4:	4843      	ldr	r0, [pc, #268]	; (8080ec4 <_Z16takeMeasurementsv+0x404>)
 8080db6:	f7ff f98e 	bl	80800d6 <__cxa_guard_release>
	return ((fastPinGetPinmap()[_pin].gpio_peripheral->IDR & fastPinGetPinmap()[_pin].gpio_pin) == 0 ? LOW : HIGH);
 8080dba:	6823      	ldr	r3, [r4, #0]
 8080dbc:	f8b3 3314 	ldrh.w	r3, [r3, #788]	; 0x314
    snprintf(messageString, sizeof(messageString), "Pin values: pump 1: %s, pump 2: %s",  (!pinReadFast(pump1CalledPin))? "on":"off", !pinReadFast(pump2CalledPin)? "on":"off");
 8080dc0:	4233      	tst	r3, r6
 8080dc2:	4b41      	ldr	r3, [pc, #260]	; (8080ec8 <_Z16takeMeasurementsv+0x408>)
 8080dc4:	4e41      	ldr	r6, [pc, #260]	; (8080ecc <_Z16takeMeasurementsv+0x40c>)
 8080dc6:	bf18      	it	ne
 8080dc8:	461e      	movne	r6, r3
    static const Hal_Pin_Info* pinMap = HAL_Pin_Map();
 8080dca:	782b      	ldrb	r3, [r5, #0]
 8080dcc:	f3bf 8f5b 	dmb	ish
 8080dd0:	07da      	lsls	r2, r3, #31
 8080dd2:	d409      	bmi.n	8080de8 <_Z16takeMeasurementsv+0x328>
 8080dd4:	483b      	ldr	r0, [pc, #236]	; (8080ec4 <_Z16takeMeasurementsv+0x404>)
 8080dd6:	f7ff f979 	bl	80800cc <__cxa_guard_acquire>
 8080dda:	b128      	cbz	r0, 8080de8 <_Z16takeMeasurementsv+0x328>
 8080ddc:	f000 fe20 	bl	8081a20 <HAL_Pin_Map>
 8080de0:	6020      	str	r0, [r4, #0]
 8080de2:	4838      	ldr	r0, [pc, #224]	; (8080ec4 <_Z16takeMeasurementsv+0x404>)
 8080de4:	f7ff f977 	bl	80800d6 <__cxa_guard_release>
	return ((fastPinGetPinmap()[_pin].gpio_peripheral->IDR & fastPinGetPinmap()[_pin].gpio_pin) == 0 ? LOW : HIGH);
 8080de8:	6823      	ldr	r3, [r4, #0]
 8080dea:	f8d3 3188 	ldr.w	r3, [r3, #392]	; 0x188
 8080dee:	691f      	ldr	r7, [r3, #16]
    static const Hal_Pin_Info* pinMap = HAL_Pin_Map();
 8080df0:	782b      	ldrb	r3, [r5, #0]
 8080df2:	f3bf 8f5b 	dmb	ish
 8080df6:	07db      	lsls	r3, r3, #31
 8080df8:	d409      	bmi.n	8080e0e <_Z16takeMeasurementsv+0x34e>
 8080dfa:	4832      	ldr	r0, [pc, #200]	; (8080ec4 <_Z16takeMeasurementsv+0x404>)
 8080dfc:	f7ff f966 	bl	80800cc <__cxa_guard_acquire>
 8080e00:	b128      	cbz	r0, 8080e0e <_Z16takeMeasurementsv+0x34e>
 8080e02:	f000 fe0d 	bl	8081a20 <HAL_Pin_Map>
 8080e06:	6020      	str	r0, [r4, #0]
 8080e08:	482e      	ldr	r0, [pc, #184]	; (8080ec4 <_Z16takeMeasurementsv+0x404>)
 8080e0a:	f7ff f964 	bl	80800d6 <__cxa_guard_release>
	return ((fastPinGetPinmap()[_pin].gpio_peripheral->IDR & fastPinGetPinmap()[_pin].gpio_pin) == 0 ? LOW : HIGH);
 8080e0e:	6823      	ldr	r3, [r4, #0]
 8080e10:	4a2d      	ldr	r2, [pc, #180]	; (8080ec8 <_Z16takeMeasurementsv+0x408>)
 8080e12:	f8b3 318c 	ldrh.w	r3, [r3, #396]	; 0x18c
 8080e16:	f44f 7180 	mov.w	r1, #256	; 0x100
 8080e1a:	423b      	tst	r3, r7
 8080e1c:	4b2b      	ldr	r3, [pc, #172]	; (8080ecc <_Z16takeMeasurementsv+0x40c>)
 8080e1e:	bf18      	it	ne
 8080e20:	4613      	movne	r3, r2
 8080e22:	a806      	add	r0, sp, #24
 8080e24:	4a2a      	ldr	r2, [pc, #168]	; (8080ed0 <_Z16takeMeasurementsv+0x410>)
 8080e26:	9300      	str	r3, [sp, #0]
 8080e28:	4633      	mov	r3, r6
 8080e2a:	f001 f8b1 	bl	8081f90 <snprintf>
    Particle.publish("Test",messageString, PRIVATE);
 8080e2e:	2300      	movs	r3, #0
 8080e30:	f88d 3000 	strb.w	r3, [sp]
 8080e34:	4b27      	ldr	r3, [pc, #156]	; (8080ed4 <_Z16takeMeasurementsv+0x414>)
 8080e36:	a804      	add	r0, sp, #16
 8080e38:	781b      	ldrb	r3, [r3, #0]
 8080e3a:	4927      	ldr	r1, [pc, #156]	; (8080ed8 <_Z16takeMeasurementsv+0x418>)
 8080e3c:	aa06      	add	r2, sp, #24
 8080e3e:	f7ff fa1d 	bl	808027c <_ZN10CloudClass7publishEPKcS1_N8particle5FlagsI15PublishFlagTypehEES5_.isra.0.constprop.0>
 8080e42:	a805      	add	r0, sp, #20
 8080e44:	f7ff fcba 	bl	80807bc <_ZNSt14__shared_countILN9__gnu_cxx12_Lock_policyE0EED1Ev>
  if(getLostPower()) alertValue = alertValue | 0b10000000;                      // Set the value for alertValue
 8080e48:	f7ff fc26 	bl	8080698 <_Z12getLostPowerv>
 8080e4c:	b128      	cbz	r0, 8080e5a <_Z16takeMeasurementsv+0x39a>
 8080e4e:	f89a 3000 	ldrb.w	r3, [sl]
 8080e52:	f063 037f 	orn	r3, r3, #127	; 0x7f
 8080e56:	f88a 3000 	strb.w	r3, [sl]
  if (alertValue != lastAlertValue) return 1;
 8080e5a:	f89a 0000 	ldrb.w	r0, [sl]
}
 8080e5e:	ebb0 000b 	subs.w	r0, r0, fp
 8080e62:	bf18      	it	ne
 8080e64:	2001      	movne	r0, #1
 8080e66:	b047      	add	sp, #284	; 0x11c
 8080e68:	e8bd 8ff0 	ldmia.w	sp!, {r4, r5, r6, r7, r8, r9, sl, fp, pc}
  else if (controlRegister & 0b00000010) {                                      // If the pump is off but the pumping flag is set
 8080e6c:	078e      	lsls	r6, r1, #30
 8080e6e:	f57f af68 	bpl.w	8080d42 <_Z16takeMeasurementsv+0x282>
    FRAMwrite8(CONTROLREGISTER,controlRegister ^ 0b00000010);                   // It is on and I want to turn the pumping bit off with an xor
 8080e72:	f081 0102 	eor.w	r1, r1, #2
 8080e76:	2007      	movs	r0, #7
 8080e78:	f7ff fa5a 	bl	8080330 <_Z10FRAMwrite8jh>
    time_t pumpingStop = Time.now();
 8080e7c:	f003 fb8f 	bl	808459e <_ZN9TimeClass3nowEv>
    dailyPumpingMins += difftime(pumpingStop,pumpingStart)/60;                 // Add to the total for the day
 8080e80:	4b16      	ldr	r3, [pc, #88]	; (8080edc <_Z16takeMeasurementsv+0x41c>)
 8080e82:	17c1      	asrs	r1, r0, #31
 8080e84:	e9d3 2300 	ldrd	r2, r3, [r3]
 8080e88:	f004 fe9c 	bl	8085bc4 <difftime>
 8080e8c:	4e14      	ldr	r6, [pc, #80]	; (8080ee0 <_Z16takeMeasurementsv+0x420>)
 8080e8e:	4680      	mov	r8, r0
 8080e90:	6830      	ldr	r0, [r6, #0]
 8080e92:	4689      	mov	r9, r1
 8080e94:	f004 f824 	bl	8084ee0 <__aeabi_i2d>
 8080e98:	2200      	movs	r2, #0
 8080e9a:	e9cd 0102 	strd	r0, r1, [sp, #8]
 8080e9e:	4b11      	ldr	r3, [pc, #68]	; (8080ee4 <_Z16takeMeasurementsv+0x424>)
 8080ea0:	4640      	mov	r0, r8
 8080ea2:	4649      	mov	r1, r9
 8080ea4:	f004 f9b0 	bl	8085208 <__aeabi_ddiv>
 8080ea8:	4602      	mov	r2, r0
 8080eaa:	460b      	mov	r3, r1
 8080eac:	e9dd 0102 	ldrd	r0, r1, [sp, #8]
 8080eb0:	f003 feca 	bl	8084c48 <__adddf3>
 8080eb4:	f004 fa90 	bl	80853d8 <__aeabi_d2iz>
 8080eb8:	4601      	mov	r1, r0
 8080eba:	6030      	str	r0, [r6, #0]
    FRAMwrite16(DAILYPUMPMINUTES,dailyPumpingMins);                             // Store it in FRAM in case of a reset
 8080ebc:	2014      	movs	r0, #20
 8080ebe:	f7ff fa51 	bl	8080364 <_Z11FRAMwrite16ji>
 8080ec2:	e73e      	b.n	8080d42 <_Z16takeMeasurementsv+0x282>
 8080ec4:	20000100 	.word	0x20000100
 8080ec8:	08086164 	.word	0x08086164
 8080ecc:	0808624a 	.word	0x0808624a
 8080ed0:	08086168 	.word	0x08086168
 8080ed4:	20000118 	.word	0x20000118
 8080ed8:	0808618b 	.word	0x0808618b
 8080edc:	20000170 	.word	0x20000170
 8080ee0:	20000134 	.word	0x20000134
 8080ee4:	404e0000 	.word	0x404e0000

08080ee8 <_Z14setVerboseMode6String>:
{
 8080ee8:	b530      	push	{r4, r5, lr}
 8080eea:	4923      	ldr	r1, [pc, #140]	; (8080f78 <_Z14setVerboseMode6String+0x90>)
 8080eec:	b085      	sub	sp, #20
 8080eee:	4605      	mov	r5, r0
 8080ef0:	f003 f9ea 	bl	80842c8 <_ZNK6String6equalsEPKc>
  if (command == "1")
 8080ef4:	4604      	mov	r4, r0
 8080ef6:	b318      	cbz	r0, 8080f40 <_Z14setVerboseMode6String+0x58>
    verboseMode = true;
 8080ef8:	2401      	movs	r4, #1
 8080efa:	4b20      	ldr	r3, [pc, #128]	; (8080f7c <_Z14setVerboseMode6String+0x94>)
    FRAMread8(CONTROLREGISTER);
 8080efc:	2007      	movs	r0, #7
    verboseMode = true;
 8080efe:	701c      	strb	r4, [r3, #0]
    FRAMread8(CONTROLREGISTER);
 8080f00:	f7ff fa10 	bl	8080324 <_Z9FRAMread8j>
    controlRegister = (0b00001000 | controlRegister);                    // Turn on verboseMode
 8080f04:	4b1e      	ldr	r3, [pc, #120]	; (8080f80 <_Z14setVerboseMode6String+0x98>)
    FRAMwrite8(CONTROLREGISTER,controlRegister);                        // Write it to the register
 8080f06:	2007      	movs	r0, #7
    controlRegister = (0b00001000 | controlRegister);                    // Turn on verboseMode
 8080f08:	7819      	ldrb	r1, [r3, #0]
 8080f0a:	f041 0108 	orr.w	r1, r1, #8
 8080f0e:	7019      	strb	r1, [r3, #0]
    FRAMwrite8(CONTROLREGISTER,controlRegister);                        // Write it to the register
 8080f10:	f7ff fa0e 	bl	8080330 <_Z10FRAMwrite8jh>
 8080f14:	f7ff fc00 	bl	8080718 <_ZN11SystemClass18waitConditionWhileIZ11setTimeZone6StringEUlvE0_ZNS_13waitConditionIS2_EEbT_EUlvE_EEbS4_T0_.isra.0>
    Particle.publish("Mode","Set Verbose Mode",PRIVATE);
 8080f18:	2300      	movs	r3, #0
 8080f1a:	f88d 3000 	strb.w	r3, [sp]
 8080f1e:	4b19      	ldr	r3, [pc, #100]	; (8080f84 <_Z14setVerboseMode6String+0x9c>)
 8080f20:	4a19      	ldr	r2, [pc, #100]	; (8080f88 <_Z14setVerboseMode6String+0xa0>)
 8080f22:	781b      	ldrb	r3, [r3, #0]
    Particle.publish("Mode","Cleared Verbose Mode",PRIVATE);
 8080f24:	4919      	ldr	r1, [pc, #100]	; (8080f8c <_Z14setVerboseMode6String+0xa4>)
 8080f26:	a802      	add	r0, sp, #8
 8080f28:	f7ff f9a8 	bl	808027c <_ZN10CloudClass7publishEPKcS1_N8particle5FlagsI15PublishFlagTypehEES5_.isra.0.constprop.0>
 8080f2c:	a803      	add	r0, sp, #12
 8080f2e:	f7ff fc45 	bl	80807bc <_ZNSt14__shared_countILN9__gnu_cxx12_Lock_policyE0EED1Ev>
 8080f32:	f000 fd55 	bl	80819e0 <HAL_Timer_Get_Milli_Seconds>
    lastPublish = millis();
 8080f36:	4b16      	ldr	r3, [pc, #88]	; (8080f90 <_Z14setVerboseMode6String+0xa8>)
 8080f38:	6018      	str	r0, [r3, #0]
    return 1;
 8080f3a:	2001      	movs	r0, #1
}
 8080f3c:	b005      	add	sp, #20
 8080f3e:	bd30      	pop	{r4, r5, pc}
 8080f40:	4628      	mov	r0, r5
 8080f42:	4914      	ldr	r1, [pc, #80]	; (8080f94 <_Z14setVerboseMode6String+0xac>)
 8080f44:	f003 f9c0 	bl	80842c8 <_ZNK6String6equalsEPKc>
  else if (command == "0")
 8080f48:	2800      	cmp	r0, #0
 8080f4a:	d0f7      	beq.n	8080f3c <_Z14setVerboseMode6String+0x54>
    verboseMode = false;
 8080f4c:	4b0b      	ldr	r3, [pc, #44]	; (8080f7c <_Z14setVerboseMode6String+0x94>)
    FRAMread8(CONTROLREGISTER);
 8080f4e:	2007      	movs	r0, #7
    verboseMode = false;
 8080f50:	701c      	strb	r4, [r3, #0]
    FRAMread8(CONTROLREGISTER);
 8080f52:	f7ff f9e7 	bl	8080324 <_Z9FRAMread8j>
    controlRegister = (0b11110111 & controlRegister);                    // Turn off verboseMode
 8080f56:	4b0a      	ldr	r3, [pc, #40]	; (8080f80 <_Z14setVerboseMode6String+0x98>)
    FRAMwrite8(CONTROLREGISTER,controlRegister);                        // Write it to the register
 8080f58:	2007      	movs	r0, #7
    controlRegister = (0b11110111 & controlRegister);                    // Turn off verboseMode
 8080f5a:	7819      	ldrb	r1, [r3, #0]
 8080f5c:	f001 01f7 	and.w	r1, r1, #247	; 0xf7
 8080f60:	7019      	strb	r1, [r3, #0]
    FRAMwrite8(CONTROLREGISTER,controlRegister);                        // Write it to the register
 8080f62:	f7ff f9e5 	bl	8080330 <_Z10FRAMwrite8jh>
 8080f66:	f7ff fbd7 	bl	8080718 <_ZN11SystemClass18waitConditionWhileIZ11setTimeZone6StringEUlvE0_ZNS_13waitConditionIS2_EEbT_EUlvE_EEbS4_T0_.isra.0>
    Particle.publish("Mode","Cleared Verbose Mode",PRIVATE);
 8080f6a:	4b06      	ldr	r3, [pc, #24]	; (8080f84 <_Z14setVerboseMode6String+0x9c>)
 8080f6c:	f88d 4000 	strb.w	r4, [sp]
 8080f70:	781b      	ldrb	r3, [r3, #0]
 8080f72:	4a09      	ldr	r2, [pc, #36]	; (8080f98 <_Z14setVerboseMode6String+0xb0>)
 8080f74:	e7d6      	b.n	8080f24 <_Z14setVerboseMode6String+0x3c>
 8080f76:	bf00      	nop
 8080f78:	08085fd4 	.word	0x08085fd4
 8080f7c:	20000194 	.word	0x20000194
 8080f80:	20000130 	.word	0x20000130
 8080f84:	20000118 	.word	0x20000118
 8080f88:	08086190 	.word	0x08086190
 8080f8c:	080861b3 	.word	0x080861b3
 8080f90:	20000140 	.word	0x20000140
 8080f94:	080861a1 	.word	0x080861a1
 8080f98:	080861a3 	.word	0x080861a3

08080f9c <_Z15setPumpingState6String>:
{
 8080f9c:	b530      	push	{r4, r5, lr}
 8080f9e:	4925      	ldr	r1, [pc, #148]	; (8081034 <_Z15setPumpingState6String+0x98>)
 8080fa0:	b085      	sub	sp, #20
 8080fa2:	4605      	mov	r5, r0
 8080fa4:	f003 f990 	bl	80842c8 <_ZNK6String6equalsEPKc>
  if (command == "1")
 8080fa8:	4604      	mov	r4, r0
 8080faa:	b320      	cbz	r0, 8080ff6 <_Z15setPumpingState6String+0x5a>
    alertValue = (0b00010000 | alertValue);                    // Turn on pump
 8080fac:	4a22      	ldr	r2, [pc, #136]	; (8081038 <_Z15setPumpingState6String+0x9c>)
    alertValueInt = int(alertValue);
 8080fae:	4c23      	ldr	r4, [pc, #140]	; (808103c <_Z15setPumpingState6String+0xa0>)
    alertValue = (0b00010000 | alertValue);                    // Turn on pump
 8080fb0:	7813      	ldrb	r3, [r2, #0]
 8080fb2:	f043 0310 	orr.w	r3, r3, #16
 8080fb6:	7013      	strb	r3, [r2, #0]
    alertValueInt = int(alertValue);
 8080fb8:	6023      	str	r3, [r4, #0]
 8080fba:	f7ff fbad 	bl	8080718 <_ZN11SystemClass18waitConditionWhileIZ11setTimeZone6StringEUlvE0_ZNS_13waitConditionIS2_EEbT_EUlvE_EEbS4_T0_.isra.0>
    Particle.publish("Mode","Turned on Pump Called",PRIVATE);
 8080fbe:	2300      	movs	r3, #0
 8080fc0:	f88d 3000 	strb.w	r3, [sp]
 8080fc4:	4b1e      	ldr	r3, [pc, #120]	; (8081040 <_Z15setPumpingState6String+0xa4>)
 8080fc6:	4a1f      	ldr	r2, [pc, #124]	; (8081044 <_Z15setPumpingState6String+0xa8>)
 8080fc8:	491f      	ldr	r1, [pc, #124]	; (8081048 <_Z15setPumpingState6String+0xac>)
 8080fca:	781b      	ldrb	r3, [r3, #0]
 8080fcc:	a802      	add	r0, sp, #8
 8080fce:	f7ff f955 	bl	808027c <_ZN10CloudClass7publishEPKcS1_N8particle5FlagsI15PublishFlagTypehEES5_.isra.0.constprop.0>
 8080fd2:	a803      	add	r0, sp, #12
 8080fd4:	f7ff fbf2 	bl	80807bc <_ZNSt14__shared_countILN9__gnu_cxx12_Lock_policyE0EED1Ev>
    Log.info("Pump called alerts = %i",alertValueInt);
 8080fd8:	6822      	ldr	r2, [r4, #0]
 8080fda:	491c      	ldr	r1, [pc, #112]	; (808104c <_Z15setPumpingState6String+0xb0>)
    Log.info("Pump cancelled alerts = %i",alertValueInt);
 8080fdc:	481c      	ldr	r0, [pc, #112]	; (8081050 <_Z15setPumpingState6String+0xb4>)
 8080fde:	f7ff f98a 	bl	80802f6 <_ZNK5spark6Logger4infoEPKcz>
 8080fe2:	f000 fcfd 	bl	80819e0 <HAL_Timer_Get_Milli_Seconds>
    lastPublish = millis();
 8080fe6:	4b1b      	ldr	r3, [pc, #108]	; (8081054 <_Z15setPumpingState6String+0xb8>)
    state = REPORTING_STATE;
 8080fe8:	2204      	movs	r2, #4
    lastPublish = millis();
 8080fea:	6018      	str	r0, [r3, #0]
    return 1;
 8080fec:	2001      	movs	r0, #1
    state = REPORTING_STATE;
 8080fee:	4b1a      	ldr	r3, [pc, #104]	; (8081058 <_Z15setPumpingState6String+0xbc>)
 8080ff0:	701a      	strb	r2, [r3, #0]
}
 8080ff2:	b005      	add	sp, #20
 8080ff4:	bd30      	pop	{r4, r5, pc}
 8080ff6:	4628      	mov	r0, r5
 8080ff8:	4918      	ldr	r1, [pc, #96]	; (808105c <_Z15setPumpingState6String+0xc0>)
 8080ffa:	f003 f965 	bl	80842c8 <_ZNK6String6equalsEPKc>
  else if (command == "0")
 8080ffe:	2800      	cmp	r0, #0
 8081000:	d0f7      	beq.n	8080ff2 <_Z15setPumpingState6String+0x56>
    alertValue = (0b11101111 & alertValue);                    // Turn off pump
 8081002:	4a0d      	ldr	r2, [pc, #52]	; (8081038 <_Z15setPumpingState6String+0x9c>)
    alertValueInt = (int)alertValue;
 8081004:	4d0d      	ldr	r5, [pc, #52]	; (808103c <_Z15setPumpingState6String+0xa0>)
    alertValue = (0b11101111 & alertValue);                    // Turn off pump
 8081006:	7813      	ldrb	r3, [r2, #0]
 8081008:	f003 03ef 	and.w	r3, r3, #239	; 0xef
 808100c:	7013      	strb	r3, [r2, #0]
    alertValueInt = (int)alertValue;
 808100e:	602b      	str	r3, [r5, #0]
 8081010:	f7ff fb82 	bl	8080718 <_ZN11SystemClass18waitConditionWhileIZ11setTimeZone6StringEUlvE0_ZNS_13waitConditionIS2_EEbT_EUlvE_EEbS4_T0_.isra.0>
    Particle.publish("Mode","Cleared Pump Called",PRIVATE);
 8081014:	4b0a      	ldr	r3, [pc, #40]	; (8081040 <_Z15setPumpingState6String+0xa4>)
 8081016:	f88d 4000 	strb.w	r4, [sp]
 808101a:	4a11      	ldr	r2, [pc, #68]	; (8081060 <_Z15setPumpingState6String+0xc4>)
 808101c:	490a      	ldr	r1, [pc, #40]	; (8081048 <_Z15setPumpingState6String+0xac>)
 808101e:	781b      	ldrb	r3, [r3, #0]
 8081020:	a802      	add	r0, sp, #8
 8081022:	f7ff f92b 	bl	808027c <_ZN10CloudClass7publishEPKcS1_N8particle5FlagsI15PublishFlagTypehEES5_.isra.0.constprop.0>
 8081026:	a803      	add	r0, sp, #12
 8081028:	f7ff fbc8 	bl	80807bc <_ZNSt14__shared_countILN9__gnu_cxx12_Lock_policyE0EED1Ev>
    Log.info("Pump cancelled alerts = %i",alertValueInt);
 808102c:	682a      	ldr	r2, [r5, #0]
 808102e:	490d      	ldr	r1, [pc, #52]	; (8081064 <_Z15setPumpingState6String+0xc8>)
 8081030:	e7d4      	b.n	8080fdc <_Z15setPumpingState6String+0x40>
 8081032:	bf00      	nop
 8081034:	08085fd4 	.word	0x08085fd4
 8081038:	20000120 	.word	0x20000120
 808103c:	20000124 	.word	0x20000124
 8081040:	20000118 	.word	0x20000118
 8081044:	080861b8 	.word	0x080861b8
 8081048:	080861b3 	.word	0x080861b3
 808104c:	080861ce 	.word	0x080861ce
 8081050:	200001d8 	.word	0x200001d8
 8081054:	20000140 	.word	0x20000140
 8081058:	20000180 	.word	0x20000180
 808105c:	080861a1 	.word	0x080861a1
 8081060:	080861e6 	.word	0x080861e6
 8081064:	080861fa 	.word	0x080861fa

08081068 <_Z11setTimeZone6String>:
{
 8081068:	b5f0      	push	{r4, r5, r6, r7, lr}
 808106a:	b0cb      	sub	sp, #300	; 0x12c
  int8_t tempTimeZoneOffset = strtol(command,&pEND,10);                       // Looks for the first integer and interprets it
 808106c:	220a      	movs	r2, #10
 808106e:	6800      	ldr	r0, [r0, #0]
 8081070:	a903      	add	r1, sp, #12
 8081072:	f004 ff11 	bl	8085e98 <strtol>
  if ((tempTimeZoneOffset < -12) | (tempTimeZoneOffset > 12)) return 0;   // Make sure it falls in a valid range or send a "fail" result
 8081076:	b2c5      	uxtb	r5, r0
 8081078:	f105 030c 	add.w	r3, r5, #12
 808107c:	b2db      	uxtb	r3, r3
 808107e:	2b18      	cmp	r3, #24
 8081080:	d844      	bhi.n	808110c <_Z11setTimeZone6String+0xa4>
  int8_t tempTimeZoneOffset = strtol(command,&pEND,10);                       // Looks for the first integer and interprets it
 8081082:	b244      	sxtb	r4, r0
  Time.zone((float)tempTimeZoneOffset);
 8081084:	4620      	mov	r0, r4
 8081086:	f004 faf9 	bl	808567c <__aeabi_i2f>
 808108a:	f003 fa15 	bl	80844b8 <_ZN9TimeClass4zoneEf>
  FRAMwrite8(TIMEZONE,tempTimeZoneOffset);                             // Store the new value in FRAMwrite8
 808108e:	4629      	mov	r1, r5
 8081090:	2004      	movs	r0, #4
 8081092:	f7ff f94d 	bl	8080330 <_Z10FRAMwrite8jh>
  t = Time.now();
 8081096:	f003 fa82 	bl	808459e <_ZN9TimeClass3nowEv>
 808109a:	2600      	movs	r6, #0
 808109c:	4f1c      	ldr	r7, [pc, #112]	; (8081110 <_Z11setTimeZone6String+0xa8>)
 808109e:	17c1      	asrs	r1, r0, #31
  snprintf(data, sizeof(data), "Time zone offset %i",tempTimeZoneOffset);
 80810a0:	4623      	mov	r3, r4
  t = Time.now();
 80810a2:	e9c7 0100 	strd	r0, r1, [r7]
  snprintf(data, sizeof(data), "Time zone offset %i",tempTimeZoneOffset);
 80810a6:	4a1b      	ldr	r2, [pc, #108]	; (8081114 <_Z11setTimeZone6String+0xac>)
 80810a8:	f44f 7180 	mov.w	r1, #256	; 0x100
 80810ac:	4d1a      	ldr	r5, [pc, #104]	; (8081118 <_Z11setTimeZone6String+0xb0>)
 80810ae:	a80a      	add	r0, sp, #40	; 0x28
 80810b0:	f000 ff6e 	bl	8081f90 <snprintf>
 80810b4:	f7ff fb30 	bl	8080718 <_ZN11SystemClass18waitConditionWhileIZ11setTimeZone6StringEUlvE0_ZNS_13waitConditionIS2_EEbT_EUlvE_EEbS4_T0_.isra.0>
  Particle.publish("Time",data, PRIVATE);
 80810b8:	f88d 6000 	strb.w	r6, [sp]
 80810bc:	4917      	ldr	r1, [pc, #92]	; (808111c <_Z11setTimeZone6String+0xb4>)
 80810be:	782b      	ldrb	r3, [r5, #0]
 80810c0:	aa0a      	add	r2, sp, #40	; 0x28
 80810c2:	a806      	add	r0, sp, #24
 80810c4:	f7ff f8da 	bl	808027c <_ZN10CloudClass7publishEPKcS1_N8particle5FlagsI15PublishFlagTypehEES5_.isra.0.constprop.0>
 80810c8:	a807      	add	r0, sp, #28
 80810ca:	f7ff fb77 	bl	80807bc <_ZNSt14__shared_countILN9__gnu_cxx12_Lock_policyE0EED1Ev>
 80810ce:	f000 fc87 	bl	80819e0 <HAL_Timer_Get_Milli_Seconds>
  lastPublish = millis();
 80810d2:	4c13      	ldr	r4, [pc, #76]	; (8081120 <_Z11setTimeZone6String+0xb8>)
 80810d4:	6020      	str	r0, [r4, #0]
 80810d6:	f7ff fb1f 	bl	8080718 <_ZN11SystemClass18waitConditionWhileIZ11setTimeZone6StringEUlvE0_ZNS_13waitConditionIS2_EEbT_EUlvE_EEbS4_T0_.isra.0>
  Particle.publish("Time",Time.timeStr(t), PRIVATE);
 80810da:	e9d7 2300 	ldrd	r2, r3, [r7]
 80810de:	a806      	add	r0, sp, #24
 80810e0:	f003 fa08 	bl	80844f4 <_ZN9TimeClass7timeStrEx>
 80810e4:	f88d 6000 	strb.w	r6, [sp]
 80810e8:	782b      	ldrb	r3, [r5, #0]
 80810ea:	9a06      	ldr	r2, [sp, #24]
 80810ec:	490b      	ldr	r1, [pc, #44]	; (808111c <_Z11setTimeZone6String+0xb4>)
 80810ee:	a804      	add	r0, sp, #16
 80810f0:	f7ff f8c4 	bl	808027c <_ZN10CloudClass7publishEPKcS1_N8particle5FlagsI15PublishFlagTypehEES5_.isra.0.constprop.0>
 80810f4:	a805      	add	r0, sp, #20
 80810f6:	f7ff fb61 	bl	80807bc <_ZNSt14__shared_countILN9__gnu_cxx12_Lock_policyE0EED1Ev>
 80810fa:	a806      	add	r0, sp, #24
 80810fc:	f003 f845 	bl	808418a <_ZN6StringD1Ev>
 8081100:	f000 fc6e 	bl	80819e0 <HAL_Timer_Get_Milli_Seconds>
  lastPublish = millis();
 8081104:	6020      	str	r0, [r4, #0]
  return 1;
 8081106:	2001      	movs	r0, #1
}
 8081108:	b04b      	add	sp, #300	; 0x12c
 808110a:	bdf0      	pop	{r4, r5, r6, r7, pc}
  if ((tempTimeZoneOffset < -12) | (tempTimeZoneOffset > 12)) return 0;   // Make sure it falls in a valid range or send a "fail" result
 808110c:	2000      	movs	r0, #0
 808110e:	e7fb      	b.n	8081108 <_Z11setTimeZone6String+0xa0>
 8081110:	20000188 	.word	0x20000188
 8081114:	08086215 	.word	0x08086215
 8081118:	20000118 	.word	0x20000118
 808111c:	08086229 	.word	0x08086229
 8081120:	20000140 	.word	0x20000140

08081124 <_Z22publishStateTransitionv>:

void publishStateTransition(void) {                                     // Mainly for troubleshooting - publishes the transition between states
  char stateTransitionString[40];
  snprintf(stateTransitionString, sizeof(stateTransitionString), "From %s to %s", stateNames[oldState],stateNames[state]);
 8081124:	230e      	movs	r3, #14
void publishStateTransition(void) {                                     // Mainly for troubleshooting - publishes the transition between states
 8081126:	b530      	push	{r4, r5, lr}
  snprintf(stateTransitionString, sizeof(stateTransitionString), "From %s to %s", stateNames[oldState],stateNames[state]);
 8081128:	4c19      	ldr	r4, [pc, #100]	; (8081190 <_Z22publishStateTransitionv+0x6c>)
 808112a:	491a      	ldr	r1, [pc, #104]	; (8081194 <_Z22publishStateTransitionv+0x70>)
 808112c:	7822      	ldrb	r2, [r4, #0]
 808112e:	4d1a      	ldr	r5, [pc, #104]	; (8081198 <_Z22publishStateTransitionv+0x74>)
 8081130:	fb03 1202 	mla	r2, r3, r2, r1
 8081134:	7828      	ldrb	r0, [r5, #0]
void publishStateTransition(void) {                                     // Mainly for troubleshooting - publishes the transition between states
 8081136:	b08f      	sub	sp, #60	; 0x3c
  snprintf(stateTransitionString, sizeof(stateTransitionString), "From %s to %s", stateNames[oldState],stateNames[state]);
 8081138:	fb03 1300 	mla	r3, r3, r0, r1
 808113c:	9200      	str	r2, [sp, #0]
 808113e:	2128      	movs	r1, #40	; 0x28
 8081140:	4a16      	ldr	r2, [pc, #88]	; (808119c <_Z22publishStateTransitionv+0x78>)
 8081142:	a804      	add	r0, sp, #16
 8081144:	f000 ff24 	bl	8081f90 <snprintf>
 8081148:	f000 fe5a 	bl	8081e00 <spark_cloud_flag_connected>
  if(Particle.connected() && verboseMode) {
 808114c:	b188      	cbz	r0, 8081172 <_Z22publishStateTransitionv+0x4e>
 808114e:	4b14      	ldr	r3, [pc, #80]	; (80811a0 <_Z22publishStateTransitionv+0x7c>)
 8081150:	781b      	ldrb	r3, [r3, #0]
 8081152:	b173      	cbz	r3, 8081172 <_Z22publishStateTransitionv+0x4e>
 8081154:	f7ff fae0 	bl	8080718 <_ZN11SystemClass18waitConditionWhileIZ11setTimeZone6StringEUlvE0_ZNS_13waitConditionIS2_EEbT_EUlvE_EEbS4_T0_.isra.0>
    waitUntil(meterParticlePublish);
    Particle.publish("State Transition",stateTransitionString, PRIVATE);
 8081158:	2300      	movs	r3, #0
 808115a:	f88d 3000 	strb.w	r3, [sp]
 808115e:	4b11      	ldr	r3, [pc, #68]	; (80811a4 <_Z22publishStateTransitionv+0x80>)
 8081160:	a802      	add	r0, sp, #8
 8081162:	781b      	ldrb	r3, [r3, #0]
 8081164:	4910      	ldr	r1, [pc, #64]	; (80811a8 <_Z22publishStateTransitionv+0x84>)
 8081166:	aa04      	add	r2, sp, #16
 8081168:	f7ff f888 	bl	808027c <_ZN10CloudClass7publishEPKcS1_N8particle5FlagsI15PublishFlagTypehEES5_.isra.0.constprop.0>
 808116c:	a803      	add	r0, sp, #12
 808116e:	f7ff fb25 	bl	80807bc <_ZNSt14__shared_countILN9__gnu_cxx12_Lock_policyE0EED1Ev>
  }
  Log.info(stateTransitionString);
 8081172:	a904      	add	r1, sp, #16
 8081174:	480d      	ldr	r0, [pc, #52]	; (80811ac <_Z22publishStateTransitionv+0x88>)
 8081176:	f7ff f8be 	bl	80802f6 <_ZNK5spark6Logger4infoEPKcz>
  Log.info("AlertValue = %i",alertValue);
 808117a:	4b0d      	ldr	r3, [pc, #52]	; (80811b0 <_Z22publishStateTransitionv+0x8c>)
 808117c:	490d      	ldr	r1, [pc, #52]	; (80811b4 <_Z22publishStateTransitionv+0x90>)
 808117e:	781a      	ldrb	r2, [r3, #0]
 8081180:	480a      	ldr	r0, [pc, #40]	; (80811ac <_Z22publishStateTransitionv+0x88>)
 8081182:	f7ff f8b8 	bl	80802f6 <_ZNK5spark6Logger4infoEPKcz>
  oldState = state;
 8081186:	7823      	ldrb	r3, [r4, #0]
 8081188:	702b      	strb	r3, [r5, #0]
}
 808118a:	b00f      	add	sp, #60	; 0x3c
 808118c:	bd30      	pop	{r4, r5, pc}
 808118e:	bf00      	nop
 8081190:	20000180 	.word	0x20000180
 8081194:	20000018 	.word	0x20000018
 8081198:	2000016c 	.word	0x2000016c
 808119c:	0808622e 	.word	0x0808622e
 80811a0:	20000194 	.word	0x20000194
 80811a4:	20000118 	.word	0x20000118
 80811a8:	0808623c 	.word	0x0808623c
 80811ac:	200001d8 	.word	0x200001d8
 80811b0:	20000120 	.word	0x20000120
 80811b4:	0808624d 	.word	0x0808624d

080811b8 <loop>:
{
 80811b8:	b530      	push	{r4, r5, lr}
  switch(state) {
 80811ba:	4c92      	ldr	r4, [pc, #584]	; (8081404 <loop+0x24c>)
{
 80811bc:	b085      	sub	sp, #20
 80811be:	7823      	ldrb	r3, [r4, #0]
 80811c0:	3b01      	subs	r3, #1
 80811c2:	2b04      	cmp	r3, #4
 80811c4:	d85e      	bhi.n	8081284 <loop+0xcc>
 80811c6:	e8df f013 	tbh	[pc, r3, lsl #1]
 80811ca:	00ee      	.short	0x00ee
 80811cc:	00390005 	.word	0x00390005
 80811d0:	00b40074 	.word	0x00b40074
    if (state != oldState) publishStateTransition();
 80811d4:	4b8c      	ldr	r3, [pc, #560]	; (8081408 <loop+0x250>)
 80811d6:	781b      	ldrb	r3, [r3, #0]
 80811d8:	2b02      	cmp	r3, #2
 80811da:	d001      	beq.n	80811e0 <loop+0x28>
 80811dc:	f7ff ffa2 	bl	8081124 <_Z22publishStateTransitionv>
    waitUntil(meterSampleRate);
 80811e0:	f7ff faa6 	bl	8080730 <_Z15meterSampleRatev>
        while (_while() && !_condition()) {
 80811e4:	b910      	cbnz	r0, 80811ec <loop+0x34>
            spark_process();
 80811e6:	f000 fdfb 	bl	8081de0 <spark_process>
        while (_while() && !_condition()) {
 80811ea:	e7f9      	b.n	80811e0 <loop+0x28>
 80811ec:	f7ff faa0 	bl	8080730 <_Z15meterSampleRatev>
    if(takeMeasurements()) state = REPORTING_STATE;
 80811f0:	f7ff fc66 	bl	8080ac0 <_Z16takeMeasurementsv>
 80811f4:	b108      	cbz	r0, 80811fa <loop+0x42>
 80811f6:	2304      	movs	r3, #4
 80811f8:	7023      	strb	r3, [r4, #0]
    if (Time.hour() != currentHourlyPeriod) {
 80811fa:	f003 f9e1 	bl	80845c0 <_ZN9TimeClass4hourEv>
 80811fe:	4b83      	ldr	r3, [pc, #524]	; (808140c <loop+0x254>)
 8081200:	781b      	ldrb	r3, [r3, #0]
 8081202:	4298      	cmp	r0, r3
 8081204:	d011      	beq.n	808122a <loop+0x72>
      state = REPORTING_STATE;                                    // We want to report on the hour
 8081206:	2304      	movs	r3, #4
 8081208:	7023      	strb	r3, [r4, #0]
      if (Time.hour() == 0) {                                     // Check to see if it is midnight
 808120a:	f003 f9d9 	bl	80845c0 <_ZN9TimeClass4hourEv>
 808120e:	4605      	mov	r5, r0
 8081210:	b958      	cbnz	r0, 808122a <loop+0x72>
        dailyPumpingMins = 0;                                     // Reset each day.
 8081212:	4b7f      	ldr	r3, [pc, #508]	; (8081410 <loop+0x258>)
        FRAMwrite16(DAILYPUMPMINUTES,0);                          // And zero the value in FRAM
 8081214:	4601      	mov	r1, r0
        dailyPumpingMins = 0;                                     // Reset each day.
 8081216:	6018      	str	r0, [r3, #0]
        FRAMwrite16(DAILYPUMPMINUTES,0);                          // And zero the value in FRAM
 8081218:	2014      	movs	r0, #20
 808121a:	f7ff f8a3 	bl	8080364 <_Z11FRAMwrite16ji>
 808121e:	f000 fdef 	bl	8081e00 <spark_cloud_flag_connected>
        if (!connected()) {
 8081222:	b110      	cbz	r0, 808122a <loop+0x72>
        return spark_sync_time(NULL);
 8081224:	4628      	mov	r0, r5
 8081226:	f000 fe0b 	bl	8081e40 <spark_sync_time>
    if (stateOfCharge <= lowBattLimit) state = LOW_BATTERY_STATE; // The battery is low - sleep
 808122a:	4b7a      	ldr	r3, [pc, #488]	; (8081414 <loop+0x25c>)
 808122c:	681a      	ldr	r2, [r3, #0]
 808122e:	4b7a      	ldr	r3, [pc, #488]	; (8081418 <loop+0x260>)
 8081230:	681b      	ldr	r3, [r3, #0]
 8081232:	429a      	cmp	r2, r3
 8081234:	dc26      	bgt.n	8081284 <loop+0xcc>
 8081236:	2303      	movs	r3, #3
        state = ERROR_STATE;
 8081238:	7023      	strb	r3, [r4, #0]
        break;
 808123a:	e023      	b.n	8081284 <loop+0xcc>
      if (state != oldState) publishStateTransition();
 808123c:	4b72      	ldr	r3, [pc, #456]	; (8081408 <loop+0x250>)
 808123e:	781b      	ldrb	r3, [r3, #0]
 8081240:	2b03      	cmp	r3, #3
 8081242:	d001      	beq.n	8081248 <loop+0x90>
 8081244:	f7ff ff6e 	bl	8081124 <_Z22publishStateTransitionv>
    static bool connected(void) { return spark_cloud_flag_connected(); }
 8081248:	f000 fdda 	bl	8081e00 <spark_cloud_flag_connected>
      if (Particle.connected()) {
 808124c:	b108      	cbz	r0, 8081252 <loop+0x9a>
        disconnectFromParticle();                               // If connected, we need to disconned and power down the modem
 808124e:	f7ff f9eb 	bl	8080628 <_Z22disconnectFromParticlev>
      ledState = false;
 8081252:	2400      	movs	r4, #0
 8081254:	4b71      	ldr	r3, [pc, #452]	; (808141c <loop+0x264>)
      digitalWrite(blueLED,LOW);                                // Turn off the LED
 8081256:	4621      	mov	r1, r4
 8081258:	2007      	movs	r0, #7
      ledState = false;
 808125a:	701c      	strb	r4, [r3, #0]
      digitalWrite(blueLED,LOW);                                // Turn off the LED
 808125c:	f003 fc37 	bl	8084ace <digitalWrite>
      digitalWrite(tmp36Shutdwn, LOW);                          // Turns off the temp sensor
 8081260:	4621      	mov	r1, r4
 8081262:	201d      	movs	r0, #29
 8081264:	f003 fc33 	bl	8084ace <digitalWrite>
      watchdogISR();                                            // Pet the watchdog
 8081268:	f7fe ffe8 	bl	808023c <_Z11watchdogISRv>
      int secondsToHour = (60*(60 - Time.minute()));            // Time till the top of the hour
 808126c:	f003 f9b4 	bl	80845d8 <_ZN9TimeClass6minuteEv>
      System.sleep(SLEEP_MODE_DEEP,secondsToHour);              // Very deep sleep till the next hour - then resets
 8081270:	223c      	movs	r2, #60	; 0x3c
 8081272:	4b6b      	ldr	r3, [pc, #428]	; (8081420 <loop+0x268>)
      int secondsToHour = (60*(60 - Time.minute()));            // Time till the top of the hour
 8081274:	f1c0 003c 	rsb	r0, r0, #60	; 0x3c
      System.sleep(SLEEP_MODE_DEEP,secondsToHour);              // Very deep sleep till the next hour - then resets
 8081278:	4342      	muls	r2, r0
 808127a:	2101      	movs	r1, #1
 808127c:	681b      	ldr	r3, [r3, #0]
 808127e:	a802      	add	r0, sp, #8
 8081280:	f003 f89e 	bl	80843c0 <_ZN11SystemClass5sleepE19Spark_Sleep_TypeDeflN8particle5FlagsI19SleepOptionFlagTypemEE>
 8081284:	f000 fdbc 	bl	8081e00 <spark_cloud_flag_connected>
  if (!Particle.connected() && (millis() - lastConnectionCheck > 30000)) {
 8081288:	b988      	cbnz	r0, 80812ae <loop+0xf6>
 808128a:	f000 fba9 	bl	80819e0 <HAL_Timer_Get_Milli_Seconds>
 808128e:	4c65      	ldr	r4, [pc, #404]	; (8081424 <loop+0x26c>)
 8081290:	6823      	ldr	r3, [r4, #0]
 8081292:	1ac0      	subs	r0, r0, r3
 8081294:	f247 5330 	movw	r3, #30000	; 0x7530
 8081298:	4298      	cmp	r0, r3
 808129a:	d908      	bls.n	80812ae <loop+0xf6>
        spark_cloud_flag_connect();
 808129c:	f000 fda8 	bl	8081df0 <spark_cloud_flag_connect>
 80812a0:	f000 fb9e 	bl	80819e0 <HAL_Timer_Get_Milli_Seconds>
    Log.info("Attempting to reconnect to Particle");
 80812a4:	4960      	ldr	r1, [pc, #384]	; (8081428 <loop+0x270>)
    lastConnectionCheck = millis();
 80812a6:	6020      	str	r0, [r4, #0]
    Log.info("Attempting to reconnect to Particle");
 80812a8:	4860      	ldr	r0, [pc, #384]	; (808142c <loop+0x274>)
 80812aa:	f7ff f824 	bl	80802f6 <_ZNK5spark6Logger4infoEPKcz>
}
 80812ae:	b005      	add	sp, #20
 80812b0:	bd30      	pop	{r4, r5, pc}
    if (state != oldState) publishStateTransition();
 80812b2:	4b55      	ldr	r3, [pc, #340]	; (8081408 <loop+0x250>)
 80812b4:	781b      	ldrb	r3, [r3, #0]
 80812b6:	2b04      	cmp	r3, #4
 80812b8:	d001      	beq.n	80812be <loop+0x106>
 80812ba:	f7ff ff33 	bl	8081124 <_Z22publishStateTransitionv>
    watchdogISR();                                    // Pet the watchdog once an hour
 80812be:	f7fe ffbd 	bl	808023c <_Z11watchdogISRv>
    pettingEnabled = false;                           // see this reporort cycle through
 80812c2:	2300      	movs	r3, #0
 80812c4:	4d5a      	ldr	r5, [pc, #360]	; (8081430 <loop+0x278>)
 80812c6:	702b      	strb	r3, [r5, #0]
    static bool connected(void) { return spark_cloud_flag_connected(); }
 80812c8:	f000 fd9a 	bl	8081e00 <spark_cloud_flag_connected>
    if (!Particle.connected()) {
 80812cc:	b940      	cbnz	r0, 80812e0 <loop+0x128>
      if (!connectToParticle()) {
 80812ce:	f7ff f93b 	bl	8080548 <_Z17connectToParticlev>
 80812d2:	b928      	cbnz	r0, 80812e0 <loop+0x128>
 80812d4:	f000 fb84 	bl	80819e0 <HAL_Timer_Get_Milli_Seconds>
        resetTimeStamp = millis();
 80812d8:	4b56      	ldr	r3, [pc, #344]	; (8081434 <loop+0x27c>)
 80812da:	6018      	str	r0, [r3, #0]
        state = ERROR_STATE;
 80812dc:	2301      	movs	r3, #1
 80812de:	e7ab      	b.n	8081238 <loop+0x80>
    if (alertValue != 0) resolveAlert();
 80812e0:	4b55      	ldr	r3, [pc, #340]	; (8081438 <loop+0x280>)
 80812e2:	781b      	ldrb	r3, [r3, #0]
 80812e4:	b10b      	cbz	r3, 80812ea <loop+0x132>
 80812e6:	f7ff fae3 	bl	80808b0 <_Z12resolveAlertv>
    sendEvent();
 80812ea:	f7ff fb43 	bl	8080974 <_Z9sendEventv>
 80812ee:	f000 fb77 	bl	80819e0 <HAL_Timer_Get_Milli_Seconds>
    webhookTimeStamp = millis();
 80812f2:	4b52      	ldr	r3, [pc, #328]	; (808143c <loop+0x284>)
 80812f4:	6018      	str	r0, [r3, #0]
    currentHourlyPeriod = Time.hour();                // Change the time period since we have reported for this one
 80812f6:	f003 f963 	bl	80845c0 <_ZN9TimeClass4hourEv>
 80812fa:	4b44      	ldr	r3, [pc, #272]	; (808140c <loop+0x254>)
 80812fc:	7018      	strb	r0, [r3, #0]
        return waitConditionWhile(_condition, []{ return true; });
 80812fe:	f7ff fa0b 	bl	8080718 <_ZN11SystemClass18waitConditionWhileIZ11setTimeZone6StringEUlvE0_ZNS_13waitConditionIS2_EEbT_EUlvE_EEbS4_T0_.isra.0>
    if (verboseMode) Particle.publish("State","Waiting for Response",PRIVATE);
 8081302:	4b4f      	ldr	r3, [pc, #316]	; (8081440 <loop+0x288>)
 8081304:	781b      	ldrb	r3, [r3, #0]
 8081306:	b163      	cbz	r3, 8081322 <loop+0x16a>
 8081308:	2300      	movs	r3, #0
 808130a:	f88d 3000 	strb.w	r3, [sp]
 808130e:	4b4d      	ldr	r3, [pc, #308]	; (8081444 <loop+0x28c>)
 8081310:	a802      	add	r0, sp, #8
 8081312:	781b      	ldrb	r3, [r3, #0]
 8081314:	4a4c      	ldr	r2, [pc, #304]	; (8081448 <loop+0x290>)
 8081316:	494d      	ldr	r1, [pc, #308]	; (808144c <loop+0x294>)
 8081318:	f7fe ffb0 	bl	808027c <_ZN10CloudClass7publishEPKcS1_N8particle5FlagsI15PublishFlagTypehEES5_.isra.0.constprop.0>
 808131c:	a803      	add	r0, sp, #12
 808131e:	f7ff fa4d 	bl	80807bc <_ZNSt14__shared_countILN9__gnu_cxx12_Lock_policyE0EED1Ev>
 8081322:	f000 fb5d 	bl	80819e0 <HAL_Timer_Get_Milli_Seconds>
    lastPublish = millis();
 8081326:	4b4a      	ldr	r3, [pc, #296]	; (8081450 <loop+0x298>)
 8081328:	6018      	str	r0, [r3, #0]
    pettingEnabled = true;
 808132a:	2301      	movs	r3, #1
 808132c:	702b      	strb	r3, [r5, #0]
    state = RESP_WAIT_STATE;                            // Wait for Response
 808132e:	2305      	movs	r3, #5
 8081330:	e782      	b.n	8081238 <loop+0x80>
    if (state != oldState) publishStateTransition();
 8081332:	4b35      	ldr	r3, [pc, #212]	; (8081408 <loop+0x250>)
 8081334:	781b      	ldrb	r3, [r3, #0]
 8081336:	2b05      	cmp	r3, #5
 8081338:	d001      	beq.n	808133e <loop+0x186>
 808133a:	f7ff fef3 	bl	8081124 <_Z22publishStateTransitionv>
    if (!dataInFlight)                                  // Response received
 808133e:	4b45      	ldr	r3, [pc, #276]	; (8081454 <loop+0x29c>)
 8081340:	781d      	ldrb	r5, [r3, #0]
 8081342:	b9bd      	cbnz	r5, 8081374 <loop+0x1bc>
      state = IDLE_STATE;
 8081344:	2302      	movs	r3, #2
 8081346:	7023      	strb	r3, [r4, #0]
 8081348:	f7ff f9e6 	bl	8080718 <_ZN11SystemClass18waitConditionWhileIZ11setTimeZone6StringEUlvE0_ZNS_13waitConditionIS2_EEbT_EUlvE_EEbS4_T0_.isra.0>
      if (verboseMode) Particle.publish("State","Idle",PRIVATE);
 808134c:	4b3c      	ldr	r3, [pc, #240]	; (8081440 <loop+0x288>)
 808134e:	781b      	ldrb	r3, [r3, #0]
 8081350:	b15b      	cbz	r3, 808136a <loop+0x1b2>
 8081352:	4b3c      	ldr	r3, [pc, #240]	; (8081444 <loop+0x28c>)
 8081354:	f88d 5000 	strb.w	r5, [sp]
 8081358:	781b      	ldrb	r3, [r3, #0]
 808135a:	4a3f      	ldr	r2, [pc, #252]	; (8081458 <loop+0x2a0>)
 808135c:	a802      	add	r0, sp, #8
 808135e:	493b      	ldr	r1, [pc, #236]	; (808144c <loop+0x294>)
 8081360:	f7fe ff8c 	bl	808027c <_ZN10CloudClass7publishEPKcS1_N8particle5FlagsI15PublishFlagTypehEES5_.isra.0.constprop.0>
 8081364:	a803      	add	r0, sp, #12
 8081366:	f7ff fa29 	bl	80807bc <_ZNSt14__shared_countILN9__gnu_cxx12_Lock_policyE0EED1Ev>
 808136a:	f000 fb39 	bl	80819e0 <HAL_Timer_Get_Milli_Seconds>
      lastPublish = millis();
 808136e:	4b38      	ldr	r3, [pc, #224]	; (8081450 <loop+0x298>)
 8081370:	6018      	str	r0, [r3, #0]
 8081372:	e787      	b.n	8081284 <loop+0xcc>
 8081374:	f000 fb34 	bl	80819e0 <HAL_Timer_Get_Milli_Seconds>
    else if (millis() - webhookTimeStamp >= webhookWait) {                                         // If it takes too long - will need to reset
 8081378:	4b30      	ldr	r3, [pc, #192]	; (808143c <loop+0x284>)
 808137a:	681b      	ldr	r3, [r3, #0]
 808137c:	1ac0      	subs	r0, r0, r3
 808137e:	4b37      	ldr	r3, [pc, #220]	; (808145c <loop+0x2a4>)
 8081380:	681b      	ldr	r3, [r3, #0]
 8081382:	4298      	cmp	r0, r3
 8081384:	f4ff af7e 	bcc.w	8081284 <loop+0xcc>
 8081388:	f000 fb2a 	bl	80819e0 <HAL_Timer_Get_Milli_Seconds>
      resetTimeStamp = millis();
 808138c:	4b29      	ldr	r3, [pc, #164]	; (8081434 <loop+0x27c>)
 808138e:	6018      	str	r0, [r3, #0]
      state = ERROR_STATE;  // Response timed out
 8081390:	2301      	movs	r3, #1
 8081392:	7023      	strb	r3, [r4, #0]
 8081394:	f7ff f9c0 	bl	8080718 <_ZN11SystemClass18waitConditionWhileIZ11setTimeZone6StringEUlvE0_ZNS_13waitConditionIS2_EEbT_EUlvE_EEbS4_T0_.isra.0>
      Particle.publish("State","Response Timeout Error",PRIVATE);
 8081398:	2300      	movs	r3, #0
 808139a:	f88d 3000 	strb.w	r3, [sp]
 808139e:	4b29      	ldr	r3, [pc, #164]	; (8081444 <loop+0x28c>)
 80813a0:	4a2f      	ldr	r2, [pc, #188]	; (8081460 <loop+0x2a8>)
 80813a2:	781b      	ldrb	r3, [r3, #0]
 80813a4:	e7da      	b.n	808135c <loop+0x1a4>
      if (state != oldState) publishStateTransition();
 80813a6:	4b18      	ldr	r3, [pc, #96]	; (8081408 <loop+0x250>)
 80813a8:	781b      	ldrb	r3, [r3, #0]
 80813aa:	2b01      	cmp	r3, #1
 80813ac:	d001      	beq.n	80813b2 <loop+0x1fa>
 80813ae:	f7ff feb9 	bl	8081124 <_Z22publishStateTransitionv>
 80813b2:	f000 fb15 	bl	80819e0 <HAL_Timer_Get_Milli_Seconds>
      if (millis() - resetTimeStamp >= resetWait)
 80813b6:	4b1f      	ldr	r3, [pc, #124]	; (8081434 <loop+0x27c>)
 80813b8:	681b      	ldr	r3, [r3, #0]
 80813ba:	1ac0      	subs	r0, r0, r3
 80813bc:	4b29      	ldr	r3, [pc, #164]	; (8081464 <loop+0x2ac>)
 80813be:	681b      	ldr	r3, [r3, #0]
 80813c0:	4298      	cmp	r0, r3
 80813c2:	f4ff af5f 	bcc.w	8081284 <loop+0xcc>
 80813c6:	2400      	movs	r4, #0
        Particle.publish("State","ERROR_STATE - Resetting",PRIVATE);
 80813c8:	4b1e      	ldr	r3, [pc, #120]	; (8081444 <loop+0x28c>)
 80813ca:	f88d 4000 	strb.w	r4, [sp]
 80813ce:	781b      	ldrb	r3, [r3, #0]
 80813d0:	4a25      	ldr	r2, [pc, #148]	; (8081468 <loop+0x2b0>)
 80813d2:	491e      	ldr	r1, [pc, #120]	; (808144c <loop+0x294>)
 80813d4:	a802      	add	r0, sp, #8
 80813d6:	f7fe ff51 	bl	808027c <_ZN10CloudClass7publishEPKcS1_N8particle5FlagsI15PublishFlagTypehEES5_.isra.0.constprop.0>
 80813da:	a803      	add	r0, sp, #12
 80813dc:	f7ff f9ee 	bl	80807bc <_ZNSt14__shared_countILN9__gnu_cxx12_Lock_policyE0EED1Ev>
        delay(2000);                                          // Delay so publish can finish
 80813e0:	f44f 60fa 	mov.w	r0, #2000	; 0x7d0
 80813e4:	f000 fdfc 	bl	8081fe0 <delay>
        if (resetCount <= 3)  System.reset();                 // Today, only way out is reset
 80813e8:	4b20      	ldr	r3, [pc, #128]	; (808146c <loop+0x2b4>)
 80813ea:	681b      	ldr	r3, [r3, #0]
 80813ec:	2b03      	cmp	r3, #3
 80813ee:	dc02      	bgt.n	80813f6 <loop+0x23e>
 80813f0:	f002 ffe3 	bl	80843ba <_ZN11SystemClass5resetEv>
 80813f4:	e746      	b.n	8081284 <loop+0xcc>
          FRAMwrite8(RESETCOUNT,0);                           // Zero the ResetCount
 80813f6:	4621      	mov	r1, r4
 80813f8:	2002      	movs	r0, #2
 80813fa:	f7fe ff99 	bl	8080330 <_Z10FRAMwrite8jh>
          fullModemReset();                                   // Full Modem reset and reboot
 80813fe:	f7ff f9ad 	bl	808075c <_Z14fullModemResetv>
 8081402:	e73f      	b.n	8081284 <loop+0xcc>
 8081404:	20000180 	.word	0x20000180
 8081408:	2000016c 	.word	0x2000016c
 808140c:	20000131 	.word	0x20000131
 8081410:	20000134 	.word	0x20000134
 8081414:	20000184 	.word	0x20000184
 8081418:	20000000 	.word	0x20000000
 808141c:	20000144 	.word	0x20000144
 8081420:	20000114 	.word	0x20000114
 8081424:	2000013c 	.word	0x2000013c
 8081428:	080862a6 	.word	0x080862a6
 808142c:	200001d8 	.word	0x200001d8
 8081430:	20000004 	.word	0x20000004
 8081434:	2000017c 	.word	0x2000017c
 8081438:	20000120 	.word	0x20000120
 808143c:	20000198 	.word	0x20000198
 8081440:	20000194 	.word	0x20000194
 8081444:	20000118 	.word	0x20000118
 8081448:	0808625d 	.word	0x0808625d
 808144c:	08086354 	.word	0x08086354
 8081450:	20000140 	.word	0x20000140
 8081454:	20000138 	.word	0x20000138
 8081458:	08086272 	.word	0x08086272
 808145c:	20000088 	.word	0x20000088
 8081460:	08086277 	.word	0x08086277
 8081464:	20000010 	.word	0x20000010
 8081468:	0808628e 	.word	0x0808628e
 808146c:	20000178 	.word	0x20000178

08081470 <_ZN5spark6VectorINS_17LogCategoryFilterENS_16DefaultAllocatorEED1Ev>:
inline spark::Vector<T, AllocatorT>::Vector(Vector<T, AllocatorT>&& vector) : Vector() {
    swap(*this, vector);
}

template<typename T, typename AllocatorT>
inline spark::Vector<T, AllocatorT>::~Vector() {
 8081470:	b570      	push	{r4, r5, r6, lr}
    destruct(data_, data_ + size_);
 8081472:	2614      	movs	r6, #20
 8081474:	e9d0 5300 	ldrd	r5, r3, [r0]
inline spark::Vector<T, AllocatorT>::~Vector() {
 8081478:	4604      	mov	r4, r0
    destruct(data_, data_ + size_);
 808147a:	fb06 5603 	mla	r6, r6, r3, r5
        for (; p != end; ++p) {
 808147e:	42ae      	cmp	r6, r5
 8081480:	d004      	beq.n	808148c <_ZN5spark6VectorINS_17LogCategoryFilterENS_16DefaultAllocatorEED1Ev+0x1c>
class LogCategoryFilter {
 8081482:	4628      	mov	r0, r5
 8081484:	f002 fe81 	bl	808418a <_ZN6StringD1Ev>
 8081488:	3514      	adds	r5, #20
 808148a:	e7f8      	b.n	808147e <_ZN5spark6VectorINS_17LogCategoryFilterENS_16DefaultAllocatorEED1Ev+0xe>
    ::free(ptr);
 808148c:	6820      	ldr	r0, [r4, #0]
 808148e:	f000 fd67 	bl	8081f60 <free>
    AllocatorT::free(data_);
}
 8081492:	4620      	mov	r0, r4
 8081494:	bd70      	pop	{r4, r5, r6, pc}
	...

08081498 <_ZN10CloudClass8functionIA13_cJPFi6StringEEEEbRKT_DpT0_>:
    static inline bool function(const T &name, Types ... args)
 8081498:	4602      	mov	r2, r0
        return register_function(call_raw_user_function, (void*)func, funcKey);
 808149a:	4801      	ldr	r0, [pc, #4]	; (80814a0 <_ZN10CloudClass8functionIA13_cJPFi6StringEEEEbRKT_DpT0_+0x8>)
 808149c:	f000 bf5d 	b.w	808235a <_ZN10CloudClass17register_functionEPFiPvPKcS0_ES0_S2_>
 80814a0:	0808232f 	.word	0x0808232f

080814a4 <setup>:
{
 80814a4:	b530      	push	{r4, r5, lr}
        return spark_subscribe(eventName, handler, NULL, scope, NULL, NULL);
 80814a6:	2400      	movs	r4, #0
 80814a8:	b0a9      	sub	sp, #164	; 0xa4
  delay(1000);                                                    // Give serial time to come up
 80814aa:	f44f 707a 	mov.w	r0, #1000	; 0x3e8
 80814ae:	f000 fd97 	bl	8081fe0 <delay>
  pinMode(boosterNoFlow1Pin,INPUT);                               // Voltage Sensor Interrupt pin
 80814b2:	2100      	movs	r1, #0
 80814b4:	2019      	movs	r0, #25
 80814b6:	f003 faf9 	bl	8084aac <pinMode>
  pinMode(boosterNoFlow2Pin,INPUT);                               // Voltage Sensor Interrupt pin
 80814ba:	2100      	movs	r1, #0
 80814bc:	201a      	movs	r0, #26
 80814be:	f003 faf5 	bl	8084aac <pinMode>
  pinMode(storageTankLowPin,INPUT);                               // Voltage Sensor Interrupt pin
 80814c2:	2100      	movs	r1, #0
 80814c4:	201b      	movs	r0, #27
 80814c6:	f003 faf1 	bl	8084aac <pinMode>
  pinMode(pump1CalledPin,INPUT);                                  // Voltage Sensor Interrupt pin
 80814ca:	2100      	movs	r1, #0
 80814cc:	201c      	movs	r0, #28
 80814ce:	f003 faed 	bl	8084aac <pinMode>
  pinMode(pump2CalledPin,INPUT);                                  // Voltage Sensor Interrupt pin
 80814d2:	2100      	movs	r1, #0
 80814d4:	200e      	movs	r0, #14
 80814d6:	f003 fae9 	bl	8084aac <pinMode>
  pinMode(wakeUpPin,INPUT);                                       // This pin is active HIGH
 80814da:	2100      	movs	r1, #0
 80814dc:	2011      	movs	r0, #17
 80814de:	f003 fae5 	bl	8084aac <pinMode>
  pinMode(userSwitch,INPUT);                                      // Momentary contact button on board for direct user input
 80814e2:	2100      	movs	r1, #0
 80814e4:	2005      	movs	r0, #5
 80814e6:	f003 fae1 	bl	8084aac <pinMode>
  pinMode(blueLED, OUTPUT);                                       // declare the Blue LED Pin as an output
 80814ea:	2101      	movs	r1, #1
 80814ec:	2007      	movs	r0, #7
 80814ee:	f003 fadd 	bl	8084aac <pinMode>
  pinMode(tmp36Shutdwn,OUTPUT);                                   // Supports shutting down the TMP-36 to save juice
 80814f2:	2101      	movs	r1, #1
 80814f4:	201d      	movs	r0, #29
 80814f6:	f003 fad9 	bl	8084aac <pinMode>
  digitalWrite(tmp36Shutdwn, HIGH);                               // Turns on the temp sensor
 80814fa:	2101      	movs	r1, #1
 80814fc:	201d      	movs	r0, #29
 80814fe:	f003 fae6 	bl	8084ace <digitalWrite>
  pinMode(donePin,OUTPUT);                                        // Allows us to pet the watchdog
 8081502:	2101      	movs	r1, #1
 8081504:	2006      	movs	r0, #6
 8081506:	f003 fad1 	bl	8084aac <pinMode>
  watchdogISR();                                                  // Pet the watchdog
 808150a:	f7fe fe97 	bl	808023c <_Z11watchdogISRv>
  pinMode(hardResetPin,OUTPUT);                                   // For a hard reset active HIGH
 808150e:	2101      	movs	r1, #1
 8081510:	2004      	movs	r0, #4
 8081512:	f003 facb 	bl	8084aac <pinMode>
    static String deviceID(void) { return spark_deviceID(); }
 8081516:	a804      	add	r0, sp, #16
 8081518:	f000 fc7a 	bl	8081e10 <spark_deviceID>
	void setCharAt(unsigned int index, char c);
	char operator [] (unsigned int index) const;
	char& operator [] (unsigned int index);
	void getBytes(unsigned char *buf, unsigned int bufsize, unsigned int index=0) const;
	void toCharArray(char *buf, unsigned int bufsize, unsigned int index=0) const
		{getBytes((unsigned char *)buf, bufsize, index);}
 808151c:	2300      	movs	r3, #0
 808151e:	227d      	movs	r2, #125	; 0x7d
 8081520:	a908      	add	r1, sp, #32
 8081522:	a804      	add	r0, sp, #16
 8081524:	f002 fee2 	bl	80842ec <_ZNK6String8getBytesEPhjj>
 8081528:	4623      	mov	r3, r4
 808152a:	4622      	mov	r2, r4
 808152c:	4970      	ldr	r1, [pc, #448]	; (80816f0 <setup+0x24c>)
 808152e:	e9cd 4400 	strd	r4, r4, [sp]
 8081532:	a808      	add	r0, sp, #32
 8081534:	f000 fc7c 	bl	8081e30 <spark_subscribe>
        return spark_variable(varKey, (const void*)userVar, T::TYPE_ID, NULL);
 8081538:	4623      	mov	r3, r4
 808153a:	2202      	movs	r2, #2
 808153c:	496d      	ldr	r1, [pc, #436]	; (80816f4 <setup+0x250>)
 808153e:	486e      	ldr	r0, [pc, #440]	; (80816f8 <setup+0x254>)
 8081540:	f000 fc3e 	bl	8081dc0 <spark_variable>
 8081544:	4623      	mov	r3, r4
 8081546:	2204      	movs	r2, #4
 8081548:	496c      	ldr	r1, [pc, #432]	; (80816fc <setup+0x258>)
 808154a:	486d      	ldr	r0, [pc, #436]	; (8081700 <setup+0x25c>)
 808154c:	f000 fc38 	bl	8081dc0 <spark_variable>
 8081550:	4623      	mov	r3, r4
 8081552:	2202      	movs	r2, #2
 8081554:	496b      	ldr	r1, [pc, #428]	; (8081704 <setup+0x260>)
 8081556:	486c      	ldr	r0, [pc, #432]	; (8081708 <setup+0x264>)
 8081558:	f000 fc32 	bl	8081dc0 <spark_variable>
 808155c:	4623      	mov	r3, r4
 808155e:	2202      	movs	r2, #2
 8081560:	496a      	ldr	r1, [pc, #424]	; (808170c <setup+0x268>)
 8081562:	486b      	ldr	r0, [pc, #428]	; (8081710 <setup+0x26c>)
 8081564:	f000 fc2c 	bl	8081dc0 <spark_variable>
 8081568:	496a      	ldr	r1, [pc, #424]	; (8081714 <setup+0x270>)
 808156a:	4623      	mov	r3, r4
 808156c:	2204      	movs	r2, #4
 808156e:	6809      	ldr	r1, [r1, #0]
 8081570:	4869      	ldr	r0, [pc, #420]	; (8081718 <setup+0x274>)
 8081572:	f000 fc25 	bl	8081dc0 <spark_variable>
 8081576:	4623      	mov	r3, r4
 8081578:	2202      	movs	r2, #2
 808157a:	4968      	ldr	r1, [pc, #416]	; (808171c <setup+0x278>)
 808157c:	4868      	ldr	r0, [pc, #416]	; (8081720 <setup+0x27c>)
 808157e:	f000 fc1f 	bl	8081dc0 <spark_variable>
 8081582:	4623      	mov	r3, r4
 8081584:	2202      	movs	r2, #2
 8081586:	4967      	ldr	r1, [pc, #412]	; (8081724 <setup+0x280>)
 8081588:	4867      	ldr	r0, [pc, #412]	; (8081728 <setup+0x284>)
 808158a:	f000 fc19 	bl	8081dc0 <spark_variable>
        return register_function(call_raw_user_function, (void*)func, funcKey);
 808158e:	4a67      	ldr	r2, [pc, #412]	; (808172c <setup+0x288>)
 8081590:	4967      	ldr	r1, [pc, #412]	; (8081730 <setup+0x28c>)
 8081592:	4868      	ldr	r0, [pc, #416]	; (8081734 <setup+0x290>)
 8081594:	f000 fee1 	bl	808235a <_ZN10CloudClass17register_functionEPFiPvPKcS0_ES0_S2_>
  Particle.function("Reset-Counts",resetCounts);
 8081598:	4967      	ldr	r1, [pc, #412]	; (8081738 <setup+0x294>)
 808159a:	4868      	ldr	r0, [pc, #416]	; (808173c <setup+0x298>)
 808159c:	f7ff ff7c 	bl	8081498 <_ZN10CloudClass8functionIA13_cJPFi6StringEEEEbRKT_DpT0_>
 80815a0:	4a67      	ldr	r2, [pc, #412]	; (8081740 <setup+0x29c>)
 80815a2:	4968      	ldr	r1, [pc, #416]	; (8081744 <setup+0x2a0>)
 80815a4:	4863      	ldr	r0, [pc, #396]	; (8081734 <setup+0x290>)
 80815a6:	f000 fed8 	bl	808235a <_ZN10CloudClass17register_functionEPFiPvPKcS0_ES0_S2_>
 80815aa:	4a67      	ldr	r2, [pc, #412]	; (8081748 <setup+0x2a4>)
 80815ac:	4967      	ldr	r1, [pc, #412]	; (808174c <setup+0x2a8>)
 80815ae:	4861      	ldr	r0, [pc, #388]	; (8081734 <setup+0x290>)
 80815b0:	f000 fed3 	bl	808235a <_ZN10CloudClass17register_functionEPFiPvPKcS0_ES0_S2_>
  Particle.function("Verbose-Mode",setVerboseMode);
 80815b4:	4966      	ldr	r1, [pc, #408]	; (8081750 <setup+0x2ac>)
 80815b6:	4867      	ldr	r0, [pc, #412]	; (8081754 <setup+0x2b0>)
 80815b8:	f7ff ff6e 	bl	8081498 <_ZN10CloudClass8functionIA13_cJPFi6StringEEEEbRKT_DpT0_>
  Particle.function("Set-Timezone",setTimeZone);
 80815bc:	4966      	ldr	r1, [pc, #408]	; (8081758 <setup+0x2b4>)
 80815be:	4867      	ldr	r0, [pc, #412]	; (808175c <setup+0x2b8>)
 80815c0:	f7ff ff6a 	bl	8081498 <_ZN10CloudClass8functionIA13_cJPFi6StringEEEEbRKT_DpT0_>
  Particle.function("SetPumpState",setPumpingState);
 80815c4:	4966      	ldr	r1, [pc, #408]	; (8081760 <setup+0x2bc>)
 80815c6:	4867      	ldr	r0, [pc, #412]	; (8081764 <setup+0x2c0>)
 80815c8:	f7ff ff66 	bl	8081498 <_ZN10CloudClass8functionIA13_cJPFi6StringEEEEbRKT_DpT0_>
  if (!fram.begin()) {                                                  // You can stick the new i2c addr in here, e.g. begin(0x51);
 80815cc:	2150      	movs	r1, #80	; 0x50
 80815ce:	4866      	ldr	r0, [pc, #408]	; (8081768 <setup+0x2c4>)
 80815d0:	f7fe fe05 	bl	80801de <_ZN17Adafruit_FRAM_I2C5beginEh>
 80815d4:	4d65      	ldr	r5, [pc, #404]	; (808176c <setup+0x2c8>)
 80815d6:	2800      	cmp	r0, #0
 80815d8:	d176      	bne.n	80816c8 <setup+0x224>
 80815da:	f000 fa01 	bl	80819e0 <HAL_Timer_Get_Milli_Seconds>
      resetTimeStamp = millis();
 80815de:	4b64      	ldr	r3, [pc, #400]	; (8081770 <setup+0x2cc>)
 80815e0:	6018      	str	r0, [r3, #0]
      state = ERROR_STATE;   // Resetting did not fix the issue
 80815e2:	2301      	movs	r3, #1
 80815e4:	702b      	strb	r3, [r5, #0]
  resetCount = FRAMread8(RESETCOUNT);                                   // Retrive system recount data from FRAM
 80815e6:	2002      	movs	r0, #2
 80815e8:	f7fe fe9c 	bl	8080324 <_Z9FRAMread8j>
        int reason = RESET_REASON_NONE;
 80815ec:	2200      	movs	r2, #0
 80815ee:	4c45      	ldr	r4, [pc, #276]	; (8081704 <setup+0x260>)
        HAL_Core_Get_Last_Reset_Info(&reason, nullptr, nullptr);
 80815f0:	4611      	mov	r1, r2
 80815f2:	6020      	str	r0, [r4, #0]
 80815f4:	a802      	add	r0, sp, #8
        int reason = RESET_REASON_NONE;
 80815f6:	9202      	str	r2, [sp, #8]
        HAL_Core_Get_Last_Reset_Info(&reason, nullptr, nullptr);
 80815f8:	f000 f9da 	bl	80819b0 <HAL_Core_Get_Last_Reset_Info>
        return reason;
 80815fc:	9b02      	ldr	r3, [sp, #8]
  if (System.resetReason() == RESET_REASON_PIN_RESET)                   // Check to see if we are starting from a pin reset
 80815fe:	2b14      	cmp	r3, #20
 8081600:	d106      	bne.n	8081610 <setup+0x16c>
    resetCount++;
 8081602:	6821      	ldr	r1, [r4, #0]
    FRAMwrite8(RESETCOUNT,static_cast<uint8_t>(resetCount));            // If so, store incremented number - watchdog must have done This
 8081604:	2002      	movs	r0, #2
    resetCount++;
 8081606:	3101      	adds	r1, #1
 8081608:	6021      	str	r1, [r4, #0]
    FRAMwrite8(RESETCOUNT,static_cast<uint8_t>(resetCount));            // If so, store incremented number - watchdog must have done This
 808160a:	b2c9      	uxtb	r1, r1
 808160c:	f7fe fe90 	bl	8080330 <_Z10FRAMwrite8jh>
  if (resetCount >=6) {                                                 // If we get to resetCount 4, we are resetting without entering the main loop
 8081610:	6823      	ldr	r3, [r4, #0]
 8081612:	2b05      	cmp	r3, #5
 8081614:	dd05      	ble.n	8081622 <setup+0x17e>
    FRAMwrite8(RESETCOUNT,4);                                            // The hope here is to get to the main loop and report a value of 4 which will indicate this issue is occuring
 8081616:	2104      	movs	r1, #4
 8081618:	2002      	movs	r0, #2
 808161a:	f7fe fe89 	bl	8080330 <_Z10FRAMwrite8jh>
    fullModemReset();                                                   // This will reset the modem and the device will reboot
 808161e:	f7ff f89d 	bl	808075c <_Z14fullModemResetv>
  int8_t tempTimeZoneOffset = FRAMread8(TIMEZONE);                  // Load Time zone data from FRAM
 8081622:	2004      	movs	r0, #4
 8081624:	f7fe fe7e 	bl	8080324 <_Z9FRAMread8j>
  if (tempTimeZoneOffset > -12 && tempTimeZoneOffset < 12) Time.zone((float)tempTimeZoneOffset);
 8081628:	f100 030b 	add.w	r3, r0, #11
 808162c:	b2db      	uxtb	r3, r3
 808162e:	2b16      	cmp	r3, #22
 8081630:	d85c      	bhi.n	80816ec <setup+0x248>
 8081632:	b240      	sxtb	r0, r0
 8081634:	f004 f822 	bl	808567c <__aeabi_i2f>
  else Time.zone(-5);                                               // Defaults to EST if invalid value in FRAM
 8081638:	f002 ff3e 	bl	80844b8 <_ZN9TimeClass4zoneEf>
  controlRegister = FRAMread8(CONTROLREGISTER);                         // Read the Control Register for system modes so they stick even after reset
 808163c:	2007      	movs	r0, #7
 808163e:	f7fe fe71 	bl	8080324 <_Z9FRAMread8j>
 8081642:	4c4c      	ldr	r4, [pc, #304]	; (8081774 <setup+0x2d0>)
  verboseMode = (0b00001000 & controlRegister);                         // verboseMode
 8081644:	4b4c      	ldr	r3, [pc, #304]	; (8081778 <setup+0x2d4>)
  controlRegister = FRAMread8(CONTROLREGISTER);                         // Read the Control Register for system modes so they stick even after reset
 8081646:	7020      	strb	r0, [r4, #0]
  verboseMode = (0b00001000 & controlRegister);                         // verboseMode
 8081648:	f3c0 00c0 	ubfx	r0, r0, #3, #1
 808164c:	7018      	strb	r0, [r3, #0]
  dailyPumpingMins = FRAMread16(DAILYPUMPMINUTES);                      // Reload so we don't loose track
 808164e:	2014      	movs	r0, #20
 8081650:	f7fe fe76 	bl	8080340 <_Z10FRAMread16j>
 8081654:	4b33      	ldr	r3, [pc, #204]	; (8081724 <setup+0x280>)
 8081656:	6018      	str	r0, [r3, #0]
  if (controlRegister & 0b00000010) {                                   // This means we reset while pumpting
 8081658:	7823      	ldrb	r3, [r4, #0]
 808165a:	079b      	lsls	r3, r3, #30
 808165c:	d506      	bpl.n	808166c <setup+0x1c8>
    pumpingStart = FRAMread32(CURRENTCOUNTSTIME);                       // Reload the pumping start time
 808165e:	200e      	movs	r0, #14
 8081660:	f7fe feb2 	bl	80803c8 <_Z10FRAMread32m>
 8081664:	2200      	movs	r2, #0
 8081666:	4b45      	ldr	r3, [pc, #276]	; (808177c <setup+0x2d8>)
 8081668:	6018      	str	r0, [r3, #0]
 808166a:	605a      	str	r2, [r3, #4]
  stateOfCharge = int(batteryMonitor.getSoC());                         // Percentage of full charge
 808166c:	4844      	ldr	r0, [pc, #272]	; (8081780 <setup+0x2dc>)
 808166e:	f001 f969 	bl	8082944 <_ZN9FuelGauge6getSoCEv>
 8081672:	f004 fa1d 	bl	8085ab0 <__aeabi_f2iz>
 8081676:	4b29      	ldr	r3, [pc, #164]	; (808171c <setup+0x278>)
 8081678:	6018      	str	r0, [r3, #0]
  if (stateOfCharge > lowBattLimit) connectToParticle();                // If not low battery, we can connect
 808167a:	4b42      	ldr	r3, [pc, #264]	; (8081784 <setup+0x2e0>)
 808167c:	681b      	ldr	r3, [r3, #0]
 808167e:	4298      	cmp	r0, r3
 8081680:	dd01      	ble.n	8081686 <setup+0x1e2>
 8081682:	f7fe ff61 	bl	8080548 <_Z17connectToParticlev>
  attachInterrupt(wakeUpPin, watchdogISR, RISING);   // The watchdog timer will signal us and we have to respond
 8081686:	2400      	movs	r4, #0
 8081688:	f04f 33ff 	mov.w	r3, #4294967295	; 0xffffffff
 808168c:	2201      	movs	r2, #1
 808168e:	493e      	ldr	r1, [pc, #248]	; (8081788 <setup+0x2e4>)
 8081690:	9400      	str	r4, [sp, #0]
 8081692:	2011      	movs	r0, #17
 8081694:	f001 fa2a 	bl	8082aec <_Z15attachInterrupttPFvvE13InterruptModeah>
  if (state != ERROR_STATE) state = IDLE_STATE;                         // IDLE unless error from above code
 8081698:	782b      	ldrb	r3, [r5, #0]
        spark_set_connection_property(SPARK_CLOUD_PING_INTERVAL, sec * 1000, &conn_prop, nullptr);
 808169a:	f64e 2160 	movw	r1, #60000	; 0xea60
 808169e:	2b01      	cmp	r3, #1
 80816a0:	bf1c      	itt	ne
 80816a2:	2302      	movne	r3, #2
 80816a4:	702b      	strbne	r3, [r5, #0]
        conn_prop.size = sizeof(conn_prop);
 80816a6:	2308      	movs	r3, #8
 80816a8:	f8ad 3008 	strh.w	r3, [sp, #8]
        conn_prop.keepalive_source = particle::protocol::KeepAliveSource::USER;
 80816ac:	2301      	movs	r3, #1
 80816ae:	9303      	str	r3, [sp, #12]
        spark_set_connection_property(SPARK_CLOUD_PING_INTERVAL, sec * 1000, &conn_prop, nullptr);
 80816b0:	2300      	movs	r3, #0
 80816b2:	aa02      	add	r2, sp, #8
 80816b4:	4618      	mov	r0, r3
        particle::protocol::connection_properties_t conn_prop = {0};
 80816b6:	f8ad 400a 	strh.w	r4, [sp, #10]
        spark_set_connection_property(SPARK_CLOUD_PING_INTERVAL, sec * 1000, &conn_prop, nullptr);
 80816ba:	f000 fbd1 	bl	8081e60 <spark_set_connection_property>
  String deviceID = System.deviceID();                                // Multiple Electrons share the same hook - keeps things straight
 80816be:	a804      	add	r0, sp, #16
 80816c0:	f002 fd63 	bl	808418a <_ZN6StringD1Ev>
}
 80816c4:	b029      	add	sp, #164	; 0xa4
 80816c6:	bd30      	pop	{r4, r5, pc}
  else if (FRAMread8(VERSIONADDR) != VERSIONNUMBER) {                   // Check to see if the memory map in the sketch matches the data on the chip
 80816c8:	4620      	mov	r0, r4
 80816ca:	f7fe fe2b 	bl	8080324 <_Z9FRAMread8j>
 80816ce:	2809      	cmp	r0, #9
 80816d0:	d089      	beq.n	80815e6 <setup+0x142>
    ResetFRAM();                                                        // Reset the FRAM to correct the issue
 80816d2:	f7ff f889 	bl	80807e8 <_Z9ResetFRAMv>
    if (FRAMread8(VERSIONADDR) != VERSIONNUMBER) {
 80816d6:	4620      	mov	r0, r4
 80816d8:	f7fe fe24 	bl	8080324 <_Z9FRAMread8j>
 80816dc:	2809      	cmp	r0, #9
 80816de:	f47f af7c 	bne.w	80815da <setup+0x136>
      FRAMwrite8(CONTROLREGISTER,0);                                    // Need to reset so not in low power or low battery mode
 80816e2:	4621      	mov	r1, r4
 80816e4:	2007      	movs	r0, #7
 80816e6:	f7fe fe23 	bl	8080330 <_Z10FRAMwrite8jh>
 80816ea:	e77c      	b.n	80815e6 <setup+0x142>
  else Time.zone(-5);                                               // Defaults to EST if invalid value in FRAM
 80816ec:	4827      	ldr	r0, [pc, #156]	; (808178c <setup+0x2e8>)
 80816ee:	e7a3      	b.n	8081638 <setup+0x194>
 80816f0:	08080a15 	.word	0x08080a15
 80816f4:	20000124 	.word	0x20000124
 80816f8:	080860b5 	.word	0x080860b5
 80816fc:	40024000 	.word	0x40024000
 8081700:	080862ca 	.word	0x080862ca
 8081704:	20000178 	.word	0x20000178
 8081708:	080862d1 	.word	0x080862d1
 808170c:	20000190 	.word	0x20000190
 8081710:	080862dc 	.word	0x080862dc
 8081714:	2000000c 	.word	0x2000000c
 8081718:	080862e8 	.word	0x080862e8
 808171c:	20000184 	.word	0x20000184
 8081720:	080862f0 	.word	0x080862f0
 8081724:	20000134 	.word	0x20000134
 8081728:	080862fb 	.word	0x080862fb
 808172c:	08086307 	.word	0x08086307
 8081730:	08080899 	.word	0x08080899
 8081734:	0808232f 	.word	0x0808232f
 8081738:	0808038d 	.word	0x0808038d
 808173c:	08086312 	.word	0x08086312
 8081740:	0808631f 	.word	0x0808631f
 8081744:	08080261 	.word	0x08080261
 8081748:	0808632a 	.word	0x0808632a
 808174c:	08080221 	.word	0x08080221
 8081750:	08080ee9 	.word	0x08080ee9
 8081754:	08086333 	.word	0x08086333
 8081758:	08081069 	.word	0x08081069
 808175c:	08086340 	.word	0x08086340
 8081760:	08080f9d 	.word	0x08080f9d
 8081764:	0808634d 	.word	0x0808634d
 8081768:	20000139 	.word	0x20000139
 808176c:	20000180 	.word	0x20000180
 8081770:	2000017c 	.word	0x2000017c
 8081774:	20000130 	.word	0x20000130
 8081778:	20000194 	.word	0x20000194
 808177c:	20000170 	.word	0x20000170
 8081780:	20000128 	.word	0x20000128
 8081784:	20000000 	.word	0x20000000
 8081788:	0808023d 	.word	0x0808023d
 808178c:	c0a00000 	.word	0xc0a00000

08081790 <_ZN5spark6VectorINS_17LogCategoryFilterENS_16DefaultAllocatorEE4moveIS1_Li0EEEvPS1_S5_S5_>:
        if (dest > p && dest < end) {
 8081790:	4288      	cmp	r0, r1
    static void move(T* dest, T* p, T* end) {
 8081792:	b5f8      	push	{r3, r4, r5, r6, r7, lr}
 8081794:	4604      	mov	r4, r0
 8081796:	460d      	mov	r5, r1
 8081798:	4616      	mov	r6, r2
        if (dest > p && dest < end) {
 808179a:	d916      	bls.n	80817ca <_ZN5spark6VectorINS_17LogCategoryFilterENS_16DefaultAllocatorEE4moveIS1_Li0EEEvPS1_S5_S5_+0x3a>
 808179c:	4290      	cmp	r0, r2
 808179e:	d215      	bcs.n	80817cc <_ZN5spark6VectorINS_17LogCategoryFilterENS_16DefaultAllocatorEE4moveIS1_Li0EEEvPS1_S5_S5_+0x3c>
            --end;
 80817a0:	f1a2 0614 	sub.w	r6, r2, #20
            dest += end - p - 1;
 80817a4:	1a75      	subs	r5, r6, r1
 80817a6:	f1a1 0714 	sub.w	r7, r1, #20
 80817aa:	442c      	add	r4, r5
            for (; end != p; --end, --dest) {
 80817ac:	42b7      	cmp	r7, r6
 80817ae:	d01c      	beq.n	80817ea <_ZN5spark6VectorINS_17LogCategoryFilterENS_16DefaultAllocatorEE4moveIS1_Li0EEEvPS1_S5_S5_+0x5a>
                new(dest) T(std::move(*end));
 80817b0:	b12c      	cbz	r4, 80817be <_ZN5spark6VectorINS_17LogCategoryFilterENS_16DefaultAllocatorEE4moveIS1_Li0EEEvPS1_S5_S5_+0x2e>
 80817b2:	4631      	mov	r1, r6
 80817b4:	4620      	mov	r0, r4
 80817b6:	f002 fd62 	bl	808427e <_ZN6StringC1EOS_>
 80817ba:	7c33      	ldrb	r3, [r6, #16]
 80817bc:	7423      	strb	r3, [r4, #16]
 80817be:	4630      	mov	r0, r6
 80817c0:	f002 fce3 	bl	808418a <_ZN6StringD1Ev>
            for (; end != p; --end, --dest) {
 80817c4:	3e14      	subs	r6, #20
 80817c6:	3c14      	subs	r4, #20
 80817c8:	e7f0      	b.n	80817ac <_ZN5spark6VectorINS_17LogCategoryFilterENS_16DefaultAllocatorEE4moveIS1_Li0EEEvPS1_S5_S5_+0x1c>
        } else if (dest != p) {
 80817ca:	d00e      	beq.n	80817ea <_ZN5spark6VectorINS_17LogCategoryFilterENS_16DefaultAllocatorEE4moveIS1_Li0EEEvPS1_S5_S5_+0x5a>
            for (; p != end; ++p, ++dest) {
 80817cc:	42b5      	cmp	r5, r6
 80817ce:	d00c      	beq.n	80817ea <_ZN5spark6VectorINS_17LogCategoryFilterENS_16DefaultAllocatorEE4moveIS1_Li0EEEvPS1_S5_S5_+0x5a>
                new(dest) T(std::move(*p));
 80817d0:	b12c      	cbz	r4, 80817de <_ZN5spark6VectorINS_17LogCategoryFilterENS_16DefaultAllocatorEE4moveIS1_Li0EEEvPS1_S5_S5_+0x4e>
 80817d2:	4629      	mov	r1, r5
 80817d4:	4620      	mov	r0, r4
 80817d6:	f002 fd52 	bl	808427e <_ZN6StringC1EOS_>
 80817da:	7c2b      	ldrb	r3, [r5, #16]
 80817dc:	7423      	strb	r3, [r4, #16]
 80817de:	4628      	mov	r0, r5
 80817e0:	f002 fcd3 	bl	808418a <_ZN6StringD1Ev>
            for (; p != end; ++p, ++dest) {
 80817e4:	3514      	adds	r5, #20
 80817e6:	3414      	adds	r4, #20
 80817e8:	e7f0      	b.n	80817cc <_ZN5spark6VectorINS_17LogCategoryFilterENS_16DefaultAllocatorEE4moveIS1_Li0EEEvPS1_S5_S5_+0x3c>
    }
 80817ea:	bdf8      	pop	{r3, r4, r5, r6, r7, pc}

080817ec <_ZN5spark6VectorINS_17LogCategoryFilterENS_16DefaultAllocatorEEC1ERKS3_>:
        capacity_(0) {
 80817ec:	2300      	movs	r3, #0
inline spark::Vector<T, AllocatorT>::Vector(const Vector<T, AllocatorT>& vector) : Vector() {
 80817ee:	e92d 41f0 	stmdb	sp!, {r4, r5, r6, r7, r8, lr}
        capacity_(0) {
 80817f2:	e9c0 3300 	strd	r3, r3, [r0]
 80817f6:	6083      	str	r3, [r0, #8]
    if (vector.size_ > 0 && realloc(vector.size_)) {
 80817f8:	684f      	ldr	r7, [r1, #4]
inline spark::Vector<T, AllocatorT>::Vector(const Vector<T, AllocatorT>& vector) : Vector() {
 80817fa:	4604      	mov	r4, r0
    if (vector.size_ > 0 && realloc(vector.size_)) {
 80817fc:	429f      	cmp	r7, r3
inline spark::Vector<T, AllocatorT>::Vector(const Vector<T, AllocatorT>& vector) : Vector() {
 80817fe:	460e      	mov	r6, r1
    if (vector.size_ > 0 && realloc(vector.size_)) {
 8081800:	dd24      	ble.n	808184c <_ZN5spark6VectorINS_17LogCategoryFilterENS_16DefaultAllocatorEEC1ERKS3_+0x60>
            d = (T*)AllocatorT::malloc(n * sizeof(T));
 8081802:	f04f 0814 	mov.w	r8, #20
    return ::malloc(size);
 8081806:	fb08 f007 	mul.w	r0, r8, r7
 808180a:	f000 fba1 	bl	8081f50 <malloc>
            if (!d) {
 808180e:	4605      	mov	r5, r0
 8081810:	b1e0      	cbz	r0, 808184c <_ZN5spark6VectorINS_17LogCategoryFilterENS_16DefaultAllocatorEEC1ERKS3_+0x60>
            move(d, data_, data_ + size_);
 8081812:	e9d4 1200 	ldrd	r1, r2, [r4]
 8081816:	fb08 1202 	mla	r2, r8, r2, r1
 808181a:	f7ff ffb9 	bl	8081790 <_ZN5spark6VectorINS_17LogCategoryFilterENS_16DefaultAllocatorEE4moveIS1_Li0EEEvPS1_S5_S5_>
    ::free(ptr);
 808181e:	6820      	ldr	r0, [r4, #0]
 8081820:	f000 fb9e 	bl	8081f60 <free>
        data_ = d;
 8081824:	6025      	str	r5, [r4, #0]
        capacity_ = n;
 8081826:	60a7      	str	r7, [r4, #8]
        copy(data_, vector.data_, vector.data_ + vector.size_);
 8081828:	e9d6 7300 	ldrd	r7, r3, [r6]
 808182c:	fb08 7803 	mla	r8, r8, r3, r7
        for (; it != end; ++it, ++dest) {
 8081830:	45b8      	cmp	r8, r7
 8081832:	d009      	beq.n	8081848 <_ZN5spark6VectorINS_17LogCategoryFilterENS_16DefaultAllocatorEEC1ERKS3_+0x5c>
 8081834:	4639      	mov	r1, r7
 8081836:	4628      	mov	r0, r5
 8081838:	f002 fd3b 	bl	80842b2 <_ZN6StringC1ERKS_>
 808183c:	7c3b      	ldrb	r3, [r7, #16]
 808183e:	3514      	adds	r5, #20
 8081840:	f805 3c04 	strb.w	r3, [r5, #-4]
 8081844:	3714      	adds	r7, #20
 8081846:	e7f3      	b.n	8081830 <_ZN5spark6VectorINS_17LogCategoryFilterENS_16DefaultAllocatorEEC1ERKS3_+0x44>
        size_ = vector.size_;
 8081848:	6873      	ldr	r3, [r6, #4]
 808184a:	6063      	str	r3, [r4, #4]
}
 808184c:	4620      	mov	r0, r4
 808184e:	e8bd 81f0 	ldmia.w	sp!, {r4, r5, r6, r7, r8, pc}
	...

08081854 <_GLOBAL__sub_I_fram>:
}
 8081854:	e92d 41f0 	stmdb	sp!, {r4, r5, r6, r7, r8, lr}
        val_(val) {
 8081858:	2400      	movs	r4, #0
 808185a:	2601      	movs	r6, #1
 808185c:	4b2d      	ldr	r3, [pc, #180]	; (8081914 <_GLOBAL__sub_I_fram+0xc0>)
 808185e:	b08c      	sub	sp, #48	; 0x30
 8081860:	601c      	str	r4, [r3, #0]
 8081862:	4b2d      	ldr	r3, [pc, #180]	; (8081918 <_GLOBAL__sub_I_fram+0xc4>)
Adafruit_FRAM_I2C fram = Adafruit_FRAM_I2C(); // Init the FRAM
 8081864:	482d      	ldr	r0, [pc, #180]	; (808191c <_GLOBAL__sub_I_fram+0xc8>)
 8081866:	701e      	strb	r6, [r3, #0]
 8081868:	f7fe fc3c 	bl	80800e4 <_ZN17Adafruit_FRAM_I2CC1Ev>
        capacity_(0) {
 808186c:	e9cd 4400 	strd	r4, r4, [sp]
 8081870:	9402      	str	r4, [sp, #8]
            StreamLogHandler(Serial, level, filters) {
 8081872:	f002 ffb7 	bl	80847e4 <_Z16_fetch_usbserialv>
        filter_(level, filters) {
 8081876:	4d2a      	ldr	r5, [pc, #168]	; (8081920 <_GLOBAL__sub_I_fram+0xcc>)
 8081878:	4607      	mov	r7, r0
 808187a:	46a8      	mov	r8, r5
 808187c:	4669      	mov	r1, sp
 808187e:	a803      	add	r0, sp, #12
 8081880:	f7ff ffb4 	bl	80817ec <_ZN5spark6VectorINS_17LogCategoryFilterENS_16DefaultAllocatorEEC1ERKS3_>
        stream_(&stream) {
 8081884:	a903      	add	r1, sp, #12
 8081886:	a806      	add	r0, sp, #24
 8081888:	f7ff ffb0 	bl	80817ec <_ZN5spark6VectorINS_17LogCategoryFilterENS_16DefaultAllocatorEEC1ERKS3_>
        filter_(level, filters) {
 808188c:	4b25      	ldr	r3, [pc, #148]	; (8081924 <_GLOBAL__sub_I_fram+0xd0>)
 808188e:	a906      	add	r1, sp, #24
 8081890:	f848 3b04 	str.w	r3, [r8], #4
 8081894:	a809      	add	r0, sp, #36	; 0x24
 8081896:	f7ff ffa9 	bl	80817ec <_ZN5spark6VectorINS_17LogCategoryFilterENS_16DefaultAllocatorEEC1ERKS3_>
 808189a:	aa09      	add	r2, sp, #36	; 0x24
 808189c:	211e      	movs	r1, #30
 808189e:	4640      	mov	r0, r8
 80818a0:	f002 f83a 	bl	8083918 <_ZN5spark6detail9LogFilterC1E8LogLevelNS_6VectorINS_17LogCategoryFilterENS_16DefaultAllocatorEEE>
 80818a4:	a809      	add	r0, sp, #36	; 0x24
 80818a6:	f7ff fde3 	bl	8081470 <_ZN5spark6VectorINS_17LogCategoryFilterENS_16DefaultAllocatorEED1Ev>
        stream_(&stream) {
 80818aa:	a806      	add	r0, sp, #24
 80818ac:	f7ff fde0 	bl	8081470 <_ZN5spark6VectorINS_17LogCategoryFilterENS_16DefaultAllocatorEED1Ev>
 80818b0:	4b1d      	ldr	r3, [pc, #116]	; (8081928 <_GLOBAL__sub_I_fram+0xd4>)
 80818b2:	a803      	add	r0, sp, #12
 80818b4:	602b      	str	r3, [r5, #0]
 80818b6:	622f      	str	r7, [r5, #32]
 80818b8:	f7ff fdda 	bl	8081470 <_ZN5spark6VectorINS_17LogCategoryFilterENS_16DefaultAllocatorEED1Ev>
 80818bc:	4b1b      	ldr	r3, [pc, #108]	; (808192c <_GLOBAL__sub_I_fram+0xd8>)
 80818be:	602b      	str	r3, [r5, #0]
        Serial.begin();
 80818c0:	f002 ff90 	bl	80847e4 <_Z16_fetch_usbserialv>
 80818c4:	f44f 5116 	mov.w	r1, #9600	; 0x2580
 80818c8:	f002 ff6e 	bl	80847a8 <_ZN9USBSerial5beginEl>
        LogManager::instance()->addHandler(this);
 80818cc:	f001 fcbc 	bl	8083248 <_ZN5spark10LogManager8instanceEv>
 80818d0:	4629      	mov	r1, r5
 80818d2:	f001 ffb4 	bl	808383e <_ZN5spark10LogManager10addHandlerEPNS_10LogHandlerE>
SerialLogHandler logHandler(LOG_LEVEL_INFO);
 80818d6:	4668      	mov	r0, sp
 80818d8:	f7ff fdca 	bl	8081470 <_ZN5spark6VectorINS_17LogCategoryFilterENS_16DefaultAllocatorEED1Ev>
              error_(SYSTEM_ERROR_NONE) {
 80818dc:	4b14      	ldr	r3, [pc, #80]	; (8081930 <_GLOBAL__sub_I_fram+0xdc>)
    SleepResult() {}
 80818de:	4a15      	ldr	r2, [pc, #84]	; (8081934 <_GLOBAL__sub_I_fram+0xe0>)
              error_(SYSTEM_ERROR_NONE) {
 80818e0:	601c      	str	r4, [r3, #0]
 80818e2:	809c      	strh	r4, [r3, #4]
    SleepResult() {}
 80818e4:	719c      	strb	r4, [r3, #6]
 80818e6:	609a      	str	r2, [r3, #8]
        set_system_mode(mode);
 80818e8:	2002      	movs	r0, #2
 80818ea:	f000 fa13 	bl	8081d14 <set_system_mode>
SYSTEM_THREAD(ENABLED);         // Means my code will not be held up by Particle processes.
 80818ee:	4621      	mov	r1, r4
 80818f0:	4630      	mov	r0, r6
 80818f2:	f000 fa27 	bl	8081d44 <system_thread_set_state>
        return HAL_Feature_Set(feature, true);
 80818f6:	4631      	mov	r1, r6
 80818f8:	2004      	movs	r0, #4
 80818fa:	f000 f851 	bl	80819a0 <HAL_Feature_Set>
FuelGauge batteryMonitor;       // Prototype for the fuel gauge (included in Particle core library)
 80818fe:	4621      	mov	r1, r4
 8081900:	480d      	ldr	r0, [pc, #52]	; (8081938 <_GLOBAL__sub_I_fram+0xe4>)
 8081902:	f000 ffd1 	bl	80828a8 <_ZN9FuelGaugeC1Eb>
PMIC power;                      //Initalize the PMIC class so you can call the Power Management functions below.
 8081906:	4621      	mov	r1, r4
 8081908:	480c      	ldr	r0, [pc, #48]	; (808193c <_GLOBAL__sub_I_fram+0xe8>)
 808190a:	f002 fb94 	bl	8084036 <_ZN4PMICC1Eb>
}
 808190e:	b00c      	add	sp, #48	; 0x30
 8081910:	e8bd 81f0 	ldmia.w	sp!, {r4, r5, r6, r7, r8, pc}
 8081914:	20000114 	.word	0x20000114
 8081918:	20000118 	.word	0x20000118
 808191c:	20000139 	.word	0x20000139
 8081920:	20000148 	.word	0x20000148
 8081924:	08086364 	.word	0x08086364
 8081928:	08086520 	.word	0x08086520
 808192c:	0808637c 	.word	0x0808637c
 8081930:	20000108 	.word	0x20000108
 8081934:	ffff0000 	.word	0xffff0000
 8081938:	20000128 	.word	0x20000128
 808193c:	2000016d 	.word	0x2000016d

08081940 <inet_gethostbyname>:
DYNALIB_FN(10, hal_cellular, cellular_credentials_set, cellular_result_t(const char*, const char*, const char*, void*))
DYNALIB_FN(11, hal_cellular, cellular_credentials_get, CellularCredentials*(void*))
DYNALIB_FN(12, hal_cellular, cellular_sim_ready, bool(void*))
DYNALIB_FN(13, hal_cellular, cellular_cancel, void(bool, bool, void*))
DYNALIB_FN(14, hal_cellular, HAL_NET_SetNetWatchDog, uint32_t(uint32_t))
DYNALIB_FN(15, hal_cellular, inet_gethostbyname, int(const char*, uint16_t, HAL_IPAddress*, network_interface_t, void*))
 8081940:	b508      	push	{r3, lr}
 8081942:	4b02      	ldr	r3, [pc, #8]	; (808194c <inet_gethostbyname+0xc>)
 8081944:	681b      	ldr	r3, [r3, #0]
 8081946:	6bdb      	ldr	r3, [r3, #60]	; 0x3c
 8081948:	9301      	str	r3, [sp, #4]
 808194a:	bd08      	pop	{r3, pc}
 808194c:	08060020 	.word	0x08060020

08081950 <cellular_signal>:
DYNALIB_FN(16, hal_cellular, inet_ping, int(const HAL_IPAddress*, network_interface_t, uint8_t, void*))
DYNALIB_FN(17, hal_cellular, cellular_signal, cellular_result_t(CellularSignalHal*, cellular_signal_t*))
 8081950:	b508      	push	{r3, lr}
 8081952:	4b02      	ldr	r3, [pc, #8]	; (808195c <cellular_signal+0xc>)
 8081954:	681b      	ldr	r3, [r3, #0]
 8081956:	6c5b      	ldr	r3, [r3, #68]	; 0x44
 8081958:	9301      	str	r3, [sp, #4]
 808195a:	bd08      	pop	{r3, pc}
 808195c:	08060020 	.word	0x08060020

08081960 <os_mutex_recursive_create>:
DYNALIB_FN(13, hal_concurrent, os_mutex_destroy, int(os_mutex_t))
DYNALIB_FN(14, hal_concurrent, os_mutex_lock, int(os_mutex_t))
DYNALIB_FN(15, hal_concurrent, os_mutex_trylock, int(os_mutex_t))
DYNALIB_FN(16, hal_concurrent, os_mutex_unlock, int(os_mutex_t))

DYNALIB_FN(17, hal_concurrent, os_mutex_recursive_create, int(os_mutex_recursive_t*))
 8081960:	b508      	push	{r3, lr}
 8081962:	4b02      	ldr	r3, [pc, #8]	; (808196c <os_mutex_recursive_create+0xc>)
 8081964:	681b      	ldr	r3, [r3, #0]
 8081966:	6c5b      	ldr	r3, [r3, #68]	; 0x44
 8081968:	9301      	str	r3, [sp, #4]
 808196a:	bd08      	pop	{r3, pc}
 808196c:	080401d0 	.word	0x080401d0

08081970 <os_mutex_recursive_destroy>:
DYNALIB_FN(18, hal_concurrent, os_mutex_recursive_destroy, int(os_mutex_recursive_t))
 8081970:	b508      	push	{r3, lr}
 8081972:	4b02      	ldr	r3, [pc, #8]	; (808197c <os_mutex_recursive_destroy+0xc>)
 8081974:	681b      	ldr	r3, [r3, #0]
 8081976:	6c9b      	ldr	r3, [r3, #72]	; 0x48
 8081978:	9301      	str	r3, [sp, #4]
 808197a:	bd08      	pop	{r3, pc}
 808197c:	080401d0 	.word	0x080401d0

08081980 <os_mutex_recursive_lock>:
DYNALIB_FN(19, hal_concurrent, os_mutex_recursive_lock, int(os_mutex_recursive_t))
 8081980:	b508      	push	{r3, lr}
 8081982:	4b02      	ldr	r3, [pc, #8]	; (808198c <os_mutex_recursive_lock+0xc>)
 8081984:	681b      	ldr	r3, [r3, #0]
 8081986:	6cdb      	ldr	r3, [r3, #76]	; 0x4c
 8081988:	9301      	str	r3, [sp, #4]
 808198a:	bd08      	pop	{r3, pc}
 808198c:	080401d0 	.word	0x080401d0

08081990 <os_mutex_recursive_unlock>:
DYNALIB_FN(20, hal_concurrent, os_mutex_recursive_trylock, int(os_mutex_recursive_t))
DYNALIB_FN(21, hal_concurrent, os_mutex_recursive_unlock, int(os_mutex_recursive_t))
 8081990:	b508      	push	{r3, lr}
 8081992:	4b02      	ldr	r3, [pc, #8]	; (808199c <os_mutex_recursive_unlock+0xc>)
 8081994:	681b      	ldr	r3, [r3, #0]
 8081996:	6d5b      	ldr	r3, [r3, #84]	; 0x54
 8081998:	9301      	str	r3, [sp, #4]
 808199a:	bd08      	pop	{r3, pc}
 808199c:	080401d0 	.word	0x080401d0

080819a0 <HAL_Feature_Set>:
DYNALIB_FN(20, hal_core, HAL_Core_System_Reset_FlagSet, bool(RESET_TypeDef))
DYNALIB_FN(21, hal_core, HAL_Core_Runtime_Info, uint32_t(runtime_info_t*, void*))
DYNALIB_FN(22, hal_core, HAL_Set_System_Config, int(hal_system_config_t, const void*, unsigned))
DYNALIB_FN(23, hal_core, HAL_Core_Enter_Safe_Mode, void(void*))
DYNALIB_FN(24, hal_core, HAL_Feature_Get, bool(HAL_Feature))
DYNALIB_FN(25, hal_core, HAL_Feature_Set, int(HAL_Feature, bool))
 80819a0:	b508      	push	{r3, lr}
 80819a2:	4b02      	ldr	r3, [pc, #8]	; (80819ac <HAL_Feature_Set+0xc>)
 80819a4:	681b      	ldr	r3, [r3, #0]
 80819a6:	6e5b      	ldr	r3, [r3, #100]	; 0x64
 80819a8:	9301      	str	r3, [sp, #4]
 80819aa:	bd08      	pop	{r3, pc}
 80819ac:	080401b8 	.word	0x080401b8

080819b0 <HAL_Core_Get_Last_Reset_Info>:
DYNALIB_FN(26, hal_core, HAL_Core_System_Reset_Ex, void(int, uint32_t, void*))
DYNALIB_FN(27, hal_core, HAL_Core_Get_Last_Reset_Info, int(int*, uint32_t*, void*))
 80819b0:	b508      	push	{r3, lr}
 80819b2:	4b02      	ldr	r3, [pc, #8]	; (80819bc <HAL_Core_Get_Last_Reset_Info+0xc>)
 80819b4:	681b      	ldr	r3, [r3, #0]
 80819b6:	6edb      	ldr	r3, [r3, #108]	; 0x6c
 80819b8:	9301      	str	r3, [sp, #4]
 80819ba:	bd08      	pop	{r3, pc}
 80819bc:	080401b8 	.word	0x080401b8

080819c0 <HAL_RNG_GetRandomNumber>:

DYNALIB_BEGIN(hal)

#if PLATFORM_ID > 3
DYNALIB_FN(0, hal, HAL_RNG_Configuration, void(void))
DYNALIB_FN(1, hal, HAL_RNG_GetRandomNumber, uint32_t(void))
 80819c0:	b508      	push	{r3, lr}
 80819c2:	4b02      	ldr	r3, [pc, #8]	; (80819cc <HAL_RNG_GetRandomNumber+0xc>)
 80819c4:	681b      	ldr	r3, [r3, #0]
 80819c6:	685b      	ldr	r3, [r3, #4]
 80819c8:	9301      	str	r3, [sp, #4]
 80819ca:	bd08      	pop	{r3, pc}
 80819cc:	0804019c 	.word	0x0804019c

080819d0 <HAL_Delay_Microseconds>:
#else
#define BASE_IDX 0
#endif

DYNALIB_FN(BASE_IDX + 0, hal, HAL_Delay_Milliseconds, void(uint32_t))
DYNALIB_FN(BASE_IDX + 1, hal, HAL_Delay_Microseconds, void(uint32_t))
 80819d0:	b508      	push	{r3, lr}
 80819d2:	4b02      	ldr	r3, [pc, #8]	; (80819dc <HAL_Delay_Microseconds+0xc>)
 80819d4:	681b      	ldr	r3, [r3, #0]
 80819d6:	68db      	ldr	r3, [r3, #12]
 80819d8:	9301      	str	r3, [sp, #4]
 80819da:	bd08      	pop	{r3, pc}
 80819dc:	0804019c 	.word	0x0804019c

080819e0 <HAL_Timer_Get_Milli_Seconds>:
DYNALIB_FN(BASE_IDX + 2, hal, HAL_Timer_Get_Micro_Seconds, system_tick_t(void))
DYNALIB_FN(BASE_IDX + 3, hal, HAL_Timer_Get_Milli_Seconds, system_tick_t(void))
 80819e0:	b508      	push	{r3, lr}
 80819e2:	4b02      	ldr	r3, [pc, #8]	; (80819ec <HAL_Timer_Get_Milli_Seconds+0xc>)
 80819e4:	681b      	ldr	r3, [r3, #0]
 80819e6:	695b      	ldr	r3, [r3, #20]
 80819e8:	9301      	str	r3, [sp, #4]
 80819ea:	bd08      	pop	{r3, pc}
 80819ec:	0804019c 	.word	0x0804019c

080819f0 <hal_rtc_time_is_valid>:
DYNALIB_FN(BASE_IDX + 15, hal, HAL_EEPROM_Get, void(uint32_t, void *, size_t))
DYNALIB_FN(BASE_IDX + 16, hal, HAL_EEPROM_Put, void(uint32_t, const void *, size_t))
DYNALIB_FN(BASE_IDX + 17, hal, HAL_EEPROM_Clear, void(void))
DYNALIB_FN(BASE_IDX + 18, hal, HAL_EEPROM_Has_Pending_Erase, bool(void))
DYNALIB_FN(BASE_IDX + 19, hal, HAL_EEPROM_Perform_Pending_Erase, void(void))
DYNALIB_FN(BASE_IDX + 20, hal, hal_rtc_time_is_valid, bool(void*))
 80819f0:	b508      	push	{r3, lr}
 80819f2:	4b02      	ldr	r3, [pc, #8]	; (80819fc <hal_rtc_time_is_valid+0xc>)
 80819f4:	681b      	ldr	r3, [r3, #0]
 80819f6:	6d9b      	ldr	r3, [r3, #88]	; 0x58
 80819f8:	9301      	str	r3, [sp, #4]
 80819fa:	bd08      	pop	{r3, pc}
 80819fc:	0804019c 	.word	0x0804019c

08081a00 <hal_timer_millis>:

DYNALIB_FN(BASE_IDX + 21, hal, hal_timer_millis, uint64_t(void*))
 8081a00:	b508      	push	{r3, lr}
 8081a02:	4b02      	ldr	r3, [pc, #8]	; (8081a0c <hal_timer_millis+0xc>)
 8081a04:	681b      	ldr	r3, [r3, #0]
 8081a06:	6ddb      	ldr	r3, [r3, #92]	; 0x5c
 8081a08:	9301      	str	r3, [sp, #4]
 8081a0a:	bd08      	pop	{r3, pc}
 8081a0c:	0804019c 	.word	0x0804019c

08081a10 <hal_rtc_get_time>:
DYNALIB_FN(BASE_IDX + 22, hal, hal_timer_micros, uint64_t(void*))

DYNALIB_FN(BASE_IDX + 23, hal, hal_rtc_get_time, int(struct timeval*, void*))
 8081a10:	b508      	push	{r3, lr}
 8081a12:	4b02      	ldr	r3, [pc, #8]	; (8081a1c <hal_rtc_get_time+0xc>)
 8081a14:	681b      	ldr	r3, [r3, #0]
 8081a16:	6e5b      	ldr	r3, [r3, #100]	; 0x64
 8081a18:	9301      	str	r3, [sp, #4]
 8081a1a:	bd08      	pop	{r3, pc}
 8081a1c:	0804019c 	.word	0x0804019c

08081a20 <HAL_Pin_Map>:
// New HAL functions must be added to the end of this list.
// GNINRAW

DYNALIB_BEGIN(hal_gpio)

DYNALIB_FN(0, hal_gpio, HAL_Pin_Map, Hal_Pin_Info*(void))
 8081a20:	b508      	push	{r3, lr}
 8081a22:	4b02      	ldr	r3, [pc, #8]	; (8081a2c <HAL_Pin_Map+0xc>)
 8081a24:	681b      	ldr	r3, [r3, #0]
 8081a26:	681b      	ldr	r3, [r3, #0]
 8081a28:	9301      	str	r3, [sp, #4]
 8081a2a:	bd08      	pop	{r3, pc}
 8081a2c:	080401b0 	.word	0x080401b0

08081a30 <HAL_Validate_Pin_Function>:
DYNALIB_FN(1, hal_gpio, HAL_Validate_Pin_Function, PinFunction(pin_t, PinFunction))
 8081a30:	b508      	push	{r3, lr}
 8081a32:	4b02      	ldr	r3, [pc, #8]	; (8081a3c <HAL_Validate_Pin_Function+0xc>)
 8081a34:	681b      	ldr	r3, [r3, #0]
 8081a36:	685b      	ldr	r3, [r3, #4]
 8081a38:	9301      	str	r3, [sp, #4]
 8081a3a:	bd08      	pop	{r3, pc}
 8081a3c:	080401b0 	.word	0x080401b0

08081a40 <HAL_Pin_Mode>:
DYNALIB_FN(2, hal_gpio, HAL_Pin_Mode, void(pin_t, PinMode))
 8081a40:	b508      	push	{r3, lr}
 8081a42:	4b02      	ldr	r3, [pc, #8]	; (8081a4c <HAL_Pin_Mode+0xc>)
 8081a44:	681b      	ldr	r3, [r3, #0]
 8081a46:	689b      	ldr	r3, [r3, #8]
 8081a48:	9301      	str	r3, [sp, #4]
 8081a4a:	bd08      	pop	{r3, pc}
 8081a4c:	080401b0 	.word	0x080401b0

08081a50 <HAL_Get_Pin_Mode>:
DYNALIB_FN(3, hal_gpio, HAL_Get_Pin_Mode, PinMode(pin_t))
 8081a50:	b508      	push	{r3, lr}
 8081a52:	4b02      	ldr	r3, [pc, #8]	; (8081a5c <HAL_Get_Pin_Mode+0xc>)
 8081a54:	681b      	ldr	r3, [r3, #0]
 8081a56:	68db      	ldr	r3, [r3, #12]
 8081a58:	9301      	str	r3, [sp, #4]
 8081a5a:	bd08      	pop	{r3, pc}
 8081a5c:	080401b0 	.word	0x080401b0

08081a60 <HAL_GPIO_Write>:
DYNALIB_FN(4, hal_gpio, HAL_GPIO_Write, void(pin_t, uint8_t))
 8081a60:	b508      	push	{r3, lr}
 8081a62:	4b02      	ldr	r3, [pc, #8]	; (8081a6c <HAL_GPIO_Write+0xc>)
 8081a64:	681b      	ldr	r3, [r3, #0]
 8081a66:	691b      	ldr	r3, [r3, #16]
 8081a68:	9301      	str	r3, [sp, #4]
 8081a6a:	bd08      	pop	{r3, pc}
 8081a6c:	080401b0 	.word	0x080401b0

08081a70 <HAL_Interrupts_Attach>:
DYNALIB_FN(5, hal_gpio, HAL_GPIO_Read, int32_t(pin_t))
DYNALIB_FN(6, hal_gpio, HAL_Interrupts_Attach, int(uint16_t, HAL_InterruptHandler, void*, InterruptMode, HAL_InterruptExtraConfiguration*))
 8081a70:	b508      	push	{r3, lr}
 8081a72:	4b02      	ldr	r3, [pc, #8]	; (8081a7c <HAL_Interrupts_Attach+0xc>)
 8081a74:	681b      	ldr	r3, [r3, #0]
 8081a76:	699b      	ldr	r3, [r3, #24]
 8081a78:	9301      	str	r3, [sp, #4]
 8081a7a:	bd08      	pop	{r3, pc}
 8081a7c:	080401b0 	.word	0x080401b0

08081a80 <HAL_Interrupts_Detach>:
DYNALIB_FN(7, hal_gpio, HAL_Interrupts_Detach, int(uint16_t))
 8081a80:	b508      	push	{r3, lr}
 8081a82:	4b02      	ldr	r3, [pc, #8]	; (8081a8c <HAL_Interrupts_Detach+0xc>)
 8081a84:	681b      	ldr	r3, [r3, #0]
 8081a86:	69db      	ldr	r3, [r3, #28]
 8081a88:	9301      	str	r3, [sp, #4]
 8081a8a:	bd08      	pop	{r3, pc}
 8081a8c:	080401b0 	.word	0x080401b0

08081a90 <hal_adc_read>:
DYNALIB_FN(8, hal_gpio, HAL_Interrupts_Enable_All, void(void))
DYNALIB_FN(9, hal_gpio, HAL_Interrupts_Disable_All, void(void))

DYNALIB_FN(10, hal_gpio, HAL_DAC_Write, void(pin_t, uint16_t))
DYNALIB_FN(11, hal_gpio, hal_adc_set_sample_time, void(uint8_t))
DYNALIB_FN(12, hal_gpio, hal_adc_read, int32_t(uint16_t))
 8081a90:	b508      	push	{r3, lr}
 8081a92:	4b02      	ldr	r3, [pc, #8]	; (8081a9c <hal_adc_read+0xc>)
 8081a94:	681b      	ldr	r3, [r3, #0]
 8081a96:	6b1b      	ldr	r3, [r3, #48]	; 0x30
 8081a98:	9301      	str	r3, [sp, #4]
 8081a9a:	bd08      	pop	{r3, pc}
 8081a9c:	080401b0 	.word	0x080401b0

08081aa0 <hal_i2c_begin>:
#endif

DYNALIB_FN(BASE_IDX + 0, hal_i2c, hal_i2c_set_speed, void(hal_i2c_interface_t, uint32_t, void*))
DYNALIB_FN(BASE_IDX + 1, hal_i2c, hal_i2c_enable_dma_mode, void(hal_i2c_interface_t, bool, void*))
DYNALIB_FN(BASE_IDX + 2, hal_i2c, hal_i2c_stretch_clock, void(hal_i2c_interface_t, bool, void*))
DYNALIB_FN(BASE_IDX + 3, hal_i2c, hal_i2c_begin, void(hal_i2c_interface_t, hal_i2c_mode_t, uint8_t, void*))
 8081aa0:	b508      	push	{r3, lr}
 8081aa2:	4b02      	ldr	r3, [pc, #8]	; (8081aac <hal_i2c_begin+0xc>)
 8081aa4:	681b      	ldr	r3, [r3, #0]
 8081aa6:	68db      	ldr	r3, [r3, #12]
 8081aa8:	9301      	str	r3, [sp, #4]
 8081aaa:	bd08      	pop	{r3, pc}
 8081aac:	080401ac 	.word	0x080401ac

08081ab0 <hal_i2c_begin_transmission>:
DYNALIB_FN(BASE_IDX + 4, hal_i2c, hal_i2c_end, void(hal_i2c_interface_t, void*))
DYNALIB_FN(BASE_IDX + 5, hal_i2c, hal_i2c_request, uint32_t(hal_i2c_interface_t, uint8_t, uint8_t, uint8_t, void*))
DYNALIB_FN(BASE_IDX + 6, hal_i2c, hal_i2c_begin_transmission, void(hal_i2c_interface_t, uint8_t, const hal_i2c_transmission_config_t*))
 8081ab0:	b508      	push	{r3, lr}
 8081ab2:	4b02      	ldr	r3, [pc, #8]	; (8081abc <hal_i2c_begin_transmission+0xc>)
 8081ab4:	681b      	ldr	r3, [r3, #0]
 8081ab6:	699b      	ldr	r3, [r3, #24]
 8081ab8:	9301      	str	r3, [sp, #4]
 8081aba:	bd08      	pop	{r3, pc}
 8081abc:	080401ac 	.word	0x080401ac

08081ac0 <hal_i2c_end_transmission>:
DYNALIB_FN(BASE_IDX + 7, hal_i2c, hal_i2c_end_transmission, uint8_t(hal_i2c_interface_t, uint8_t, void*))
 8081ac0:	b508      	push	{r3, lr}
 8081ac2:	4b02      	ldr	r3, [pc, #8]	; (8081acc <hal_i2c_end_transmission+0xc>)
 8081ac4:	681b      	ldr	r3, [r3, #0]
 8081ac6:	69db      	ldr	r3, [r3, #28]
 8081ac8:	9301      	str	r3, [sp, #4]
 8081aca:	bd08      	pop	{r3, pc}
 8081acc:	080401ac 	.word	0x080401ac

08081ad0 <hal_i2c_write>:
DYNALIB_FN(BASE_IDX + 8, hal_i2c, hal_i2c_write, uint32_t(hal_i2c_interface_t, uint8_t, void*))
 8081ad0:	b508      	push	{r3, lr}
 8081ad2:	4b02      	ldr	r3, [pc, #8]	; (8081adc <hal_i2c_write+0xc>)
 8081ad4:	681b      	ldr	r3, [r3, #0]
 8081ad6:	6a1b      	ldr	r3, [r3, #32]
 8081ad8:	9301      	str	r3, [sp, #4]
 8081ada:	bd08      	pop	{r3, pc}
 8081adc:	080401ac 	.word	0x080401ac

08081ae0 <hal_i2c_available>:
DYNALIB_FN(BASE_IDX + 9, hal_i2c, hal_i2c_available, int32_t(hal_i2c_interface_t, void*))
 8081ae0:	b508      	push	{r3, lr}
 8081ae2:	4b02      	ldr	r3, [pc, #8]	; (8081aec <hal_i2c_available+0xc>)
 8081ae4:	681b      	ldr	r3, [r3, #0]
 8081ae6:	6a5b      	ldr	r3, [r3, #36]	; 0x24
 8081ae8:	9301      	str	r3, [sp, #4]
 8081aea:	bd08      	pop	{r3, pc}
 8081aec:	080401ac 	.word	0x080401ac

08081af0 <hal_i2c_read>:
DYNALIB_FN(BASE_IDX + 10, hal_i2c, hal_i2c_read, int32_t(hal_i2c_interface_t, void*))
 8081af0:	b508      	push	{r3, lr}
 8081af2:	4b02      	ldr	r3, [pc, #8]	; (8081afc <hal_i2c_read+0xc>)
 8081af4:	681b      	ldr	r3, [r3, #0]
 8081af6:	6a9b      	ldr	r3, [r3, #40]	; 0x28
 8081af8:	9301      	str	r3, [sp, #4]
 8081afa:	bd08      	pop	{r3, pc}
 8081afc:	080401ac 	.word	0x080401ac

08081b00 <hal_i2c_peek>:
DYNALIB_FN(BASE_IDX + 11, hal_i2c, hal_i2c_peek, int32_t(hal_i2c_interface_t, void*))
 8081b00:	b508      	push	{r3, lr}
 8081b02:	4b02      	ldr	r3, [pc, #8]	; (8081b0c <hal_i2c_peek+0xc>)
 8081b04:	681b      	ldr	r3, [r3, #0]
 8081b06:	6adb      	ldr	r3, [r3, #44]	; 0x2c
 8081b08:	9301      	str	r3, [sp, #4]
 8081b0a:	bd08      	pop	{r3, pc}
 8081b0c:	080401ac 	.word	0x080401ac

08081b10 <hal_i2c_flush>:
DYNALIB_FN(BASE_IDX + 12, hal_i2c, hal_i2c_flush, void(hal_i2c_interface_t, void*))
 8081b10:	b508      	push	{r3, lr}
 8081b12:	4b02      	ldr	r3, [pc, #8]	; (8081b1c <hal_i2c_flush+0xc>)
 8081b14:	681b      	ldr	r3, [r3, #0]
 8081b16:	6b1b      	ldr	r3, [r3, #48]	; 0x30
 8081b18:	9301      	str	r3, [sp, #4]
 8081b1a:	bd08      	pop	{r3, pc}
 8081b1c:	080401ac 	.word	0x080401ac

08081b20 <hal_i2c_is_enabled>:
DYNALIB_FN(BASE_IDX + 13, hal_i2c, hal_i2c_is_enabled, bool(hal_i2c_interface_t, void*))
 8081b20:	b508      	push	{r3, lr}
 8081b22:	4b02      	ldr	r3, [pc, #8]	; (8081b2c <hal_i2c_is_enabled+0xc>)
 8081b24:	681b      	ldr	r3, [r3, #0]
 8081b26:	6b5b      	ldr	r3, [r3, #52]	; 0x34
 8081b28:	9301      	str	r3, [sp, #4]
 8081b2a:	bd08      	pop	{r3, pc}
 8081b2c:	080401ac 	.word	0x080401ac

08081b30 <hal_i2c_init>:
DYNALIB_FN(BASE_IDX + 14, hal_i2c, hal_i2c_set_callback_on_received, void(hal_i2c_interface_t, void(*)(int), void*))
DYNALIB_FN(BASE_IDX + 15, hal_i2c, hal_i2c_set_callback_on_requested, void(hal_i2c_interface_t, void(*)(void), void*))
DYNALIB_FN(BASE_IDX + 16, hal_i2c, hal_i2c_init, int(hal_i2c_interface_t, const hal_i2c_config_t*))
 8081b30:	b508      	push	{r3, lr}
 8081b32:	4b02      	ldr	r3, [pc, #8]	; (8081b3c <hal_i2c_init+0xc>)
 8081b34:	681b      	ldr	r3, [r3, #0]
 8081b36:	6c1b      	ldr	r3, [r3, #64]	; 0x40
 8081b38:	9301      	str	r3, [sp, #4]
 8081b3a:	bd08      	pop	{r3, pc}
 8081b3c:	080401ac 	.word	0x080401ac

08081b40 <hal_i2c_lock>:
DYNALIB_FN(BASE_IDX + 17, hal_i2c, hal_i2c_reset, uint8_t(hal_i2c_interface_t, uint32_t, void*))
DYNALIB_FN(BASE_IDX + 18, hal_i2c, hal_i2c_lock, int32_t(hal_i2c_interface_t, void*))
 8081b40:	b508      	push	{r3, lr}
 8081b42:	4b02      	ldr	r3, [pc, #8]	; (8081b4c <hal_i2c_lock+0xc>)
 8081b44:	681b      	ldr	r3, [r3, #0]
 8081b46:	6c9b      	ldr	r3, [r3, #72]	; 0x48
 8081b48:	9301      	str	r3, [sp, #4]
 8081b4a:	bd08      	pop	{r3, pc}
 8081b4c:	080401ac 	.word	0x080401ac

08081b50 <hal_i2c_unlock>:
DYNALIB_FN(BASE_IDX + 19, hal_i2c, hal_i2c_unlock, int32_t(hal_i2c_interface_t, void*))
 8081b50:	b508      	push	{r3, lr}
 8081b52:	4b02      	ldr	r3, [pc, #8]	; (8081b5c <hal_i2c_unlock+0xc>)
 8081b54:	681b      	ldr	r3, [r3, #0]
 8081b56:	6cdb      	ldr	r3, [r3, #76]	; 0x4c
 8081b58:	9301      	str	r3, [sp, #4]
 8081b5a:	bd08      	pop	{r3, pc}
 8081b5c:	080401ac 	.word	0x080401ac

08081b60 <hal_i2c_request_ex>:
DYNALIB_FN(BASE_IDX + 20, hal_i2c, hal_i2c_request_ex, int32_t(hal_i2c_interface_t, const hal_i2c_transmission_config_t*, void*))
 8081b60:	b508      	push	{r3, lr}
 8081b62:	4b02      	ldr	r3, [pc, #8]	; (8081b6c <hal_i2c_request_ex+0xc>)
 8081b64:	681b      	ldr	r3, [r3, #0]
 8081b66:	6d1b      	ldr	r3, [r3, #80]	; 0x50
 8081b68:	9301      	str	r3, [sp, #4]
 8081b6a:	bd08      	pop	{r3, pc}
 8081b6c:	080401ac 	.word	0x080401ac

08081b70 <hal_spi_init>:
DYNALIB_FN(2, hal_spi, hal_spi_set_bit_order, void(hal_spi_interface_t, uint8_t))
DYNALIB_FN(3, hal_spi, hal_spi_set_data_mode, void(hal_spi_interface_t, uint8_t))
DYNALIB_FN(4, hal_spi, hal_spi_set_clock_divider, void(hal_spi_interface_t, uint8_t))
DYNALIB_FN(5, hal_spi, hal_spi_transfer, uint16_t(hal_spi_interface_t, uint16_t))
DYNALIB_FN(6, hal_spi, hal_spi_is_enabled_deprecated, bool(void))
DYNALIB_FN(7, hal_spi, hal_spi_init, void(hal_spi_interface_t))
 8081b70:	b508      	push	{r3, lr}
 8081b72:	4b02      	ldr	r3, [pc, #8]	; (8081b7c <hal_spi_init+0xc>)
 8081b74:	681b      	ldr	r3, [r3, #0]
 8081b76:	69db      	ldr	r3, [r3, #28]
 8081b78:	9301      	str	r3, [sp, #4]
 8081b7a:	bd08      	pop	{r3, pc}
 8081b7c:	080401b4 	.word	0x080401b4

08081b80 <hal_spi_is_enabled>:
DYNALIB_FN(8, hal_spi, hal_spi_is_enabled, bool(hal_spi_interface_t))
 8081b80:	b508      	push	{r3, lr}
 8081b82:	4b02      	ldr	r3, [pc, #8]	; (8081b8c <hal_spi_is_enabled+0xc>)
 8081b84:	681b      	ldr	r3, [r3, #0]
 8081b86:	6a1b      	ldr	r3, [r3, #32]
 8081b88:	9301      	str	r3, [sp, #4]
 8081b8a:	bd08      	pop	{r3, pc}
 8081b8c:	080401b4 	.word	0x080401b4

08081b90 <hal_usart_init>:
#define BASE_IDX 6 // Base index for all subsequent functions
#else
#define BASE_IDX 0
#endif

DYNALIB_FN(BASE_IDX + 0, hal_usart, hal_usart_init, void(hal_usart_interface_t, hal_usart_ring_buffer_t*, hal_usart_ring_buffer_t*))
 8081b90:	b508      	push	{r3, lr}
 8081b92:	4b02      	ldr	r3, [pc, #8]	; (8081b9c <hal_usart_init+0xc>)
 8081b94:	681b      	ldr	r3, [r3, #0]
 8081b96:	699b      	ldr	r3, [r3, #24]
 8081b98:	9301      	str	r3, [sp, #4]
 8081b9a:	bd08      	pop	{r3, pc}
 8081b9c:	080401c4 	.word	0x080401c4

08081ba0 <hal_usart_end>:
DYNALIB_FN(BASE_IDX + 1, hal_usart, hal_usart_begin, void(hal_usart_interface_t, uint32_t))
DYNALIB_FN(BASE_IDX + 2, hal_usart, hal_usart_end, void(hal_usart_interface_t))
 8081ba0:	b508      	push	{r3, lr}
 8081ba2:	4b02      	ldr	r3, [pc, #8]	; (8081bac <hal_usart_end+0xc>)
 8081ba4:	681b      	ldr	r3, [r3, #0]
 8081ba6:	6a1b      	ldr	r3, [r3, #32]
 8081ba8:	9301      	str	r3, [sp, #4]
 8081baa:	bd08      	pop	{r3, pc}
 8081bac:	080401c4 	.word	0x080401c4

08081bb0 <hal_usart_write>:
DYNALIB_FN(BASE_IDX + 3, hal_usart, hal_usart_write, uint32_t(hal_usart_interface_t, uint8_t))
 8081bb0:	b508      	push	{r3, lr}
 8081bb2:	4b02      	ldr	r3, [pc, #8]	; (8081bbc <hal_usart_write+0xc>)
 8081bb4:	681b      	ldr	r3, [r3, #0]
 8081bb6:	6a5b      	ldr	r3, [r3, #36]	; 0x24
 8081bb8:	9301      	str	r3, [sp, #4]
 8081bba:	bd08      	pop	{r3, pc}
 8081bbc:	080401c4 	.word	0x080401c4

08081bc0 <hal_usart_available>:
DYNALIB_FN(BASE_IDX + 4, hal_usart, hal_usart_available, int32_t(hal_usart_interface_t))
 8081bc0:	b508      	push	{r3, lr}
 8081bc2:	4b02      	ldr	r3, [pc, #8]	; (8081bcc <hal_usart_available+0xc>)
 8081bc4:	681b      	ldr	r3, [r3, #0]
 8081bc6:	6a9b      	ldr	r3, [r3, #40]	; 0x28
 8081bc8:	9301      	str	r3, [sp, #4]
 8081bca:	bd08      	pop	{r3, pc}
 8081bcc:	080401c4 	.word	0x080401c4

08081bd0 <hal_usart_read>:
DYNALIB_FN(BASE_IDX + 5, hal_usart, hal_usart_read, int32_t(hal_usart_interface_t))
 8081bd0:	b508      	push	{r3, lr}
 8081bd2:	4b02      	ldr	r3, [pc, #8]	; (8081bdc <hal_usart_read+0xc>)
 8081bd4:	681b      	ldr	r3, [r3, #0]
 8081bd6:	6adb      	ldr	r3, [r3, #44]	; 0x2c
 8081bd8:	9301      	str	r3, [sp, #4]
 8081bda:	bd08      	pop	{r3, pc}
 8081bdc:	080401c4 	.word	0x080401c4

08081be0 <hal_usart_peek>:
DYNALIB_FN(BASE_IDX + 6, hal_usart, hal_usart_peek, int32_t(hal_usart_interface_t))
 8081be0:	b508      	push	{r3, lr}
 8081be2:	4b02      	ldr	r3, [pc, #8]	; (8081bec <hal_usart_peek+0xc>)
 8081be4:	681b      	ldr	r3, [r3, #0]
 8081be6:	6b1b      	ldr	r3, [r3, #48]	; 0x30
 8081be8:	9301      	str	r3, [sp, #4]
 8081bea:	bd08      	pop	{r3, pc}
 8081bec:	080401c4 	.word	0x080401c4

08081bf0 <hal_usart_flush>:
DYNALIB_FN(BASE_IDX + 7, hal_usart, hal_usart_flush, void(hal_usart_interface_t))
 8081bf0:	b508      	push	{r3, lr}
 8081bf2:	4b02      	ldr	r3, [pc, #8]	; (8081bfc <hal_usart_flush+0xc>)
 8081bf4:	681b      	ldr	r3, [r3, #0]
 8081bf6:	6b5b      	ldr	r3, [r3, #52]	; 0x34
 8081bf8:	9301      	str	r3, [sp, #4]
 8081bfa:	bd08      	pop	{r3, pc}
 8081bfc:	080401c4 	.word	0x080401c4

08081c00 <hal_usart_is_enabled>:
DYNALIB_FN(BASE_IDX + 8, hal_usart, hal_usart_is_enabled, bool(hal_usart_interface_t))
 8081c00:	b508      	push	{r3, lr}
 8081c02:	4b02      	ldr	r3, [pc, #8]	; (8081c0c <hal_usart_is_enabled+0xc>)
 8081c04:	681b      	ldr	r3, [r3, #0]
 8081c06:	6b9b      	ldr	r3, [r3, #56]	; 0x38
 8081c08:	9301      	str	r3, [sp, #4]
 8081c0a:	bd08      	pop	{r3, pc}
 8081c0c:	080401c4 	.word	0x080401c4

08081c10 <hal_usart_available_data_for_write>:
DYNALIB_FN(BASE_IDX + 9, hal_usart, hal_usart_half_duplex, void(hal_usart_interface_t, bool))
DYNALIB_FN(BASE_IDX + 10, hal_usart, hal_usart_available_data_for_write, int32_t(hal_usart_interface_t))
 8081c10:	b508      	push	{r3, lr}
 8081c12:	4b02      	ldr	r3, [pc, #8]	; (8081c1c <hal_usart_available_data_for_write+0xc>)
 8081c14:	681b      	ldr	r3, [r3, #0]
 8081c16:	6c1b      	ldr	r3, [r3, #64]	; 0x40
 8081c18:	9301      	str	r3, [sp, #4]
 8081c1a:	bd08      	pop	{r3, pc}
 8081c1c:	080401c4 	.word	0x080401c4

08081c20 <hal_usart_begin_config>:
#define BASE_IDX2 (BASE_IDX+13)
#else
#define BASE_IDX2 (BASE_IDX+11)
#endif

DYNALIB_FN(BASE_IDX2 + 0, hal_usart, hal_usart_begin_config, void(hal_usart_interface_t serial, uint32_t baud, uint32_t config, void *ptr))
 8081c20:	b508      	push	{r3, lr}
 8081c22:	4b02      	ldr	r3, [pc, #8]	; (8081c2c <hal_usart_begin_config+0xc>)
 8081c24:	681b      	ldr	r3, [r3, #0]
 8081c26:	6cdb      	ldr	r3, [r3, #76]	; 0x4c
 8081c28:	9301      	str	r3, [sp, #4]
 8081c2a:	bd08      	pop	{r3, pc}
 8081c2c:	080401c4 	.word	0x080401c4

08081c30 <HAL_USB_USART_Init>:
#endif

DYNALIB_BEGIN(hal_usb)

#ifdef USB_CDC_ENABLE
DYNALIB_FN(0, hal_usb, HAL_USB_USART_Init, void(HAL_USB_USART_Serial, const HAL_USB_USART_Config*))
 8081c30:	b508      	push	{r3, lr}
 8081c32:	4b02      	ldr	r3, [pc, #8]	; (8081c3c <HAL_USB_USART_Init+0xc>)
 8081c34:	681b      	ldr	r3, [r3, #0]
 8081c36:	681b      	ldr	r3, [r3, #0]
 8081c38:	9301      	str	r3, [sp, #4]
 8081c3a:	bd08      	pop	{r3, pc}
 8081c3c:	0806001c 	.word	0x0806001c

08081c40 <HAL_USB_USART_Begin>:
DYNALIB_FN(1, hal_usb, HAL_USB_USART_Begin, void(HAL_USB_USART_Serial, uint32_t, void *))
 8081c40:	b508      	push	{r3, lr}
 8081c42:	4b02      	ldr	r3, [pc, #8]	; (8081c4c <HAL_USB_USART_Begin+0xc>)
 8081c44:	681b      	ldr	r3, [r3, #0]
 8081c46:	685b      	ldr	r3, [r3, #4]
 8081c48:	9301      	str	r3, [sp, #4]
 8081c4a:	bd08      	pop	{r3, pc}
 8081c4c:	0806001c 	.word	0x0806001c

08081c50 <HAL_USB_USART_End>:
DYNALIB_FN(2, hal_usb, HAL_USB_USART_End, void(HAL_USB_USART_Serial))
 8081c50:	b508      	push	{r3, lr}
 8081c52:	4b02      	ldr	r3, [pc, #8]	; (8081c5c <HAL_USB_USART_End+0xc>)
 8081c54:	681b      	ldr	r3, [r3, #0]
 8081c56:	689b      	ldr	r3, [r3, #8]
 8081c58:	9301      	str	r3, [sp, #4]
 8081c5a:	bd08      	pop	{r3, pc}
 8081c5c:	0806001c 	.word	0x0806001c

08081c60 <HAL_USB_USART_Available_Data>:
DYNALIB_FN(3, hal_usb, HAL_USB_USART_Baud_Rate, unsigned int(HAL_USB_USART_Serial))
DYNALIB_FN(4, hal_usb, HAL_USB_USART_Available_Data, int32_t(HAL_USB_USART_Serial))
 8081c60:	b508      	push	{r3, lr}
 8081c62:	4b02      	ldr	r3, [pc, #8]	; (8081c6c <HAL_USB_USART_Available_Data+0xc>)
 8081c64:	681b      	ldr	r3, [r3, #0]
 8081c66:	691b      	ldr	r3, [r3, #16]
 8081c68:	9301      	str	r3, [sp, #4]
 8081c6a:	bd08      	pop	{r3, pc}
 8081c6c:	0806001c 	.word	0x0806001c

08081c70 <HAL_USB_USART_Available_Data_For_Write>:
DYNALIB_FN(5, hal_usb, HAL_USB_USART_Available_Data_For_Write, int32_t(HAL_USB_USART_Serial))
 8081c70:	b508      	push	{r3, lr}
 8081c72:	4b02      	ldr	r3, [pc, #8]	; (8081c7c <HAL_USB_USART_Available_Data_For_Write+0xc>)
 8081c74:	681b      	ldr	r3, [r3, #0]
 8081c76:	695b      	ldr	r3, [r3, #20]
 8081c78:	9301      	str	r3, [sp, #4]
 8081c7a:	bd08      	pop	{r3, pc}
 8081c7c:	0806001c 	.word	0x0806001c

08081c80 <HAL_USB_USART_Receive_Data>:
DYNALIB_FN(6, hal_usb, HAL_USB_USART_Receive_Data, int32_t(HAL_USB_USART_Serial, uint8_t))
 8081c80:	b508      	push	{r3, lr}
 8081c82:	4b02      	ldr	r3, [pc, #8]	; (8081c8c <HAL_USB_USART_Receive_Data+0xc>)
 8081c84:	681b      	ldr	r3, [r3, #0]
 8081c86:	699b      	ldr	r3, [r3, #24]
 8081c88:	9301      	str	r3, [sp, #4]
 8081c8a:	bd08      	pop	{r3, pc}
 8081c8c:	0806001c 	.word	0x0806001c

08081c90 <HAL_USB_USART_Send_Data>:
DYNALIB_FN(7, hal_usb, HAL_USB_USART_Send_Data, int32_t(HAL_USB_USART_Serial, uint8_t))
 8081c90:	b508      	push	{r3, lr}
 8081c92:	4b02      	ldr	r3, [pc, #8]	; (8081c9c <HAL_USB_USART_Send_Data+0xc>)
 8081c94:	681b      	ldr	r3, [r3, #0]
 8081c96:	69db      	ldr	r3, [r3, #28]
 8081c98:	9301      	str	r3, [sp, #4]
 8081c9a:	bd08      	pop	{r3, pc}
 8081c9c:	0806001c 	.word	0x0806001c

08081ca0 <HAL_USB_USART_Flush_Data>:
DYNALIB_FN(8, hal_usb, HAL_USB_USART_Flush_Data, void(HAL_USB_USART_Serial))
 8081ca0:	b508      	push	{r3, lr}
 8081ca2:	4b02      	ldr	r3, [pc, #8]	; (8081cac <HAL_USB_USART_Flush_Data+0xc>)
 8081ca4:	681b      	ldr	r3, [r3, #0]
 8081ca6:	6a1b      	ldr	r3, [r3, #32]
 8081ca8:	9301      	str	r3, [sp, #4]
 8081caa:	bd08      	pop	{r3, pc}
 8081cac:	0806001c 	.word	0x0806001c

08081cb0 <panic_>:
DYNALIB_FN(9, services, LED_Toggle, void(Led_TypeDef))
DYNALIB_FN(10, services, LED_Fade, void(Led_TypeDef))
DYNALIB_FN(11, services, Get_LED_Brightness, uint8_t(void))

DYNALIB_FN(12, services, set_logger_output, void(debug_output_fn, LoggerOutputLevel)) // Deprecated
DYNALIB_FN(13, services, panic_, void(ePanicCode, void*, void(*)(uint32_t)))
 8081cb0:	b508      	push	{r3, lr}
 8081cb2:	4b02      	ldr	r3, [pc, #8]	; (8081cbc <panic_+0xc>)
 8081cb4:	681b      	ldr	r3, [r3, #0]
 8081cb6:	6b5b      	ldr	r3, [r3, #52]	; 0x34
 8081cb8:	9301      	str	r3, [sp, #4]
 8081cba:	bd08      	pop	{r3, pc}
 8081cbc:	080201a0 	.word	0x080201a0

08081cc0 <log_message_v>:
DYNALIB_FN(17, services, LED_RGB_SetChangeHandler, void(led_update_handler_fn, void*))
DYNALIB_FN(18, services, log_print_direct_, void(int, void*, const char*, ...)) // Deprecated
DYNALIB_FN(19, services, LED_GetColor, uint32_t(uint32_t, void*))

DYNALIB_FN(20, services, log_message, void(int, const char*, LogAttributes*, void*, const char*, ...))
DYNALIB_FN(21, services, log_message_v, void(int, const char*, LogAttributes*, void*, const char*, va_list))
 8081cc0:	b508      	push	{r3, lr}
 8081cc2:	4b02      	ldr	r3, [pc, #8]	; (8081ccc <log_message_v+0xc>)
 8081cc4:	681b      	ldr	r3, [r3, #0]
 8081cc6:	6d5b      	ldr	r3, [r3, #84]	; 0x54
 8081cc8:	9301      	str	r3, [sp, #4]
 8081cca:	bd08      	pop	{r3, pc}
 8081ccc:	080201a0 	.word	0x080201a0

08081cd0 <log_level_name>:
DYNALIB_FN(22, services, log_write, void(int, const char*, const char*, size_t, void*))
DYNALIB_FN(23, services, log_printf, void(int, const char*, void*, const char*, ...))
DYNALIB_FN(24, services, log_printf_v, void(int, const char*, void*, const char*, va_list))
DYNALIB_FN(25, services, log_dump, void(int, const char*, const void*, size_t, int, void*))
DYNALIB_FN(26, services, log_enabled, int(int, const char*, void*))
DYNALIB_FN(27, services, log_level_name, const char*(int, void*))
 8081cd0:	b508      	push	{r3, lr}
 8081cd2:	4b02      	ldr	r3, [pc, #8]	; (8081cdc <log_level_name+0xc>)
 8081cd4:	681b      	ldr	r3, [r3, #0]
 8081cd6:	6edb      	ldr	r3, [r3, #108]	; 0x6c
 8081cd8:	9301      	str	r3, [sp, #4]
 8081cda:	bd08      	pop	{r3, pc}
 8081cdc:	080201a0 	.word	0x080201a0

08081ce0 <log_set_callbacks>:
DYNALIB_FN(28, services, log_set_callbacks, void(log_message_callback_type, log_write_callback_type, log_enabled_callback_type, void*))
 8081ce0:	b508      	push	{r3, lr}
 8081ce2:	4b02      	ldr	r3, [pc, #8]	; (8081cec <log_set_callbacks+0xc>)
 8081ce4:	681b      	ldr	r3, [r3, #0]
 8081ce6:	6f1b      	ldr	r3, [r3, #112]	; 0x70
 8081ce8:	9301      	str	r3, [sp, #4]
 8081cea:	bd08      	pop	{r3, pc}
 8081cec:	080201a0 	.word	0x080201a0

08081cf0 <diag_get_source>:
DYNALIB_FN(34, services, led_update_enabled, int(void*))
DYNALIB_FN(35, services, led_update, void(system_tick_t, LEDStatusData*, void*))

DYNALIB_FN(36, services, diag_register_source, int(const diag_source*, void*))
DYNALIB_FN(37, services, diag_enum_sources, int(diag_enum_sources_callback, size_t*, void*, void*))
DYNALIB_FN(38, services, diag_get_source, int(uint16_t, const diag_source**, void*))
 8081cf0:	b508      	push	{r3, lr}
 8081cf2:	4b03      	ldr	r3, [pc, #12]	; (8081d00 <diag_get_source+0x10>)
 8081cf4:	681b      	ldr	r3, [r3, #0]
 8081cf6:	f8d3 3098 	ldr.w	r3, [r3, #152]	; 0x98
 8081cfa:	9301      	str	r3, [sp, #4]
 8081cfc:	bd08      	pop	{r3, pc}
 8081cfe:	0000      	.short	0x0000
 8081d00:	080201a0 	.word	0x080201a0

08081d04 <system_mode>:
#include "system_power.h"
#endif

DYNALIB_BEGIN(system)

DYNALIB_FN(0, system, system_mode, System_Mode_TypeDef(void))
 8081d04:	b508      	push	{r3, lr}
 8081d06:	4b02      	ldr	r3, [pc, #8]	; (8081d10 <system_mode+0xc>)
 8081d08:	681b      	ldr	r3, [r3, #0]
 8081d0a:	681b      	ldr	r3, [r3, #0]
 8081d0c:	9301      	str	r3, [sp, #4]
 8081d0e:	bd08      	pop	{r3, pc}
 8081d10:	080401a4 	.word	0x080401a4

08081d14 <set_system_mode>:
DYNALIB_FN(1, system, set_system_mode, void(System_Mode_TypeDef))
 8081d14:	b508      	push	{r3, lr}
 8081d16:	4b02      	ldr	r3, [pc, #8]	; (8081d20 <set_system_mode+0xc>)
 8081d18:	681b      	ldr	r3, [r3, #0]
 8081d1a:	685b      	ldr	r3, [r3, #4]
 8081d1c:	9301      	str	r3, [sp, #4]
 8081d1e:	bd08      	pop	{r3, pc}
 8081d20:	080401a4 	.word	0x080401a4

08081d24 <system_delay_ms>:

DYNALIB_FN(2, system, set_ymodem_serial_flash_update_handler, void(ymodem_serial_flash_update_handler))
DYNALIB_FN(3, system, system_firmwareUpdate, bool(Stream*, void*))
DYNALIB_FN(4, system, system_fileTransfer, bool(system_file_transfer_t*, void*))

DYNALIB_FN(5, system, system_delay_ms, void(unsigned long, bool))
 8081d24:	b508      	push	{r3, lr}
 8081d26:	4b02      	ldr	r3, [pc, #8]	; (8081d30 <system_delay_ms+0xc>)
 8081d28:	681b      	ldr	r3, [r3, #0]
 8081d2a:	695b      	ldr	r3, [r3, #20]
 8081d2c:	9301      	str	r3, [sp, #4]
 8081d2e:	bd08      	pop	{r3, pc}
 8081d30:	080401a4 	.word	0x080401a4

08081d34 <system_sleep>:
DYNALIB_FN(6, system, system_sleep, int(Spark_Sleep_TypeDef, long, uint32_t, void*))
 8081d34:	b508      	push	{r3, lr}
 8081d36:	4b02      	ldr	r3, [pc, #8]	; (8081d40 <system_sleep+0xc>)
 8081d38:	681b      	ldr	r3, [r3, #0]
 8081d3a:	699b      	ldr	r3, [r3, #24]
 8081d3c:	9301      	str	r3, [sp, #4]
 8081d3e:	bd08      	pop	{r3, pc}
 8081d40:	080401a4 	.word	0x080401a4

08081d44 <system_thread_set_state>:
DYNALIB_FN(7, system, system_sleep_pin, int(uint16_t, uint16_t, long, uint32_t, void*))
DYNALIB_FN(8, system, system_subscribe_event, int(system_event_t, system_event_handler_t*, void*))
DYNALIB_FN(9, system, system_unsubscribe_event, void(system_event_t, system_event_handler_t*, void*))
DYNALIB_FN(10, system, system_button_pushed_duration, uint16_t(uint8_t, void*))
DYNALIB_FN(11, system, system_thread_set_state, void(spark::feature::State, void*))
 8081d44:	b508      	push	{r3, lr}
 8081d46:	4b02      	ldr	r3, [pc, #8]	; (8081d50 <system_thread_set_state+0xc>)
 8081d48:	681b      	ldr	r3, [r3, #0]
 8081d4a:	6adb      	ldr	r3, [r3, #44]	; 0x2c
 8081d4c:	9301      	str	r3, [sp, #4]
 8081d4e:	bd08      	pop	{r3, pc}
 8081d50:	080401a4 	.word	0x080401a4

08081d54 <application_thread_current>:
DYNALIB_FN(15, system, system_get_flag, int(system_flag_t, uint8_t*, void*))
DYNALIB_FN(16, system, Spark_Prepare_For_Firmware_Update, int(FileTransfer::Descriptor&, uint32_t, void*))
DYNALIB_FN(17, system, Spark_Save_Firmware_Chunk, int(FileTransfer::Descriptor&, const uint8_t*, void*))
DYNALIB_FN(18, system, Spark_Finish_Firmware_Update, int(FileTransfer::Descriptor&, uint32_t, void*))

DYNALIB_FN(19, system, application_thread_current, uint8_t(void*))
 8081d54:	b508      	push	{r3, lr}
 8081d56:	4b02      	ldr	r3, [pc, #8]	; (8081d60 <application_thread_current+0xc>)
 8081d58:	681b      	ldr	r3, [r3, #0]
 8081d5a:	6cdb      	ldr	r3, [r3, #76]	; 0x4c
 8081d5c:	9301      	str	r3, [sp, #4]
 8081d5e:	bd08      	pop	{r3, pc}
 8081d60:	080401a4 	.word	0x080401a4

08081d64 <application_thread_invoke>:
DYNALIB_FN(20, system, system_thread_current, uint8_t(void*))
DYNALIB_FN(21, system, application_thread_invoke, uint8_t(void(*)(void*), void*, void*))
 8081d64:	b508      	push	{r3, lr}
 8081d66:	4b02      	ldr	r3, [pc, #8]	; (8081d70 <application_thread_invoke+0xc>)
 8081d68:	681b      	ldr	r3, [r3, #0]
 8081d6a:	6d5b      	ldr	r3, [r3, #84]	; 0x54
 8081d6c:	9301      	str	r3, [sp, #4]
 8081d6e:	bd08      	pop	{r3, pc}
 8081d70:	080401a4 	.word	0x080401a4

08081d74 <system_thread_get_state>:
DYNALIB_FN(22, system, system_thread_get_state, spark::feature::State(void*))
 8081d74:	b508      	push	{r3, lr}
 8081d76:	4b02      	ldr	r3, [pc, #8]	; (8081d80 <system_thread_get_state+0xc>)
 8081d78:	681b      	ldr	r3, [r3, #0]
 8081d7a:	6d9b      	ldr	r3, [r3, #88]	; 0x58
 8081d7c:	9301      	str	r3, [sp, #4]
 8081d7e:	bd08      	pop	{r3, pc}
 8081d80:	080401a4 	.word	0x080401a4

08081d84 <system_ctrl_set_app_request_handler>:
DYNALIB_FN(BASE_IDX + 6, system, led_pattern_period, uint16_t(int, int, void*))
DYNALIB_FN(BASE_IDX + 7, system, system_set_tester_handlers, int(system_tester_handlers_t*, void*))
DYNALIB_FN(BASE_IDX + 8, system, system_format_diag_data, int(const uint16_t*, size_t, unsigned, appender_fn, void*, void*))

// Control requests
DYNALIB_FN(BASE_IDX + 9, system, system_ctrl_set_app_request_handler, int(ctrl_request_handler_fn, void*))
 8081d84:	b508      	push	{r3, lr}
 8081d86:	4b03      	ldr	r3, [pc, #12]	; (8081d94 <system_ctrl_set_app_request_handler+0x10>)
 8081d88:	681b      	ldr	r3, [r3, #0]
 8081d8a:	f8d3 3090 	ldr.w	r3, [r3, #144]	; 0x90
 8081d8e:	9301      	str	r3, [sp, #4]
 8081d90:	bd08      	pop	{r3, pc}
 8081d92:	0000      	.short	0x0000
 8081d94:	080401a4 	.word	0x080401a4

08081d98 <system_ctrl_set_result>:
DYNALIB_FN(BASE_IDX + 10, system, system_ctrl_alloc_reply_data, int(ctrl_request*, size_t, void*))
DYNALIB_FN(BASE_IDX + 11, system, system_ctrl_free_request_data, void(ctrl_request*, void*))
DYNALIB_FN(BASE_IDX + 12, system, system_ctrl_set_result, void(ctrl_request*, int, ctrl_completion_handler_fn, void*, void*))
 8081d98:	b508      	push	{r3, lr}
 8081d9a:	4b03      	ldr	r3, [pc, #12]	; (8081da8 <system_ctrl_set_result+0x10>)
 8081d9c:	681b      	ldr	r3, [r3, #0]
 8081d9e:	f8d3 309c 	ldr.w	r3, [r3, #156]	; 0x9c
 8081da2:	9301      	str	r3, [sp, #4]
 8081da4:	bd08      	pop	{r3, pc}
 8081da6:	0000      	.short	0x0000
 8081da8:	080401a4 	.word	0x080401a4

08081dac <system_reset>:
#else
#define BASE_IDX1 (BASE_IDX + 17)
#endif // HAL_PLATFORM_POWER_MANAGEMENT

DYNALIB_FN(BASE_IDX1 + 0, system, system_sleep_ext, int(const hal_sleep_config_t*, hal_wakeup_source_base_t**, void*))
DYNALIB_FN(BASE_IDX1 + 1, system, system_reset, int(unsigned, unsigned, unsigned, unsigned, void*))
 8081dac:	b508      	push	{r3, lr}
 8081dae:	4b03      	ldr	r3, [pc, #12]	; (8081dbc <system_reset+0x10>)
 8081db0:	681b      	ldr	r3, [r3, #0]
 8081db2:	f8d3 30b8 	ldr.w	r3, [r3, #184]	; 0xb8
 8081db6:	9301      	str	r3, [sp, #4]
 8081db8:	bd08      	pop	{r3, pc}
 8081dba:	0000      	.short	0x0000
 8081dbc:	080401a4 	.word	0x080401a4

08081dc0 <spark_variable>:
#endif


DYNALIB_BEGIN(system_cloud)

DYNALIB_FN(0, system_cloud, spark_variable, bool(const char*, const void*, Spark_Data_TypeDef, spark_variable_t*))
 8081dc0:	b508      	push	{r3, lr}
 8081dc2:	4b02      	ldr	r3, [pc, #8]	; (8081dcc <spark_variable+0xc>)
 8081dc4:	681b      	ldr	r3, [r3, #0]
 8081dc6:	681b      	ldr	r3, [r3, #0]
 8081dc8:	9301      	str	r3, [sp, #4]
 8081dca:	bd08      	pop	{r3, pc}
 8081dcc:	080401cc 	.word	0x080401cc

08081dd0 <spark_function>:
DYNALIB_FN(1, system_cloud, spark_function, bool(const char*, p_user_function_int_str_t, void*))
 8081dd0:	b508      	push	{r3, lr}
 8081dd2:	4b02      	ldr	r3, [pc, #8]	; (8081ddc <spark_function+0xc>)
 8081dd4:	681b      	ldr	r3, [r3, #0]
 8081dd6:	685b      	ldr	r3, [r3, #4]
 8081dd8:	9301      	str	r3, [sp, #4]
 8081dda:	bd08      	pop	{r3, pc}
 8081ddc:	080401cc 	.word	0x080401cc

08081de0 <spark_process>:
DYNALIB_FN(2, system_cloud, spark_process, void(void))
 8081de0:	b508      	push	{r3, lr}
 8081de2:	4b02      	ldr	r3, [pc, #8]	; (8081dec <spark_process+0xc>)
 8081de4:	681b      	ldr	r3, [r3, #0]
 8081de6:	689b      	ldr	r3, [r3, #8]
 8081de8:	9301      	str	r3, [sp, #4]
 8081dea:	bd08      	pop	{r3, pc}
 8081dec:	080401cc 	.word	0x080401cc

08081df0 <spark_cloud_flag_connect>:
DYNALIB_FN(3, system_cloud, spark_cloud_flag_connect, void(void))
 8081df0:	b508      	push	{r3, lr}
 8081df2:	4b02      	ldr	r3, [pc, #8]	; (8081dfc <spark_cloud_flag_connect+0xc>)
 8081df4:	681b      	ldr	r3, [r3, #0]
 8081df6:	68db      	ldr	r3, [r3, #12]
 8081df8:	9301      	str	r3, [sp, #4]
 8081dfa:	bd08      	pop	{r3, pc}
 8081dfc:	080401cc 	.word	0x080401cc

08081e00 <spark_cloud_flag_connected>:
DYNALIB_FN(4, system_cloud, spark_cloud_flag_disconnect, void(void))
DYNALIB_FN(5, system_cloud, spark_cloud_flag_connected, bool(void))
 8081e00:	b508      	push	{r3, lr}
 8081e02:	4b02      	ldr	r3, [pc, #8]	; (8081e0c <spark_cloud_flag_connected+0xc>)
 8081e04:	681b      	ldr	r3, [r3, #0]
 8081e06:	695b      	ldr	r3, [r3, #20]
 8081e08:	9301      	str	r3, [sp, #4]
 8081e0a:	bd08      	pop	{r3, pc}
 8081e0c:	080401cc 	.word	0x080401cc

08081e10 <spark_deviceID>:
DYNALIB_FN(6, system_cloud, system_cloud_protocol_instance, ProtocolFacade*(void))
DYNALIB_FN(7, system_cloud, spark_deviceID, String(void))
 8081e10:	b508      	push	{r3, lr}
 8081e12:	4b02      	ldr	r3, [pc, #8]	; (8081e1c <spark_deviceID+0xc>)
 8081e14:	681b      	ldr	r3, [r3, #0]
 8081e16:	69db      	ldr	r3, [r3, #28]
 8081e18:	9301      	str	r3, [sp, #4]
 8081e1a:	bd08      	pop	{r3, pc}
 8081e1c:	080401cc 	.word	0x080401cc

08081e20 <spark_send_event>:
DYNALIB_FN(8, system_cloud, spark_send_event, bool(const char*, const char*, int, uint32_t, void*))
 8081e20:	b508      	push	{r3, lr}
 8081e22:	4b02      	ldr	r3, [pc, #8]	; (8081e2c <spark_send_event+0xc>)
 8081e24:	681b      	ldr	r3, [r3, #0]
 8081e26:	6a1b      	ldr	r3, [r3, #32]
 8081e28:	9301      	str	r3, [sp, #4]
 8081e2a:	bd08      	pop	{r3, pc}
 8081e2c:	080401cc 	.word	0x080401cc

08081e30 <spark_subscribe>:
DYNALIB_FN(9, system_cloud, spark_subscribe, bool(const char*, EventHandler, void*, Spark_Subscription_Scope_TypeDef, const char*, void*))
 8081e30:	b508      	push	{r3, lr}
 8081e32:	4b02      	ldr	r3, [pc, #8]	; (8081e3c <spark_subscribe+0xc>)
 8081e34:	681b      	ldr	r3, [r3, #0]
 8081e36:	6a5b      	ldr	r3, [r3, #36]	; 0x24
 8081e38:	9301      	str	r3, [sp, #4]
 8081e3a:	bd08      	pop	{r3, pc}
 8081e3c:	080401cc 	.word	0x080401cc

08081e40 <spark_sync_time>:
DYNALIB_FN(10, system_cloud, spark_unsubscribe, void(void*))
DYNALIB_FN(11, system_cloud, spark_sync_time, bool(void*))
 8081e40:	b508      	push	{r3, lr}
 8081e42:	4b02      	ldr	r3, [pc, #8]	; (8081e4c <spark_sync_time+0xc>)
 8081e44:	681b      	ldr	r3, [r3, #0]
 8081e46:	6adb      	ldr	r3, [r3, #44]	; 0x2c
 8081e48:	9301      	str	r3, [sp, #4]
 8081e4a:	bd08      	pop	{r3, pc}
 8081e4c:	080401cc 	.word	0x080401cc

08081e50 <spark_sync_time_pending>:
DYNALIB_FN(12, system_cloud, spark_sync_time_pending, bool(void*))
 8081e50:	b508      	push	{r3, lr}
 8081e52:	4b02      	ldr	r3, [pc, #8]	; (8081e5c <spark_sync_time_pending+0xc>)
 8081e54:	681b      	ldr	r3, [r3, #0]
 8081e56:	6b1b      	ldr	r3, [r3, #48]	; 0x30
 8081e58:	9301      	str	r3, [sp, #4]
 8081e5a:	bd08      	pop	{r3, pc}
 8081e5c:	080401cc 	.word	0x080401cc

08081e60 <spark_set_connection_property>:
DYNALIB_FN(13, system_cloud, spark_sync_time_last, system_tick_t(time32_t*, time_t*))
DYNALIB_FN(14, system_cloud, spark_set_connection_property, int(unsigned, unsigned, const void*, void*))
 8081e60:	b508      	push	{r3, lr}
 8081e62:	4b02      	ldr	r3, [pc, #8]	; (8081e6c <spark_set_connection_property+0xc>)
 8081e64:	681b      	ldr	r3, [r3, #0]
 8081e66:	6b9b      	ldr	r3, [r3, #56]	; 0x38
 8081e68:	9301      	str	r3, [sp, #4]
 8081e6a:	bd08      	pop	{r3, pc}
 8081e6c:	080401cc 	.word	0x080401cc

08081e70 <spark_set_random_seed_from_cloud_handler>:
DYNALIB_FN(15, system_cloud, spark_set_random_seed_from_cloud_handler, int(void (*handler)(unsigned int), void*))
 8081e70:	b508      	push	{r3, lr}
 8081e72:	4b02      	ldr	r3, [pc, #8]	; (8081e7c <spark_set_random_seed_from_cloud_handler+0xc>)
 8081e74:	681b      	ldr	r3, [r3, #0]
 8081e76:	6bdb      	ldr	r3, [r3, #60]	; 0x3c
 8081e78:	9301      	str	r3, [sp, #4]
 8081e7a:	bd08      	pop	{r3, pc}
 8081e7c:	080401cc 	.word	0x080401cc

08081e80 <spark_cloud_disconnect>:
DYNALIB_FN(16, system_cloud, spark_publish_vitals, int(system_tick_t, void*))
DYNALIB_FN(17, system_cloud, spark_cloud_disconnect, int(const spark_cloud_disconnect_options*, void*))
 8081e80:	b508      	push	{r3, lr}
 8081e82:	4b02      	ldr	r3, [pc, #8]	; (8081e8c <spark_cloud_disconnect+0xc>)
 8081e84:	681b      	ldr	r3, [r3, #0]
 8081e86:	6c5b      	ldr	r3, [r3, #68]	; 0x44
 8081e88:	9301      	str	r3, [sp, #4]
 8081e8a:	bd08      	pop	{r3, pc}
 8081e8c:	080401cc 	.word	0x080401cc

08081e90 <network_connect>:
#endif

DYNALIB_BEGIN(system_net)

DYNALIB_FN(0, system_net, network_config, const void*(network_handle_t, uint32_t, void*))
DYNALIB_FN(1, system_net, network_connect, void(network_handle_t, uint32_t, uint32_t, void*))
 8081e90:	b508      	push	{r3, lr}
 8081e92:	4b02      	ldr	r3, [pc, #8]	; (8081e9c <network_connect+0xc>)
 8081e94:	681b      	ldr	r3, [r3, #0]
 8081e96:	685b      	ldr	r3, [r3, #4]
 8081e98:	9301      	str	r3, [sp, #4]
 8081e9a:	bd08      	pop	{r3, pc}
 8081e9c:	080401c8 	.word	0x080401c8

08081ea0 <network_connecting>:
DYNALIB_FN(2, system_net, network_connecting, bool(network_handle_t, uint32_t, void*))
 8081ea0:	b508      	push	{r3, lr}
 8081ea2:	4b02      	ldr	r3, [pc, #8]	; (8081eac <network_connecting+0xc>)
 8081ea4:	681b      	ldr	r3, [r3, #0]
 8081ea6:	689b      	ldr	r3, [r3, #8]
 8081ea8:	9301      	str	r3, [sp, #4]
 8081eaa:	bd08      	pop	{r3, pc}
 8081eac:	080401c8 	.word	0x080401c8

08081eb0 <network_disconnect>:
DYNALIB_FN(3, system_net, network_disconnect, void(network_handle_t, uint32_t, void*))
 8081eb0:	b508      	push	{r3, lr}
 8081eb2:	4b02      	ldr	r3, [pc, #8]	; (8081ebc <network_disconnect+0xc>)
 8081eb4:	681b      	ldr	r3, [r3, #0]
 8081eb6:	68db      	ldr	r3, [r3, #12]
 8081eb8:	9301      	str	r3, [sp, #4]
 8081eba:	bd08      	pop	{r3, pc}
 8081ebc:	080401c8 	.word	0x080401c8

08081ec0 <network_ready>:
DYNALIB_FN(4, system_net, network_ready, bool(network_handle_t, uint32_t, void*))
 8081ec0:	b508      	push	{r3, lr}
 8081ec2:	4b02      	ldr	r3, [pc, #8]	; (8081ecc <network_ready+0xc>)
 8081ec4:	681b      	ldr	r3, [r3, #0]
 8081ec6:	691b      	ldr	r3, [r3, #16]
 8081ec8:	9301      	str	r3, [sp, #4]
 8081eca:	bd08      	pop	{r3, pc}
 8081ecc:	080401c8 	.word	0x080401c8

08081ed0 <network_on>:
DYNALIB_FN(5, system_net, network_on, void(network_handle_t, uint32_t, uint32_t, void*))
 8081ed0:	b508      	push	{r3, lr}
 8081ed2:	4b02      	ldr	r3, [pc, #8]	; (8081edc <network_on+0xc>)
 8081ed4:	681b      	ldr	r3, [r3, #0]
 8081ed6:	695b      	ldr	r3, [r3, #20]
 8081ed8:	9301      	str	r3, [sp, #4]
 8081eda:	bd08      	pop	{r3, pc}
 8081edc:	080401c8 	.word	0x080401c8

08081ee0 <network_off>:
DYNALIB_FN(6, system_net, network_off, void(network_handle_t, uint32_t, uint32_t, void*))
 8081ee0:	b508      	push	{r3, lr}
 8081ee2:	4b02      	ldr	r3, [pc, #8]	; (8081eec <network_off+0xc>)
 8081ee4:	681b      	ldr	r3, [r3, #0]
 8081ee6:	699b      	ldr	r3, [r3, #24]
 8081ee8:	9301      	str	r3, [sp, #4]
 8081eea:	bd08      	pop	{r3, pc}
 8081eec:	080401c8 	.word	0x080401c8

08081ef0 <network_listen>:
DYNALIB_FN(7, system_net, network_listen, void(network_handle_t, uint32_t, void*))
 8081ef0:	b508      	push	{r3, lr}
 8081ef2:	4b02      	ldr	r3, [pc, #8]	; (8081efc <network_listen+0xc>)
 8081ef4:	681b      	ldr	r3, [r3, #0]
 8081ef6:	69db      	ldr	r3, [r3, #28]
 8081ef8:	9301      	str	r3, [sp, #4]
 8081efa:	bd08      	pop	{r3, pc}
 8081efc:	080401c8 	.word	0x080401c8

08081f00 <network_listening>:
DYNALIB_FN(8, system_net, network_listening, bool(network_handle_t, uint32_t, void*))
 8081f00:	b508      	push	{r3, lr}
 8081f02:	4b02      	ldr	r3, [pc, #8]	; (8081f0c <network_listening+0xc>)
 8081f04:	681b      	ldr	r3, [r3, #0]
 8081f06:	6a1b      	ldr	r3, [r3, #32]
 8081f08:	9301      	str	r3, [sp, #4]
 8081f0a:	bd08      	pop	{r3, pc}
 8081f0c:	080401c8 	.word	0x080401c8

08081f10 <network_set_listen_timeout>:
DYNALIB_FN(9, system_net, network_has_credentials, bool(network_handle_t, uint32_t, void*))
DYNALIB_FN(10, system_net, network_set_credentials, int(network_handle_t, uint32_t, NetworkCredentials*, void*))
DYNALIB_FN(11, system_net, network_clear_credentials, bool(network_handle_t, uint32_t, NetworkCredentials*, void*))
DYNALIB_FN(12, system_net, network_set_listen_timeout, void(network_handle_t, uint16_t, void*))
 8081f10:	b508      	push	{r3, lr}
 8081f12:	4b02      	ldr	r3, [pc, #8]	; (8081f1c <network_set_listen_timeout+0xc>)
 8081f14:	681b      	ldr	r3, [r3, #0]
 8081f16:	6b1b      	ldr	r3, [r3, #48]	; 0x30
 8081f18:	9301      	str	r3, [sp, #4]
 8081f1a:	bd08      	pop	{r3, pc}
 8081f1c:	080401c8 	.word	0x080401c8

08081f20 <network_get_listen_timeout>:
DYNALIB_FN(13, system_net, network_get_listen_timeout, uint16_t(network_handle_t, uint32_t, void*))
 8081f20:	b508      	push	{r3, lr}
 8081f22:	4b02      	ldr	r3, [pc, #8]	; (8081f2c <network_get_listen_timeout+0xc>)
 8081f24:	681b      	ldr	r3, [r3, #0]
 8081f26:	6b5b      	ldr	r3, [r3, #52]	; 0x34
 8081f28:	9301      	str	r3, [sp, #4]
 8081f2a:	bd08      	pop	{r3, pc}
 8081f2c:	080401c8 	.word	0x080401c8

08081f30 <network_is_on>:
DYNALIB_FN(14, system_net, network_set_hostname, int(network_handle_t, uint32_t, const char*, void*))
DYNALIB_FN(15, system_net, network_get_hostname, int(network_handle_t, uint32_t, char*, size_t, void*))
DYNALIB_FN(16, system_net, network_is_on, bool(network_handle_t, void*))
 8081f30:	b508      	push	{r3, lr}
 8081f32:	4b02      	ldr	r3, [pc, #8]	; (8081f3c <network_is_on+0xc>)
 8081f34:	681b      	ldr	r3, [r3, #0]
 8081f36:	6c1b      	ldr	r3, [r3, #64]	; 0x40
 8081f38:	9301      	str	r3, [sp, #4]
 8081f3a:	bd08      	pop	{r3, pc}
 8081f3c:	080401c8 	.word	0x080401c8

08081f40 <network_is_off>:
DYNALIB_FN(17, system_net, network_is_off, bool(network_handle_t, void*))
 8081f40:	b508      	push	{r3, lr}
 8081f42:	4b02      	ldr	r3, [pc, #8]	; (8081f4c <network_is_off+0xc>)
 8081f44:	681b      	ldr	r3, [r3, #0]
 8081f46:	6c5b      	ldr	r3, [r3, #68]	; 0x44
 8081f48:	9301      	str	r3, [sp, #4]
 8081f4a:	bd08      	pop	{r3, pc}
 8081f4c:	080401c8 	.word	0x080401c8

08081f50 <malloc>:
#include "hal_platform.h"
#endif // defined(DYNALIB_EXPORT) || (defined(DYNALIB_IMPORT) && !defined(RT_DYNALIB_NO_DEPENDENCY_BREAKING_IMPORTS))

DYNALIB_BEGIN(rt)

DYNALIB_FN(0, rt, malloc, void*(size_t))
 8081f50:	b508      	push	{r3, lr}
 8081f52:	4b02      	ldr	r3, [pc, #8]	; (8081f5c <malloc+0xc>)
 8081f54:	681b      	ldr	r3, [r3, #0]
 8081f56:	681b      	ldr	r3, [r3, #0]
 8081f58:	9301      	str	r3, [sp, #4]
 8081f5a:	bd08      	pop	{r3, pc}
 8081f5c:	080401a0 	.word	0x080401a0

08081f60 <free>:
DYNALIB_FN(1, rt, free, void(void*))
 8081f60:	b508      	push	{r3, lr}
 8081f62:	4b02      	ldr	r3, [pc, #8]	; (8081f6c <free+0xc>)
 8081f64:	681b      	ldr	r3, [r3, #0]
 8081f66:	685b      	ldr	r3, [r3, #4]
 8081f68:	9301      	str	r3, [sp, #4]
 8081f6a:	bd08      	pop	{r3, pc}
 8081f6c:	080401a0 	.word	0x080401a0

08081f70 <realloc>:
DYNALIB_FN(2, rt, realloc, void*(void*, size_t))
 8081f70:	b508      	push	{r3, lr}
 8081f72:	4b02      	ldr	r3, [pc, #8]	; (8081f7c <realloc+0xc>)
 8081f74:	681b      	ldr	r3, [r3, #0]
 8081f76:	689b      	ldr	r3, [r3, #8]
 8081f78:	9301      	str	r3, [sp, #4]
 8081f7a:	bd08      	pop	{r3, pc}
 8081f7c:	080401a0 	.word	0x080401a0

08081f80 <siprintf>:
DYNALIB_FN(3, rt, sprintf, int(char*, const char*, ...))
DYNALIB_FN(4, rt, siprintf, int(char*, const char*, ...))
 8081f80:	b508      	push	{r3, lr}
 8081f82:	4b02      	ldr	r3, [pc, #8]	; (8081f8c <siprintf+0xc>)
 8081f84:	681b      	ldr	r3, [r3, #0]
 8081f86:	691b      	ldr	r3, [r3, #16]
 8081f88:	9301      	str	r3, [sp, #4]
 8081f8a:	bd08      	pop	{r3, pc}
 8081f8c:	080401a0 	.word	0x080401a0

08081f90 <snprintf>:
DYNALIB_FN(5, rt, sscanf, int(const char*, const char*, ...))
DYNALIB_FN(6, rt, siscanf, int(const char*, const char*, ...))
DYNALIB_FN(7, rt, snprintf, int(char*, size_t, const char*, ...))
 8081f90:	b508      	push	{r3, lr}
 8081f92:	4b02      	ldr	r3, [pc, #8]	; (8081f9c <snprintf+0xc>)
 8081f94:	681b      	ldr	r3, [r3, #0]
 8081f96:	69db      	ldr	r3, [r3, #28]
 8081f98:	9301      	str	r3, [sp, #4]
 8081f9a:	bd08      	pop	{r3, pc}
 8081f9c:	080401a0 	.word	0x080401a0

08081fa0 <vsnprintf>:
DYNALIB_FN(8, rt, sniprintf, int(char*, size_t, const char*, ...))
DYNALIB_FN(9, rt, vsnprintf, int(char*, size_t, const char*, va_list))
 8081fa0:	b508      	push	{r3, lr}
 8081fa2:	4b02      	ldr	r3, [pc, #8]	; (8081fac <vsnprintf+0xc>)
 8081fa4:	681b      	ldr	r3, [r3, #0]
 8081fa6:	6a5b      	ldr	r3, [r3, #36]	; 0x24
 8081fa8:	9301      	str	r3, [sp, #4]
 8081faa:	bd08      	pop	{r3, pc}
 8081fac:	080401a0 	.word	0x080401a0

08081fb0 <abort>:
DYNALIB_FN(10, rt, vsniprintf, int(char*, size_t, const char*, va_list))
DYNALIB_FN(11, rt, abort, void(void))
 8081fb0:	b508      	push	{r3, lr}
 8081fb2:	4b02      	ldr	r3, [pc, #8]	; (8081fbc <abort+0xc>)
 8081fb4:	681b      	ldr	r3, [r3, #0]
 8081fb6:	6adb      	ldr	r3, [r3, #44]	; 0x2c
 8081fb8:	9301      	str	r3, [sp, #4]
 8081fba:	bd08      	pop	{r3, pc}
 8081fbc:	080401a0 	.word	0x080401a0

08081fc0 <_malloc_r>:
DYNALIB_FN(12, rt, _malloc_r, void*(struct _reent*, size_t))
 8081fc0:	b508      	push	{r3, lr}
 8081fc2:	4b02      	ldr	r3, [pc, #8]	; (8081fcc <_malloc_r+0xc>)
 8081fc4:	681b      	ldr	r3, [r3, #0]
 8081fc6:	6b1b      	ldr	r3, [r3, #48]	; 0x30
 8081fc8:	9301      	str	r3, [sp, #4]
 8081fca:	bd08      	pop	{r3, pc}
 8081fcc:	080401a0 	.word	0x080401a0

08081fd0 <newlib_impure_ptr_callback>:
// RT is currently being imported into system-part1 from system-part2,
// which is the reverse direction.

#if defined(DYNALIB_EXPORT) || (defined(DYNALIB_IMPORT) && !defined(RT_DYNALIB_NO_DEPENDENCY_BREAKING_IMPORTS))
DYNALIB_FN(16, rt, __assert_func, void(const char*, int, const char*, const char*))
DYNALIB_FN(17, rt, newlib_impure_ptr_callback, void(void (*)(struct _reent*, size_t, uint32_t, void*), void*))
 8081fd0:	b508      	push	{r3, lr}
 8081fd2:	4b02      	ldr	r3, [pc, #8]	; (8081fdc <newlib_impure_ptr_callback+0xc>)
 8081fd4:	681b      	ldr	r3, [r3, #0]
 8081fd6:	6c5b      	ldr	r3, [r3, #68]	; 0x44
 8081fd8:	9301      	str	r3, [sp, #4]
 8081fda:	bd08      	pop	{r3, pc}
 8081fdc:	080401a0 	.word	0x080401a0

08081fe0 <delay>:
    return (value - fromStart) * (toEnd - toStart) / (fromEnd - fromStart) + toStart;
}

void delay(unsigned long ms)
{
    system_delay_ms(ms, false);
 8081fe0:	2100      	movs	r1, #0
 8081fe2:	f7ff be9f 	b.w	8081d24 <system_delay_ms>

08081fe6 <_ZN8particle6detail21futureCallbackWrapperEPv>:
 * License along with this library; if not, see <http://www.gnu.org/licenses/>.
 */

#include "spark_wiring_async.h"

void particle::detail::futureCallbackWrapper(void* data) {
 8081fe6:	b510      	push	{r4, lr}
  template<typename _Res, typename... _ArgTypes>
    _Res
    function<_Res(_ArgTypes...)>::
    operator()(_ArgTypes... __args) const
    {
      if (_M_empty())
 8081fe8:	6883      	ldr	r3, [r0, #8]
 8081fea:	4604      	mov	r4, r0
 8081fec:	b90b      	cbnz	r3, 8081ff2 <_ZN8particle6detail21futureCallbackWrapperEPv+0xc>
	__throw_bad_function_call();
 8081fee:	f002 fe21 	bl	8084c34 <_ZSt25__throw_bad_function_callv>
      return _M_invoker(_M_functor, std::forward<_ArgTypes>(__args)...);
 8081ff2:	68c3      	ldr	r3, [r0, #12]
 8081ff4:	4798      	blx	r3
      if (_M_manager)
 8081ff6:	68a3      	ldr	r3, [r4, #8]
 8081ff8:	b11b      	cbz	r3, 8082002 <_ZN8particle6detail21futureCallbackWrapperEPv+0x1c>
	_M_manager(_M_functor, _M_functor, __destroy_functor);
 8081ffa:	2203      	movs	r2, #3
 8081ffc:	4621      	mov	r1, r4
 8081ffe:	4620      	mov	r0, r4
 8082000:	4798      	blx	r3
    auto callbackPtr = static_cast<const std::function<void()>*>(data);
    (*callbackPtr)();
    delete callbackPtr;
 8082002:	4620      	mov	r0, r4
}
 8082004:	e8bd 4010 	ldmia.w	sp!, {r4, lr}
    delete callbackPtr;
 8082008:	2110      	movs	r1, #16
 808200a:	f002 be0d 	b.w	8084c28 <_ZdlPvj>

0808200e <_ZN5spark13CellularClass7resolveEPKc>:
    {
        return cellular_command((_CALLBACKPTR_MDM)cb, (void*)param, timeout_ms, format, Fargs...);
    }

#if !HAL_USE_INET_HAL_POSIX
    IPAddress resolve(const char* name)
 808200e:	b5f0      	push	{r4, r5, r6, r7, lr}
    {
        HAL_IPAddress ip = {0};
 8082010:	2600      	movs	r6, #0
    IPAddress resolve(const char* name)
 8082012:	b085      	sub	sp, #20
 8082014:	4604      	mov	r4, r0
        return (inet_gethostbyname(name, strlen(name), &ip, *this, NULL) != 0) ?
 8082016:	4610      	mov	r0, r2
    IPAddress resolve(const char* name)
 8082018:	460f      	mov	r7, r1
 808201a:	4615      	mov	r5, r2
        HAL_IPAddress ip = {0};
 808201c:	9603      	str	r6, [sp, #12]
        return (inet_gethostbyname(name, strlen(name), &ip, *this, NULL) != 0) ?
 808201e:	f003 fe80 	bl	8085d22 <strlen>
 8082022:	687b      	ldr	r3, [r7, #4]
 8082024:	b281      	uxth	r1, r0
 8082026:	9600      	str	r6, [sp, #0]
 8082028:	4628      	mov	r0, r5
 808202a:	aa03      	add	r2, sp, #12
 808202c:	f7ff fc88 	bl	8081940 <inet_gethostbyname>
                IPAddress(uint32_t(0)) : IPAddress(ip);
 8082030:	b130      	cbz	r0, 8082040 <_ZN5spark13CellularClass7resolveEPKc+0x32>
 8082032:	4631      	mov	r1, r6
 8082034:	4620      	mov	r0, r4
 8082036:	f000 fdb5 	bl	8082ba4 <_ZN9IPAddressC1Em>
    }
 808203a:	4620      	mov	r0, r4
 808203c:	b005      	add	sp, #20
 808203e:	bdf0      	pop	{r4, r5, r6, r7, pc}
                IPAddress(uint32_t(0)) : IPAddress(ip);
 8082040:	4620      	mov	r0, r4
 8082042:	a903      	add	r1, sp, #12
 8082044:	f000 fda6 	bl	8082b94 <_ZN9IPAddressC1ERK16_HAL_IPAddress_t>
 8082048:	e7f7      	b.n	808203a <_ZN5spark13CellularClass7resolveEPKc+0x2c>

0808204a <_ZN5spark13CellularClass9listeningEv>:
        return network_listening(*this, 0, NULL);
 808204a:	2200      	movs	r2, #0
 808204c:	6840      	ldr	r0, [r0, #4]
 808204e:	4611      	mov	r1, r2
 8082050:	f7ff bf56 	b.w	8081f00 <network_listening>

08082054 <_ZN5spark13CellularClass16getListenTimeoutEv>:
        return network_get_listen_timeout(*this, 0, NULL);
 8082054:	2200      	movs	r2, #0
 8082056:	6840      	ldr	r0, [r0, #4]
 8082058:	4611      	mov	r1, r2
 808205a:	f7ff bf61 	b.w	8081f20 <network_get_listen_timeout>

0808205e <_ZN5spark13CellularClass16setListenTimeoutEt>:
        network_set_listen_timeout(*this, timeout, NULL);
 808205e:	2200      	movs	r2, #0
 8082060:	6840      	ldr	r0, [r0, #4]
 8082062:	f7ff bf55 	b.w	8081f10 <network_set_listen_timeout>

08082066 <_ZN5spark13CellularClass6listenEb>:
        network_listen(*this, begin ? 0 : 1, NULL);
 8082066:	2200      	movs	r2, #0
 8082068:	6840      	ldr	r0, [r0, #4]
 808206a:	f081 0101 	eor.w	r1, r1, #1
 808206e:	f7ff bf3f 	b.w	8081ef0 <network_listen>

08082072 <_ZN5spark13CellularClass2onEv>:
        network_on(*this, 0, 0, NULL);
 8082072:	2300      	movs	r3, #0
 8082074:	6840      	ldr	r0, [r0, #4]
 8082076:	461a      	mov	r2, r3
 8082078:	4619      	mov	r1, r3
 808207a:	f7ff bf29 	b.w	8081ed0 <network_on>

0808207e <_ZN5spark13CellularClass10connectingEv>:
        return network_connecting(*this, 0, NULL);
 808207e:	2200      	movs	r2, #0
 8082080:	6840      	ldr	r0, [r0, #4]
 8082082:	4611      	mov	r1, r2
 8082084:	f7ff bf0c 	b.w	8081ea0 <network_connecting>

08082088 <_ZN5spark13CellularClass10disconnectEv>:
        network_disconnect(*this, NETWORK_DISCONNECT_REASON_USER, NULL);
 8082088:	2200      	movs	r2, #0
 808208a:	2102      	movs	r1, #2
 808208c:	6840      	ldr	r0, [r0, #4]
 808208e:	f7ff bf0f 	b.w	8081eb0 <network_disconnect>

08082092 <_ZN5spark13CellularClass7connectEj>:
        network_connect(*this, flags, 0, NULL);
 8082092:	2300      	movs	r3, #0
 8082094:	6840      	ldr	r0, [r0, #4]
 8082096:	461a      	mov	r2, r3
 8082098:	f7ff befa 	b.w	8081e90 <network_connect>

0808209c <_ZN5spark13CellularClass4RSSIEv>:

// #include "cellular_internal.h"

namespace spark {

    CellularSignal CellularClass::RSSI() {
 808209c:	b5f0      	push	{r4, r5, r6, r7, lr}
    int qual __attribute__((deprecated("Use getQualityValue() instead"))) = 0;

// TODO: remove once rssi/qual are removed
#pragma GCC diagnostic push
#pragma GCC diagnostic ignored "-Wdeprecated-declarations"
    CellularSignal() {}
 808209e:	2500      	movs	r5, #0
 80820a0:	2618      	movs	r6, #24
 80820a2:	460f      	mov	r7, r1
 80820a4:	4b19      	ldr	r3, [pc, #100]	; (808210c <_ZN5spark13CellularClass4RSSIEv+0x70>)
 80820a6:	4632      	mov	r2, r6
 80820a8:	6003      	str	r3, [r0, #0]
 80820aa:	3330      	adds	r3, #48	; 0x30
 80820ac:	4629      	mov	r1, r5
 80820ae:	e9c0 5502 	strd	r5, r5, [r0, #8]
 80820b2:	b089      	sub	sp, #36	; 0x24
 80820b4:	6043      	str	r3, [r0, #4]
 80820b6:	4604      	mov	r4, r0
 80820b8:	3010      	adds	r0, #16
 80820ba:	f003 fdb2 	bl	8085c22 <memset>
// TODO: remove once rssi/qual are removed
#pragma GCC diagnostic push
#pragma GCC diagnostic ignored "-Wdeprecated-declarations"
        CellularSignal sig;
        if (!network_ready(*this, 0, NULL)) {
 80820be:	462a      	mov	r2, r5
 80820c0:	4629      	mov	r1, r5
 80820c2:	6878      	ldr	r0, [r7, #4]
 80820c4:	f7ff fefc 	bl	8081ec0 <network_ready>
 80820c8:	b918      	cbnz	r0, 80820d2 <_ZN5spark13CellularClass4RSSIEv+0x36>
            sig.rssi = 0;
 80820ca:	60a0      	str	r0, [r4, #8]
            sig.rssi = 2;
        }
        sig.fromHalCellularSignal(sigext);
        return sig;
#pragma GCC diagnostic pop
    }
 80820cc:	4620      	mov	r0, r4
 80820ce:	b009      	add	sp, #36	; 0x24
 80820d0:	bdf0      	pop	{r4, r5, r6, r7, pc}
        cellular_signal_t sigext = {0};
 80820d2:	4629      	mov	r1, r5
 80820d4:	4632      	mov	r2, r6
 80820d6:	a802      	add	r0, sp, #8
        CellularSignalHal sig_hal = {0};
 80820d8:	e9cd 5500 	strd	r5, r5, [sp]
        cellular_signal_t sigext = {0};
 80820dc:	f003 fda1 	bl	8085c22 <memset>
        if (cellular_signal(&sig_hal, &sigext) != 0) {
 80820e0:	4668      	mov	r0, sp
 80820e2:	a902      	add	r1, sp, #8
        sigext.size = sizeof(sigext);
 80820e4:	f8ad 6008 	strh.w	r6, [sp, #8]
        if (cellular_signal(&sig_hal, &sigext) != 0) {
 80820e8:	f7ff fc32 	bl	8081950 <cellular_signal>
 80820ec:	b110      	cbz	r0, 80820f4 <_ZN5spark13CellularClass4RSSIEv+0x58>
            sig.rssi = 1;
 80820ee:	2301      	movs	r3, #1
 80820f0:	60a3      	str	r3, [r4, #8]
            return sig;
 80820f2:	e7eb      	b.n	80820cc <_ZN5spark13CellularClass4RSSIEv+0x30>
        sig.rssi = sig_hal.rssi;
 80820f4:	9b00      	ldr	r3, [sp, #0]
        sig.qual = sig_hal.qual;
 80820f6:	9a01      	ldr	r2, [sp, #4]
        sig.rssi = sig_hal.rssi;
 80820f8:	60a3      	str	r3, [r4, #8]
        sig.qual = sig_hal.qual;
 80820fa:	60e2      	str	r2, [r4, #12]
        if (sig.rssi == 0) {
 80820fc:	b90b      	cbnz	r3, 8082102 <_ZN5spark13CellularClass4RSSIEv+0x66>
            sig.rssi = 2;
 80820fe:	2302      	movs	r3, #2
 8082100:	60a3      	str	r3, [r4, #8]
        sig.fromHalCellularSignal(sigext);
 8082102:	4620      	mov	r0, r4
 8082104:	a902      	add	r1, sp, #8
 8082106:	f000 f8b8 	bl	808227a <_ZN14CellularSignal21fromHalCellularSignalERK17cellular_signal_t>
        return sig;
 808210a:	e7df      	b.n	80820cc <_ZN5spark13CellularClass4RSSIEv+0x30>
 808210c:	080863f8 	.word	0x080863f8

08082110 <_GLOBAL__sub_I__ZN5spark13CellularClass4RSSIEv>:
        return (band_get.ok = true);
    }

    CellularClass Cellular;
    // NetworkClass& Network = Cellular;
}
 8082110:	b510      	push	{r4, lr}
    int tx_total;
    int rx_total;

    CellularDataHal()
    {
        memset(this, 0, sizeof(*this));
 8082112:	2428      	movs	r4, #40	; 0x28
 8082114:	4b07      	ldr	r3, [pc, #28]	; (8082134 <_GLOBAL__sub_I__ZN5spark13CellularClass4RSSIEv+0x24>)
 8082116:	4622      	mov	r2, r4
 8082118:	4618      	mov	r0, r3
 808211a:	2100      	movs	r1, #0
 808211c:	f003 fd81 	bl	8085c22 <memset>
        cid = -1;
 8082120:	f04f 32ff 	mov.w	r2, #4294967295	; 0xffffffff
 8082124:	6042      	str	r2, [r0, #4]
    static NetworkClass& from(network_interface_t nif);

    virtual IPAddress resolve(const char* name);

    explicit NetworkClass(network_interface_t iface)
            : iface_(iface) {
 8082126:	2204      	movs	r2, #4
 8082128:	4b03      	ldr	r3, [pc, #12]	; (8082138 <_GLOBAL__sub_I__ZN5spark13CellularClass4RSSIEv+0x28>)
        size = sizeof(*this);
 808212a:	8004      	strh	r4, [r0, #0]
 808212c:	605a      	str	r2, [r3, #4]
            NetworkClass(NETWORK_INTERFACE_CELLULAR) {
 808212e:	4a03      	ldr	r2, [pc, #12]	; (808213c <_GLOBAL__sub_I__ZN5spark13CellularClass4RSSIEv+0x2c>)
 8082130:	601a      	str	r2, [r3, #0]
 8082132:	bd10      	pop	{r4, pc}
 8082134:	200001a4 	.word	0x200001a4
 8082138:	2000019c 	.word	0x2000019c
 808213c:	080863bc 	.word	0x080863bc

08082140 <_ZN14CellularSignalD1Ev>:
    CellularSignal(const cellular_signal_t& sig);
    virtual ~CellularSignal() {};
 8082140:	4770      	bx	lr

08082142 <_ZNK14CellularSignal19getAccessTechnologyEv>:
#pragma GCC diagnostic pop

hal_net_access_tech_t CellularSignal::getAccessTechnology() const
{
    return static_cast<hal_net_access_tech_t>(sig_.rat);
}
 8082142:	7d00      	ldrb	r0, [r0, #20]
 8082144:	4770      	bx	lr

08082146 <_ZNK14CellularSignal7isValidEv>:
    return n;
}
#pragma GCC diagnostic pop

bool CellularSignal::isValid() const
{
 8082146:	4603      	mov	r3, r0
    return (sig_.rat != NET_ACCESS_TECHNOLOGY_NONE &&
 8082148:	7d00      	ldrb	r0, [r0, #20]
            sig_.rssi != std::numeric_limits<int32_t>::min() &&
 808214a:	b170      	cbz	r0, 808216a <_ZNK14CellularSignal7isValidEv+0x24>
    return (sig_.rat != NET_ACCESS_TECHNOLOGY_NONE &&
 808214c:	699a      	ldr	r2, [r3, #24]
 808214e:	f1b2 4f00 	cmp.w	r2, #2147483648	; 0x80000000
 8082152:	d007      	beq.n	8082164 <_ZNK14CellularSignal7isValidEv+0x1e>
            sig_.rssi != std::numeric_limits<int32_t>::min() &&
 8082154:	2802      	cmp	r0, #2
 8082156:	d007      	beq.n	8082168 <_ZNK14CellularSignal7isValidEv+0x22>
#if (PLATFORM_ID == PLATFORM_ELECTRON_PRODUCTION)
            // U-blox GSM radios may not always support quality as it depends on the packet switching mode
            // at the time of network connection, which is not possible to query. For now, we will return "true"
            // for GSM Electrons and will not check if quality is actually supported / valid.
            // Hence, `isValid()` can return "true" for invalid signal value. To add a note in docs.
            (sig_.rat == NET_ACCESS_TECHNOLOGY_GSM || sig_.qual != std::numeric_limits<int32_t>::min()));
 8082158:	6a18      	ldr	r0, [r3, #32]
 808215a:	f1b0 4000 	subs.w	r0, r0, #2147483648	; 0x80000000
 808215e:	bf18      	it	ne
 8082160:	2001      	movne	r0, #1
 8082162:	4770      	bx	lr
            sig_.rssi != std::numeric_limits<int32_t>::min() &&
 8082164:	2000      	movs	r0, #0
 8082166:	4770      	bx	lr
 8082168:	2001      	movs	r0, #1
#else
            sig_.qual != std::numeric_limits<int32_t>::min());
#endif
}
 808216a:	4770      	bx	lr

0808216c <_ZNK14CellularSignalcvbEv>:

CellularSignal::operator bool() const
{
    return isValid();
 808216c:	6803      	ldr	r3, [r0, #0]
 808216e:	6a1b      	ldr	r3, [r3, #32]
 8082170:	4718      	bx	r3

08082172 <_ZN14CellularSignalD0Ev>:
 8082172:	b510      	push	{r4, lr}
 8082174:	4604      	mov	r4, r0
 8082176:	2128      	movs	r1, #40	; 0x28
 8082178:	f002 fd56 	bl	8084c28 <_ZdlPvj>
 808217c:	4620      	mov	r0, r4
 808217e:	bd10      	pop	{r4, pc}

08082180 <_ZNK14CellularSignal11getStrengthEv>:
{
 8082180:	b508      	push	{r3, lr}
    if (sig_.rat != NET_ACCESS_TECHNOLOGY_NONE && sig_.strength >= 0) {
 8082182:	7d03      	ldrb	r3, [r0, #20]
 8082184:	b15b      	cbz	r3, 808219e <_ZNK14CellularSignal11getStrengthEv+0x1e>
 8082186:	69c0      	ldr	r0, [r0, #28]
 8082188:	2800      	cmp	r0, #0
 808218a:	db08      	blt.n	808219e <_ZNK14CellularSignal11getStrengthEv+0x1e>
        return (float)sig_.strength / 65535.0f * 100.0f;
 808218c:	f003 fa76 	bl	808567c <__aeabi_i2f>
 8082190:	4904      	ldr	r1, [pc, #16]	; (80821a4 <_ZNK14CellularSignal11getStrengthEv+0x24>)
 8082192:	f003 fb7b 	bl	808588c <__aeabi_fdiv>
 8082196:	4904      	ldr	r1, [pc, #16]	; (80821a8 <_ZNK14CellularSignal11getStrengthEv+0x28>)
 8082198:	f003 fac4 	bl	8085724 <__aeabi_fmul>
}
 808219c:	bd08      	pop	{r3, pc}
    return -1.0f;
 808219e:	4803      	ldr	r0, [pc, #12]	; (80821ac <_ZNK14CellularSignal11getStrengthEv+0x2c>)
 80821a0:	e7fc      	b.n	808219c <_ZNK14CellularSignal11getStrengthEv+0x1c>
 80821a2:	bf00      	nop
 80821a4:	477fff00 	.word	0x477fff00
 80821a8:	42c80000 	.word	0x42c80000
 80821ac:	bf800000 	.word	0xbf800000

080821b0 <_ZNK14CellularSignal16getStrengthValueEv>:
{
 80821b0:	b508      	push	{r3, lr}
    if (sig_.rat != NET_ACCESS_TECHNOLOGY_NONE && sig_.rssi != std::numeric_limits<int32_t>::min()) {
 80821b2:	7d03      	ldrb	r3, [r0, #20]
 80821b4:	b14b      	cbz	r3, 80821ca <_ZNK14CellularSignal16getStrengthValueEv+0x1a>
 80821b6:	6980      	ldr	r0, [r0, #24]
 80821b8:	f1b0 4f00 	cmp.w	r0, #2147483648	; 0x80000000
 80821bc:	d005      	beq.n	80821ca <_ZNK14CellularSignal16getStrengthValueEv+0x1a>
        return (float)sig_.rssi / 100.0f;
 80821be:	f003 fa5d 	bl	808567c <__aeabi_i2f>
 80821c2:	4903      	ldr	r1, [pc, #12]	; (80821d0 <_ZNK14CellularSignal16getStrengthValueEv+0x20>)
 80821c4:	f003 fb62 	bl	808588c <__aeabi_fdiv>
}
 80821c8:	bd08      	pop	{r3, pc}
    return 0.0f;
 80821ca:	2000      	movs	r0, #0
 80821cc:	e7fc      	b.n	80821c8 <_ZNK14CellularSignal16getStrengthValueEv+0x18>
 80821ce:	bf00      	nop
 80821d0:	42c80000 	.word	0x42c80000

080821d4 <_ZNK14CellularSignal10getQualityEv>:
{
 80821d4:	b508      	push	{r3, lr}
    if (sig_.rat != NET_ACCESS_TECHNOLOGY_NONE && sig_.quality >= 0) {
 80821d6:	7d03      	ldrb	r3, [r0, #20]
 80821d8:	b15b      	cbz	r3, 80821f2 <_ZNK14CellularSignal10getQualityEv+0x1e>
 80821da:	6a40      	ldr	r0, [r0, #36]	; 0x24
 80821dc:	2800      	cmp	r0, #0
 80821de:	db08      	blt.n	80821f2 <_ZNK14CellularSignal10getQualityEv+0x1e>
        return (float)sig_.quality / 65535.0f * 100.0f;
 80821e0:	f003 fa4c 	bl	808567c <__aeabi_i2f>
 80821e4:	4904      	ldr	r1, [pc, #16]	; (80821f8 <_ZNK14CellularSignal10getQualityEv+0x24>)
 80821e6:	f003 fb51 	bl	808588c <__aeabi_fdiv>
 80821ea:	4904      	ldr	r1, [pc, #16]	; (80821fc <_ZNK14CellularSignal10getQualityEv+0x28>)
 80821ec:	f003 fa9a 	bl	8085724 <__aeabi_fmul>
}
 80821f0:	bd08      	pop	{r3, pc}
    return -1.0f;
 80821f2:	4803      	ldr	r0, [pc, #12]	; (8082200 <_ZNK14CellularSignal10getQualityEv+0x2c>)
 80821f4:	e7fc      	b.n	80821f0 <_ZNK14CellularSignal10getQualityEv+0x1c>
 80821f6:	bf00      	nop
 80821f8:	477fff00 	.word	0x477fff00
 80821fc:	42c80000 	.word	0x42c80000
 8082200:	bf800000 	.word	0xbf800000

08082204 <_ZNK14CellularSignal15getQualityValueEv>:
{
 8082204:	b508      	push	{r3, lr}
    if (sig_.rat != NET_ACCESS_TECHNOLOGY_NONE && sig_.qual != std::numeric_limits<int32_t>::min()) {
 8082206:	7d03      	ldrb	r3, [r0, #20]
 8082208:	b14b      	cbz	r3, 808221e <_ZNK14CellularSignal15getQualityValueEv+0x1a>
 808220a:	6a00      	ldr	r0, [r0, #32]
 808220c:	f1b0 4f00 	cmp.w	r0, #2147483648	; 0x80000000
 8082210:	d005      	beq.n	808221e <_ZNK14CellularSignal15getQualityValueEv+0x1a>
        return (float)sig_.qual / 100.0f;
 8082212:	f003 fa33 	bl	808567c <__aeabi_i2f>
 8082216:	4903      	ldr	r1, [pc, #12]	; (8082224 <_ZNK14CellularSignal15getQualityValueEv+0x20>)
 8082218:	f003 fb38 	bl	808588c <__aeabi_fdiv>
}
 808221c:	bd08      	pop	{r3, pc}
    return 0.0f;
 808221e:	2000      	movs	r0, #0
 8082220:	e7fc      	b.n	808221c <_ZNK14CellularSignal15getQualityValueEv+0x18>
 8082222:	bf00      	nop
 8082224:	42c80000 	.word	0x42c80000

08082228 <_ZN5Print5printIiLi0EEEjT_i.part.0.constprop.0>:
    size_t vprintf(bool newline, const char* format, va_list args) __attribute__ ((format(printf, 3, 0)));
};

template <typename T, std::enable_if_t<!std::is_base_of<Printable, T>::value && (std::is_integral<T>::value || std::is_convertible<T, unsigned long long>::value ||
    std::is_convertible<T, long long>::value), int>>
size_t Print::print(T n, int base)
 8082228:	b570      	push	{r4, r5, r6, lr}
// FIXME: avoids 'comparison of constant '0' with boolean expression is always false'
#if __GNUC__ >= 9
#pragma GCC diagnostic push
#pragma GCC diagnostic ignored "-Wbool-compare"
#endif // __GNUC__ >= 9
        if (n < 0 && base == 10) {
 808222a:	1e0c      	subs	r4, r1, #0
size_t Print::print(T n, int base)
 808222c:	4606      	mov	r6, r0
        if (n < 0 && base == 10) {
 808222e:	da0a      	bge.n	8082246 <_ZN5Print5printIiLi0EEEjT_i.part.0.constprop.0+0x1e>
            t = print('-');
 8082230:	212d      	movs	r1, #45	; 0x2d
 8082232:	f001 ff2e 	bl	8084092 <_ZN5Print5printEc>
 8082236:	4605      	mov	r5, r0
            val = -n;
 8082238:	4261      	negs	r1, r4
            val = n;
        }
#if __GNUC__ >= 9
#pragma GCC diagnostic pop
#endif // __GNUC__ >= 9
        return printNumber(val, base) + t;
 808223a:	220a      	movs	r2, #10
 808223c:	4630      	mov	r0, r6
 808223e:	f001 ff41 	bl	80840c4 <_ZN5Print11printNumberEmh>
    }
}
 8082242:	4428      	add	r0, r5
 8082244:	bd70      	pop	{r4, r5, r6, pc}
            val = n;
 8082246:	4621      	mov	r1, r4
        size_t t = 0;
 8082248:	2500      	movs	r5, #0
 808224a:	e7f6      	b.n	808223a <_ZN5Print5printIiLi0EEEjT_i.part.0.constprop.0+0x12>

0808224c <_ZNK14CellularSignal7printToER5Print>:
{
 808224c:	b570      	push	{r4, r5, r6, lr}
 808224e:	460c      	mov	r4, r1
 8082250:	4605      	mov	r5, r0
 8082252:	6881      	ldr	r1, [r0, #8]
 8082254:	4620      	mov	r0, r4
 8082256:	f7ff ffe7 	bl	8082228 <_ZN5Print5printIiLi0EEEjT_i.part.0.constprop.0>
    n += p.print(',');
 808225a:	212c      	movs	r1, #44	; 0x2c
 808225c:	4606      	mov	r6, r0
 808225e:	4620      	mov	r0, r4
 8082260:	f001 ff17 	bl	8084092 <_ZN5Print5printEc>
 8082264:	68e9      	ldr	r1, [r5, #12]
 8082266:	4406      	add	r6, r0
size_t Print::print(T n, int base)
 8082268:	4620      	mov	r0, r4
 808226a:	f7ff ffdd 	bl	8082228 <_ZN5Print5printIiLi0EEEjT_i.part.0.constprop.0>
}
 808226e:	4430      	add	r0, r6
 8082270:	bd70      	pop	{r4, r5, r6, pc}

08082272 <_ZThn4_NK14CellularSignal7printToER5Print>:
    virtual float getStrength() const;
    virtual float getStrengthValue() const;
    virtual float getQuality() const;
    virtual float getQualityValue() const;

    virtual size_t printTo(Print& p) const;
 8082272:	f1a0 0004 	sub.w	r0, r0, #4
 8082276:	f7ff bfe9 	b.w	808224c <_ZNK14CellularSignal7printToER5Print>

0808227a <_ZN14CellularSignal21fromHalCellularSignalERK17cellular_signal_t>:
{
 808227a:	b530      	push	{r4, r5, lr}
    sig_ = sig;
 808227c:	460d      	mov	r5, r1
 808227e:	f100 0410 	add.w	r4, r0, #16
 8082282:	cd0f      	ldmia	r5!, {r0, r1, r2, r3}
 8082284:	c40f      	stmia	r4!, {r0, r1, r2, r3}
 8082286:	e895 0003 	ldmia.w	r5, {r0, r1}
 808228a:	e884 0003 	stmia.w	r4, {r0, r1}
}
 808228e:	2001      	movs	r0, #1
 8082290:	bd30      	pop	{r4, r5, pc}

08082292 <_ZNSt15_Sp_counted_ptrIPN8particle6detail10FutureImplIbNS1_13FutureContextEEELN9__gnu_cxx12_Lock_policyE0EED1Ev>:
    class _Sp_counted_ptr final : public _Sp_counted_base<_Lp>
 8082292:	4770      	bx	lr

08082294 <_ZNSt15_Sp_counted_ptrIPN8particle6detail10FutureImplIbNS1_13FutureContextEEELN9__gnu_cxx12_Lock_policyE0EE14_M_get_deleterERKSt9type_info>:
      { return nullptr; }
 8082294:	2000      	movs	r0, #0
 8082296:	4770      	bx	lr

08082298 <_ZNSt15_Sp_counted_ptrIPN8particle6detail10FutureImplIbNS1_13FutureContextEEELN9__gnu_cxx12_Lock_policyE0EED0Ev>:
    class _Sp_counted_ptr final : public _Sp_counted_base<_Lp>
 8082298:	b510      	push	{r4, lr}
 808229a:	4604      	mov	r4, r0
 808229c:	2110      	movs	r1, #16
 808229e:	f002 fcc3 	bl	8084c28 <_ZdlPvj>
 80822a2:	4620      	mov	r0, r4
 80822a4:	bd10      	pop	{r4, pc}

080822a6 <_ZNSt15_Sp_counted_ptrIPN8particle6detail10FutureImplIbNS1_13FutureContextEEELN9__gnu_cxx12_Lock_policyE0EE10_M_destroyEv>:
      _M_destroy() noexcept
 80822a6:	b508      	push	{r3, lr}
      { delete this; }
 80822a8:	f7ff fff6 	bl	8082298 <_ZNSt15_Sp_counted_ptrIPN8particle6detail10FutureImplIbNS1_13FutureContextEEELN9__gnu_cxx12_Lock_policyE0EED0Ev>
 80822ac:	bd08      	pop	{r3, pc}

080822ae <_ZNSt14_Function_baseD1Ev>:
    ~_Function_base()
 80822ae:	b510      	push	{r4, lr}
      if (_M_manager)
 80822b0:	6883      	ldr	r3, [r0, #8]
    ~_Function_base()
 80822b2:	4604      	mov	r4, r0
      if (_M_manager)
 80822b4:	b113      	cbz	r3, 80822bc <_ZNSt14_Function_baseD1Ev+0xe>
	_M_manager(_M_functor, _M_functor, __destroy_functor);
 80822b6:	2203      	movs	r2, #3
 80822b8:	4601      	mov	r1, r0
 80822ba:	4798      	blx	r3
    }
 80822bc:	4620      	mov	r0, r4
 80822be:	bd10      	pop	{r4, pc}

080822c0 <_ZN8particle5ErrorC1EOS0_>:

} // namespace particle

inline particle::Error::Error(Type type) :
        msg_(nullptr),
        type_(type) {
 80822c0:	2200      	movs	r2, #0

inline particle::Error::Error(const Error& error) :
        Error(error.type_, error.msg_) {
}

inline particle::Error::Error(Error&& error) :
 80822c2:	b530      	push	{r4, r5, lr}
        type_(type) {
 80822c4:	f64f 749c 	movw	r4, #65436	; 0xff9c
 80822c8:	6002      	str	r2, [r0, #0]
 80822ca:	8084      	strh	r4, [r0, #4]
    {
      // concept requirements
      __glibcxx_function_requires(_SGIAssignableConcept<_Tp>)

      _Tp __tmp = _GLIBCXX_MOVE(__a);
      __a = _GLIBCXX_MOVE(__b);
 80822cc:	888d      	ldrh	r5, [r1, #4]
      __b = _GLIBCXX_MOVE(__tmp);
 80822ce:	808c      	strh	r4, [r1, #4]
      __a = _GLIBCXX_MOVE(__b);
 80822d0:	680c      	ldr	r4, [r1, #0]
 80822d2:	8085      	strh	r5, [r0, #4]
 80822d4:	6004      	str	r4, [r0, #0]
      __b = _GLIBCXX_MOVE(__tmp);
 80822d6:	600a      	str	r2, [r1, #0]
        Error() {
    swap(*this, error);
}
 80822d8:	bd30      	pop	{r4, r5, pc}

080822da <_ZN8particle5ErrorD1Ev>:

inline particle::Error::~Error() {
 80822da:	b510      	push	{r4, lr}
 80822dc:	4604      	mov	r4, r0
    free((void*)msg_);
 80822de:	6800      	ldr	r0, [r0, #0]
 80822e0:	f7ff fe3e 	bl	8081f60 <free>
}
 80822e4:	4620      	mov	r0, r4
 80822e6:	bd10      	pop	{r4, pc}

080822e8 <_ZNSt15_Sp_counted_ptrIPN8particle6detail10FutureImplIbNS1_13FutureContextEEELN9__gnu_cxx12_Lock_policyE0EE10_M_disposeEv>:
      _M_dispose() noexcept
 80822e8:	b538      	push	{r3, r4, r5, lr}
      { delete _M_ptr; }
 80822ea:	68c4      	ldr	r4, [r0, #12]
 80822ec:	b1f4      	cbz	r4, 808232c <_ZNSt15_Sp_counted_ptrIPN8particle6detail10FutureImplIbNS1_13FutureContextEEELN9__gnu_cxx12_Lock_policyE0EE10_M_disposeEv+0x44>
      _Tp
      load(memory_order __m = memory_order_seq_cst) const noexcept
      {
	alignas(_Tp) unsigned char __buf[sizeof(_Tp)];
	_Tp* __ptr = reinterpret_cast<_Tp*>(__buf);
	__atomic_load(std::__addressof(_M_i), __ptr, int(__m));
 80822ee:	7823      	ldrb	r3, [r4, #0]
    ~FutureImpl() {
        // Call destructor of the appropriate unnamed enum's field
        const State s = this->state();
        if (s == State::SUCCEEDED) {
            result_.~ResultT();
        } else if (s == State::FAILED) {
 80822f0:	2b02      	cmp	r3, #2
 80822f2:	d103      	bne.n	80822fc <_ZNSt15_Sp_counted_ptrIPN8particle6detail10FutureImplIbNS1_13FutureContextEEELN9__gnu_cxx12_Lock_policyE0EE10_M_disposeEv+0x14>
            error_.~Error();
 80822f4:	f104 000c 	add.w	r0, r4, #12
 80822f8:	f7ff ffef 	bl	80822da <_ZN8particle5ErrorD1Ev>
      {
	memory_order __b = __m & __memory_order_mask;
	__glibcxx_assert(__b != memory_order_release);
	__glibcxx_assert(__b != memory_order_acq_rel);

	return __atomic_load_n(&_M_p, int(__m));
 80822fc:	6865      	ldr	r5, [r4, #4]
        delete onSuccess_.load(std::memory_order_relaxed);
 80822fe:	b135      	cbz	r5, 808230e <_ZNSt15_Sp_counted_ptrIPN8particle6detail10FutureImplIbNS1_13FutureContextEEELN9__gnu_cxx12_Lock_policyE0EE10_M_disposeEv+0x26>
    class function<_Res(_ArgTypes...)>
 8082300:	4628      	mov	r0, r5
 8082302:	f7ff ffd4 	bl	80822ae <_ZNSt14_Function_baseD1Ev>
 8082306:	2110      	movs	r1, #16
 8082308:	4628      	mov	r0, r5
 808230a:	f002 fc8d 	bl	8084c28 <_ZdlPvj>
 808230e:	68a5      	ldr	r5, [r4, #8]
        delete onError_.load(std::memory_order_relaxed);
 8082310:	b135      	cbz	r5, 8082320 <_ZNSt15_Sp_counted_ptrIPN8particle6detail10FutureImplIbNS1_13FutureContextEEELN9__gnu_cxx12_Lock_policyE0EE10_M_disposeEv+0x38>
 8082312:	4628      	mov	r0, r5
 8082314:	f7ff ffcb 	bl	80822ae <_ZNSt14_Function_baseD1Ev>
 8082318:	2110      	movs	r1, #16
 808231a:	4628      	mov	r0, r5
 808231c:	f002 fc84 	bl	8084c28 <_ZdlPvj>
 8082320:	4620      	mov	r0, r4
 8082322:	e8bd 4038 	ldmia.w	sp!, {r3, r4, r5, lr}
 8082326:	2114      	movs	r1, #20
 8082328:	f002 bc7e 	b.w	8084c28 <_ZdlPvj>
 808232c:	bd38      	pop	{r3, r4, r5, pc}

0808232e <_ZN10CloudClass22call_raw_user_functionEPvPKcS0_>:
    }
    return CloudDisconnectOptions(options->flags, options->timeout, options->graceful, clearSession);
}

int CloudClass::call_raw_user_function(void* data, const char* param, void* reserved)
{
 808232e:	b510      	push	{r4, lr}
 8082330:	b088      	sub	sp, #32
 8082332:	4604      	mov	r4, r0
    user_function_int_str_t* fn = (user_function_int_str_t*)(data);
    String p(param);
 8082334:	4668      	mov	r0, sp
 8082336:	f001 ff72 	bl	808421e <_ZN6StringC1EPKc>
    return (*fn)(p);
 808233a:	4669      	mov	r1, sp
 808233c:	a804      	add	r0, sp, #16
 808233e:	f001 ffb8 	bl	80842b2 <_ZN6StringC1ERKS_>
 8082342:	a804      	add	r0, sp, #16
 8082344:	47a0      	blx	r4
 8082346:	4604      	mov	r4, r0
 8082348:	a804      	add	r0, sp, #16
 808234a:	f001 ff1e 	bl	808418a <_ZN6StringD1Ev>
    String p(param);
 808234e:	4668      	mov	r0, sp
 8082350:	f001 ff1b 	bl	808418a <_ZN6StringD1Ev>
}
 8082354:	4620      	mov	r0, r4
 8082356:	b008      	add	sp, #32
 8082358:	bd10      	pop	{r4, pc}

0808235a <_ZN10CloudClass17register_functionEPFiPvPKcS0_ES0_S2_>:
    wiring_event_handler_t* fn = (wiring_event_handler_t*)(handler_data);
    (*fn)(event_name, data);
}

bool CloudClass::register_function(cloud_function_t fn, void* data, const char* funcKey)
{
 808235a:	b51f      	push	{r0, r1, r2, r3, r4, lr}
    const char *funcKey;
    cloud_function_t fn;
    void* data;

     cloud_function_descriptor() {
         memset(this, 0, sizeof(*this));
 808235c:	2300      	movs	r3, #0
         size = sizeof(*this);
 808235e:	2410      	movs	r4, #16
    cloud_function_descriptor desc = {};
    desc.size = sizeof(desc);
    desc.fn = fn;
    desc.data = (void*)data;
 8082360:	e9cd 0102 	strd	r0, r1, [sp, #8]
    desc.funcKey = funcKey;
 8082364:	9201      	str	r2, [sp, #4]
    return spark_function(NULL, (user_function_int_str_t*)&desc, NULL);
 8082366:	4669      	mov	r1, sp
 8082368:	461a      	mov	r2, r3
 808236a:	4618      	mov	r0, r3
         memset(this, 0, sizeof(*this));
 808236c:	f8ad 3002 	strh.w	r3, [sp, #2]
         size = sizeof(*this);
 8082370:	f8ad 4000 	strh.w	r4, [sp]
 8082374:	f7ff fd2c 	bl	8081dd0 <spark_function>
}
 8082378:	b004      	add	sp, #16
 808237a:	bd10      	pop	{r4, pc}

0808237c <_ZN10CloudClass10disconnectERK22CloudDisconnectOptions>:

int CloudClass::publishVitals(system_tick_t period_s_) {
    return spark_publish_vitals(period_s_, nullptr);
}

void CloudClass::disconnect(const CloudDisconnectOptions& options) {
 808237c:	b51f      	push	{r0, r1, r2, r3, r4, lr}
    opts.size = sizeof(opts);
 808237e:	230c      	movs	r3, #12
    spark_cloud_disconnect_options opts = {};
 8082380:	2100      	movs	r1, #0
    opts.size = sizeof(opts);
 8082382:	f8ad 3004 	strh.w	r3, [sp, #4]
    opts.flags = flags_;
 8082386:	6803      	ldr	r3, [r0, #0]
    spark_cloud_disconnect_options opts = {};
 8082388:	f8ad 100d 	strh.w	r1, [sp, #13]
    opts.flags = flags_;
 808238c:	f88d 3006 	strb.w	r3, [sp, #6]
    opts.graceful = graceful_;
 8082390:	7a03      	ldrb	r3, [r0, #8]
    spark_cloud_disconnect_options opts = {};
 8082392:	f88d 100f 	strb.w	r1, [sp, #15]
    opts.graceful = graceful_;
 8082396:	f88d 3007 	strb.w	r3, [sp, #7]
    opts.timeout = timeout_;
 808239a:	6843      	ldr	r3, [r0, #4]
 808239c:	9302      	str	r3, [sp, #8]
    opts.clear_session = clearSession_;
 808239e:	7a43      	ldrb	r3, [r0, #9]
    const auto opts = options.toSystemOptions();
    spark_cloud_disconnect(&opts, nullptr /* reserved */);
 80823a0:	a801      	add	r0, sp, #4
    opts.clear_session = clearSession_;
 80823a2:	f88d 300c 	strb.w	r3, [sp, #12]
    spark_cloud_disconnect(&opts, nullptr /* reserved */);
 80823a6:	f7ff fd6b 	bl	8081e80 <spark_cloud_disconnect>
}
 80823aa:	b005      	add	sp, #20
 80823ac:	f85d fb04 	ldr.w	pc, [sp], #4

080823b0 <_ZNSt14__shared_countILN9__gnu_cxx12_Lock_policyE0EEC1ERKS2_>:
      : _M_pi(__r._M_pi)
 80823b0:	680b      	ldr	r3, [r1, #0]
 80823b2:	6003      	str	r3, [r0, #0]
	if (_M_pi != 0)
 80823b4:	b113      	cbz	r3, 80823bc <_ZNSt14__shared_countILN9__gnu_cxx12_Lock_policyE0EEC1ERKS2_+0xc>
    { ++_M_use_count; }
 80823b6:	685a      	ldr	r2, [r3, #4]
 80823b8:	3201      	adds	r2, #1
 80823ba:	605a      	str	r2, [r3, #4]
      }
 80823bc:	4770      	bx	lr

080823be <_ZN8particle11PromiseBaseIbNS_6detail13FutureContextEE11fromDataPtrEPv>:
        // TODO: Use custom reference counting object to avoid unnecessary memory allocation
        return new detail::FutureImplPtr<ResultT, ContextT>(p_);
    }

    // Unwraps promise from an object pointer created via dataPtr() method
    static Promise<ResultT, ContextT> fromDataPtr(void* data) {
 80823be:	b573      	push	{r0, r1, r4, r5, r6, lr}
      __shared_ptr(const __shared_ptr&) noexcept = default;
 80823c0:	460e      	mov	r6, r1
 80823c2:	4604      	mov	r4, r0
 80823c4:	f856 3b04 	ldr.w	r3, [r6], #4
 80823c8:	460d      	mov	r5, r1
 80823ca:	a801      	add	r0, sp, #4
 80823cc:	4631      	mov	r1, r6
 80823ce:	9300      	str	r3, [sp, #0]
 80823d0:	f7ff ffee 	bl	80823b0 <_ZNSt14__shared_countILN9__gnu_cxx12_Lock_policyE0EEC1ERKS2_>
	__shared_ptr(const __shared_ptr<_Yp, _Lp>& __r) noexcept
	: _M_ptr(__r._M_ptr), _M_refcount(__r._M_refcount)
	{ }

      __shared_ptr(__shared_ptr&& __r) noexcept
      : _M_ptr(__r._M_ptr), _M_refcount()
 80823d4:	9b00      	ldr	r3, [sp, #0]
	_Sp_counted_base<_Lp>* __tmp = __r._M_pi;
 80823d6:	9a01      	ldr	r2, [sp, #4]
      : _M_ptr(__r._M_ptr), _M_refcount()
 80823d8:	6023      	str	r3, [r4, #0]
	__r._M_pi = _M_pi;
 80823da:	2300      	movs	r3, #0
	_M_pi = __tmp;
 80823dc:	6062      	str	r2, [r4, #4]
      ~__shared_ptr() = default;
 80823de:	a801      	add	r0, sp, #4
	__r._M_pi = _M_pi;
 80823e0:	9301      	str	r3, [sp, #4]
      {
	_M_refcount._M_swap(__r._M_refcount);
	__r._M_ptr = 0;
 80823e2:	9300      	str	r3, [sp, #0]
      ~__shared_ptr() = default;
 80823e4:	f7fe f9ea 	bl	80807bc <_ZNSt14__shared_countILN9__gnu_cxx12_Lock_policyE0EED1Ev>
 80823e8:	4630      	mov	r0, r6
 80823ea:	f7fe f9e7 	bl	80807bc <_ZNSt14__shared_countILN9__gnu_cxx12_Lock_policyE0EED1Ev>
        auto d = static_cast<detail::FutureImplPtr<ResultT, ContextT>*>(data);
        const Promise<ResultT, ContextT> p(*d);
        delete d;
 80823ee:	4628      	mov	r0, r5
 80823f0:	2108      	movs	r1, #8
 80823f2:	f002 fc19 	bl	8084c28 <_ZdlPvj>
        return p;
    }
 80823f6:	4620      	mov	r0, r4
 80823f8:	b002      	add	sp, #8
 80823fa:	bd70      	pop	{r4, r5, r6, pc}

080823fc <_ZSt4swapISt9_Any_dataENSt9enable_ifIXsrSt6__and_IJSt6__not_ISt15__is_tuple_likeIT_EESt21is_move_constructibleIS5_ESt18is_move_assignableIS5_EEE5valueEvE4typeERS5_SF_>:
    swap(_Tp& __a, _Tp& __b)
 80823fc:	b513      	push	{r0, r1, r4, lr}
      _Tp __tmp = _GLIBCXX_MOVE(__a);
 80823fe:	466c      	mov	r4, sp
    swap(_Tp& __a, _Tp& __b)
 8082400:	460b      	mov	r3, r1
 8082402:	4602      	mov	r2, r0
      _Tp __tmp = _GLIBCXX_MOVE(__a);
 8082404:	c803      	ldmia	r0, {r0, r1}
 8082406:	e884 0003 	stmia.w	r4, {r0, r1}
      __a = _GLIBCXX_MOVE(__b);
 808240a:	e893 0003 	ldmia.w	r3, {r0, r1}
 808240e:	e882 0003 	stmia.w	r2, {r0, r1}
      __b = _GLIBCXX_MOVE(__tmp);
 8082412:	e894 0003 	ldmia.w	r4, {r0, r1}
 8082416:	e883 0003 	stmia.w	r3, {r0, r1}
    }
 808241a:	b002      	add	sp, #8
 808241c:	bd10      	pop	{r4, pc}

0808241e <_ZNKSt8functionIFvRKN8particle5ErrorEEEclES3_>:
      if (_M_empty())
 808241e:	6882      	ldr	r2, [r0, #8]
    function<_Res(_ArgTypes...)>::
 8082420:	b510      	push	{r4, lr}
      if (_M_empty())
 8082422:	b90a      	cbnz	r2, 8082428 <_ZNKSt8functionIFvRKN8particle5ErrorEEEclES3_+0xa>
	__throw_bad_function_call();
 8082424:	f002 fc06 	bl	8084c34 <_ZSt25__throw_bad_function_callv>
      return _M_invoker(_M_functor, std::forward<_ArgTypes>(__args)...);
 8082428:	68c3      	ldr	r3, [r0, #12]
    }
 808242a:	e8bd 4010 	ldmia.w	sp!, {r4, lr}
      return _M_invoker(_M_functor, std::forward<_ArgTypes>(__args)...);
 808242e:	4718      	bx	r3

08082430 <_ZNSt17_Function_handlerIFvvESt5_BindIFSt8functionIFvRKN8particle5ErrorEEES4_EEE9_M_invokeERKSt9_Any_data>:
      _M_invoke(const _Any_data& __functor, _ArgTypes&&... __args)
 8082430:	b508      	push	{r3, lr}
	    return __source._M_access<_Functor*>();
 8082432:	6800      	ldr	r0, [r0, #0]
    { return static_cast<_Up&&>(__t); }

  template<typename _Res, typename _Fn, typename... _Args>
    constexpr _Res
    __invoke_impl(__invoke_other, _Fn&& __f, _Args&&... __args)
    { return std::forward<_Fn>(__f)(std::forward<_Args>(__args)...); }
 8082434:	f100 0110 	add.w	r1, r0, #16
 8082438:	f7ff fff1 	bl	808241e <_ZNKSt8functionIFvRKN8particle5ErrorEEEclES3_>
      }
 808243c:	bd08      	pop	{r3, pc}

0808243e <_ZNKSt8functionIFvRKbEEclES1_>:
      if (_M_empty())
 808243e:	6882      	ldr	r2, [r0, #8]
    function<_Res(_ArgTypes...)>::
 8082440:	b510      	push	{r4, lr}
      if (_M_empty())
 8082442:	b90a      	cbnz	r2, 8082448 <_ZNKSt8functionIFvRKbEEclES1_+0xa>
	__throw_bad_function_call();
 8082444:	f002 fbf6 	bl	8084c34 <_ZSt25__throw_bad_function_callv>
      return _M_invoker(_M_functor, std::forward<_ArgTypes>(__args)...);
 8082448:	68c3      	ldr	r3, [r0, #12]
    }
 808244a:	e8bd 4010 	ldmia.w	sp!, {r4, lr}
      return _M_invoker(_M_functor, std::forward<_ArgTypes>(__args)...);
 808244e:	4718      	bx	r3

08082450 <_ZNSt17_Function_handlerIFvvESt5_BindIFSt8functionIFvRKbEEbEEE9_M_invokeERKSt9_Any_data>:
      _M_invoke(const _Any_data& __functor, _ArgTypes&&... __args)
 8082450:	b508      	push	{r3, lr}
	    return __source._M_access<_Functor*>();
 8082452:	6800      	ldr	r0, [r0, #0]
 8082454:	f100 0110 	add.w	r1, r0, #16
 8082458:	f7ff fff1 	bl	808243e <_ZNKSt8functionIFvRKbEEclES1_>
      }
 808245c:	bd08      	pop	{r3, pc}
	...

08082460 <_ZNSt14__shared_countILN9__gnu_cxx12_Lock_policyE0EEC1IPN8particle6detail10FutureImplIbNS5_13FutureContextEEEEET_>:
	__shared_count(_Ptr __p) : _M_pi(0)
 8082460:	b538      	push	{r3, r4, r5, lr}
 8082462:	2300      	movs	r3, #0
 8082464:	4604      	mov	r4, r0
 8082466:	6003      	str	r3, [r0, #0]
	      _M_pi = new _Sp_counted_ptr<_Ptr, _Lp>(__p);
 8082468:	2010      	movs	r0, #16
	__shared_count(_Ptr __p) : _M_pi(0)
 808246a:	460d      	mov	r5, r1
	      _M_pi = new _Sp_counted_ptr<_Ptr, _Lp>(__p);
 808246c:	f7fd fe1d 	bl	80800aa <_Znwj>
 8082470:	b128      	cbz	r0, 808247e <_ZNSt14__shared_countILN9__gnu_cxx12_Lock_policyE0EEC1IPN8particle6detail10FutureImplIbNS5_13FutureContextEEEEET_+0x1e>
      : _M_use_count(1), _M_weak_count(1) { }
 8082472:	2301      	movs	r3, #1
 8082474:	e9c0 3301 	strd	r3, r3, [r0, #4]
      : _M_ptr(__p) { }
 8082478:	4b02      	ldr	r3, [pc, #8]	; (8082484 <_ZNSt14__shared_countILN9__gnu_cxx12_Lock_policyE0EEC1IPN8particle6detail10FutureImplIbNS5_13FutureContextEEEEET_+0x24>)
 808247a:	60c5      	str	r5, [r0, #12]
 808247c:	6003      	str	r3, [r0, #0]
	      _M_pi = new _Sp_counted_ptr<_Ptr, _Lp>(__p);
 808247e:	6020      	str	r0, [r4, #0]
	}
 8082480:	4620      	mov	r0, r4
 8082482:	bd38      	pop	{r3, r4, r5, pc}
 8082484:	08086434 	.word	0x08086434

08082488 <_ZNSt8functionIFvRKN8particle5ErrorEEEC1ERKS5_>:
    function<_Res(_ArgTypes...)>::
 8082488:	b538      	push	{r3, r4, r5, lr}
    _Function_base() : _M_manager(nullptr) { }
 808248a:	2300      	movs	r3, #0
 808248c:	6083      	str	r3, [r0, #8]
      { return !_M_empty(); }
 808248e:	688b      	ldr	r3, [r1, #8]
    function<_Res(_ArgTypes...)>::
 8082490:	4604      	mov	r4, r0
 8082492:	460d      	mov	r5, r1
      if (static_cast<bool>(__x))
 8082494:	b12b      	cbz	r3, 80824a2 <_ZNSt8functionIFvRKN8particle5ErrorEEEC1ERKS5_+0x1a>
	  __x._M_manager(_M_functor, __x._M_functor, __clone_functor);
 8082496:	2202      	movs	r2, #2
 8082498:	4798      	blx	r3
	  _M_invoker = __x._M_invoker;
 808249a:	68eb      	ldr	r3, [r5, #12]
 808249c:	60e3      	str	r3, [r4, #12]
	  _M_manager = __x._M_manager;
 808249e:	68ab      	ldr	r3, [r5, #8]
 80824a0:	60a3      	str	r3, [r4, #8]
    }
 80824a2:	4620      	mov	r0, r4
 80824a4:	bd38      	pop	{r3, r4, r5, pc}
	...

080824a8 <_ZN8particle11PromiseBaseIbNS_6detail13FutureContextEE8setErrorENS_5ErrorE>:
    void setError(Error error) {
 80824a8:	b5f0      	push	{r4, r5, r6, r7, lr}
 80824aa:	b089      	sub	sp, #36	; 0x24
      { return static_cast<const __shared_ptr<_Tp, _Lp>*>(this)->get(); }
 80824ac:	6804      	ldr	r4, [r0, #0]
        p_->setError(std::move(error));
 80824ae:	4668      	mov	r0, sp
 80824b0:	f7ff ff06 	bl	80822c0 <_ZN8particle5ErrorC1EOS0_>

      bool
      compare_exchange_strong(_Tp& __e, _Tp __i, memory_order __s,
			      memory_order __f) noexcept
      {
	return __atomic_compare_exchange(std::__addressof(_M_i),
 80824b4:	f04f 0302 	mov.w	r3, #2
 80824b8:	e8d4 2f4f 	ldrexb	r2, [r4]
 80824bc:	2a00      	cmp	r2, #0
 80824be:	d103      	bne.n	80824c8 <_ZN8particle11PromiseBaseIbNS_6detail13FutureContextEE8setErrorENS_5ErrorE+0x20>
 80824c0:	e8c4 3f41 	strexb	r1, r3, [r4]
 80824c4:	2900      	cmp	r1, #0
 80824c6:	d1f7      	bne.n	80824b8 <_ZN8particle11PromiseBaseIbNS_6detail13FutureContextEE8setErrorENS_5ErrorE+0x10>
        if (this->changeState(State::FAILED)) {
 80824c8:	d125      	bne.n	8082516 <_ZN8particle11PromiseBaseIbNS_6detail13FutureContextEE8setErrorENS_5ErrorE+0x6e>
            new(&error_) Error(std::move(error));
 80824ca:	f104 050c 	add.w	r5, r4, #12
 80824ce:	4669      	mov	r1, sp
 80824d0:	4628      	mov	r0, r5
 80824d2:	f7ff fef5 	bl	80822c0 <_ZN8particle5ErrorC1EOS0_>
	__atomic_store_n(&_M_i, __i, int(__m));
 80824d6:	2301      	movs	r3, #1
 80824d8:	f3bf 8f5b 	dmb	ish
 80824dc:	7063      	strb	r3, [r4, #1]

      _GLIBCXX_ALWAYS_INLINE __pointer_type
      exchange(__pointer_type __p,
	       memory_order __m = memory_order_seq_cst) noexcept
      {
	return __atomic_exchange_n(&_M_p, __p, int(__m));
 80824de:	2000      	movs	r0, #0
 80824e0:	f3bf 8f5b 	dmb	ish
 80824e4:	f104 0308 	add.w	r3, r4, #8
 80824e8:	e853 6f00 	ldrex	r6, [r3]
 80824ec:	e843 0200 	strex	r2, r0, [r3]
 80824f0:	2a00      	cmp	r2, #0
 80824f2:	d1f9      	bne.n	80824e8 <_ZN8particle11PromiseBaseIbNS_6detail13FutureContextEE8setErrorENS_5ErrorE+0x40>
 80824f4:	f3bf 8f5b 	dmb	ish
        if (callbackPtr) {
 80824f8:	b16e      	cbz	r6, 8082516 <_ZN8particle11PromiseBaseIbNS_6detail13FutureContextEE8setErrorENS_5ErrorE+0x6e>
        return (application_thread_current(nullptr) != 0);
 80824fa:	f7ff fc2b 	bl	8081d54 <application_thread_current>
        if (ContextT::isApplicationThreadCurrent()) {
 80824fe:	b178      	cbz	r0, 8082520 <_ZN8particle11PromiseBaseIbNS_6detail13FutureContextEE8setErrorENS_5ErrorE+0x78>
            callback(std::forward<ArgsT>(args)...); // Synchronous call
 8082500:	4629      	mov	r1, r5
 8082502:	4630      	mov	r0, r6
 8082504:	f7ff ff8b 	bl	808241e <_ZNKSt8functionIFvRKN8particle5ErrorEEEclES3_>
    class function<_Res(_ArgTypes...)>
 8082508:	4630      	mov	r0, r6
 808250a:	f7ff fed0 	bl	80822ae <_ZNSt14_Function_baseD1Ev>
            delete callbackPtr;
 808250e:	2110      	movs	r1, #16
 8082510:	4630      	mov	r0, r6
 8082512:	f002 fb89 	bl	8084c28 <_ZdlPvj>
        p_->setError(std::move(error));
 8082516:	4668      	mov	r0, sp
 8082518:	f7ff fedf 	bl	80822da <_ZN8particle5ErrorD1Ev>
    }
 808251c:	b009      	add	sp, #36	; 0x24
 808251e:	bdf0      	pop	{r4, r5, r6, r7, pc}
	  typename __cv_quals<_Bound_args>::type...>;

     public:
      template<typename... _Args>
	explicit _Bind(const _Functor& __f, _Args&&... __args)
	: _M_f(__f), _M_bound_args(std::forward<_Args>(__args)...)
 8082520:	4631      	mov	r1, r6
 8082522:	a802      	add	r0, sp, #8
 8082524:	f7ff ffb0 	bl	8082488 <_ZNSt8functionIFvRKN8particle5ErrorEEEC1ERKS5_>
        Error(error.type_, error.msg_) {
 8082528:	68e0      	ldr	r0, [r4, #12]
 808252a:	f9b4 5010 	ldrsh.w	r5, [r4, #16]
        msg_(msg ? (const char*)strdup(msg) : nullptr),
 808252e:	b108      	cbz	r0, 8082534 <_ZN8particle11PromiseBaseIbNS_6detail13FutureContextEE8setErrorENS_5ErrorE+0x8c>
 8082530:	f003 fbdc 	bl	8085cec <strdup>
        type_(type) {
 8082534:	9006      	str	r0, [sp, #24]
            auto callbackPtr = new std::function<void()>(std::bind(callback, std::forward<ArgsT>(args)...));
 8082536:	2010      	movs	r0, #16
 8082538:	f8ad 501c 	strh.w	r5, [sp, #28]
 808253c:	f7fd fdb5 	bl	80800aa <_Znwj>
 8082540:	4605      	mov	r5, r0
 8082542:	b1e8      	cbz	r0, 8082580 <_ZN8particle11PromiseBaseIbNS_6detail13FutureContextEE8setErrorENS_5ErrorE+0xd8>
    _Function_base() : _M_manager(nullptr) { }
 8082544:	2700      	movs	r7, #0
 8082546:	6087      	str	r7, [r0, #8]
	{ __functor._M_access<_Functor*>() = new _Functor(std::move(__f)); }
 8082548:	2018      	movs	r0, #24
 808254a:	f7fd fdae 	bl	80800aa <_Znwj>
 808254e:	4604      	mov	r4, r0
 8082550:	b188      	cbz	r0, 8082576 <_ZN8particle11PromiseBaseIbNS_6detail13FutureContextEE8setErrorENS_5ErrorE+0xce>
	std::swap(_M_functor, __x._M_functor);
 8082552:	4601      	mov	r1, r0
    _Function_base() : _M_manager(nullptr) { }
 8082554:	6087      	str	r7, [r0, #8]
	std::swap(_M_functor, __x._M_functor);
 8082556:	a802      	add	r0, sp, #8
 8082558:	f7ff ff50 	bl	80823fc <_ZSt4swapISt9_Any_dataENSt9enable_ifIXsrSt6__and_IJSt6__not_ISt15__is_tuple_likeIT_EESt21is_move_constructibleIS5_ESt18is_move_assignableIS5_EEE5valueEvE4typeERS5_SF_>
      _Tp __tmp = _GLIBCXX_MOVE(__a);
 808255c:	9b04      	ldr	r3, [sp, #16]
      __a = _GLIBCXX_MOVE(__b);
 808255e:	68a2      	ldr	r2, [r4, #8]
      __b = _GLIBCXX_MOVE(__tmp);
 8082560:	60a3      	str	r3, [r4, #8]
      _Tp __tmp = _GLIBCXX_MOVE(__a);
 8082562:	9b05      	ldr	r3, [sp, #20]
      __a = _GLIBCXX_MOVE(__b);
 8082564:	9204      	str	r2, [sp, #16]
 8082566:	68e2      	ldr	r2, [r4, #12]
      constexpr _Head_base(const _Head_base&) = default;
      constexpr _Head_base(_Head_base&&) = default;

      template<typename _UHead>
        constexpr _Head_base(_UHead&& __h)
	: _M_head_impl(std::forward<_UHead>(__h)) { }
 8082568:	a906      	add	r1, sp, #24
      __b = _GLIBCXX_MOVE(__tmp);
 808256a:	60e3      	str	r3, [r4, #12]
 808256c:	f104 0010 	add.w	r0, r4, #16
      __a = _GLIBCXX_MOVE(__b);
 8082570:	9205      	str	r2, [sp, #20]
 8082572:	f7ff fea5 	bl	80822c0 <_ZN8particle5ErrorC1EOS0_>
	    _M_invoker = &_My_handler::_M_invoke;
 8082576:	4b08      	ldr	r3, [pc, #32]	; (8082598 <_ZN8particle11PromiseBaseIbNS_6detail13FutureContextEE8setErrorENS_5ErrorE+0xf0>)
	{ __functor._M_access<_Functor*>() = new _Functor(std::move(__f)); }
 8082578:	602c      	str	r4, [r5, #0]
	    _M_invoker = &_My_handler::_M_invoke;
 808257a:	60eb      	str	r3, [r5, #12]
	    _M_manager = &_My_handler::_M_manager;
 808257c:	4b07      	ldr	r3, [pc, #28]	; (808259c <_ZN8particle11PromiseBaseIbNS_6detail13FutureContextEE8setErrorENS_5ErrorE+0xf4>)
 808257e:	60ab      	str	r3, [r5, #8]
    struct _Head_base<_Idx, _Head, false>
 8082580:	a806      	add	r0, sp, #24
 8082582:	f7ff feaa 	bl	80822da <_ZN8particle5ErrorD1Ev>
    class function<_Res(_ArgTypes...)>
 8082586:	a802      	add	r0, sp, #8
 8082588:	f7ff fe91 	bl	80822ae <_ZNSt14_Function_baseD1Ev>
        return (application_thread_invoke(callback, data, nullptr) == 0);
 808258c:	2200      	movs	r2, #0
 808258e:	4629      	mov	r1, r5
 8082590:	4803      	ldr	r0, [pc, #12]	; (80825a0 <_ZN8particle11PromiseBaseIbNS_6detail13FutureContextEE8setErrorENS_5ErrorE+0xf8>)
 8082592:	f7ff fbe7 	bl	8081d64 <application_thread_invoke>
 8082596:	e7b7      	b.n	8082508 <_ZN8particle11PromiseBaseIbNS_6detail13FutureContextEE8setErrorENS_5ErrorE+0x60>
 8082598:	08082431 	.word	0x08082431
 808259c:	080826c9 	.word	0x080826c9
 80825a0:	08081fe7 	.word	0x08081fe7

080825a4 <_ZN10CloudClass13publish_eventEPKcS1_iN8particle5FlagsI15PublishFlagTypehEE>:
Future<bool> CloudClass::publish_event(const char *eventName, const char *eventData, int ttl, PublishFlags flags) {
 80825a4:	e92d 47f0 	stmdb	sp!, {r4, r5, r6, r7, r8, r9, sl, lr}
 80825a8:	b08a      	sub	sp, #40	; 0x28
 80825aa:	4605      	mov	r5, r0
 80825ac:	460c      	mov	r4, r1
 80825ae:	4617      	mov	r7, r2
 80825b0:	4698      	mov	r8, r3
 80825b2:	f89d 9048 	ldrb.w	r9, [sp, #72]	; 0x48
    static void sleep(Spark_Sleep_TypeDef sleepMode, long seconds=0) __attribute__ ((deprecated("Please use System.sleep() instead.")))
    { SystemClass::sleep(sleepMode, seconds); }
    static void sleep(uint16_t wakeUpPin, InterruptMode edgeTriggerMode, long seconds=0) __attribute__ ((deprecated("Please use System.sleep() instead.")))
    { SystemClass::sleep(wakeUpPin, edgeTriggerMode, seconds); }

    static bool connected(void) { return spark_cloud_flag_connected(); }
 80825b6:	f7ff fc23 	bl	8081e00 <spark_cloud_flag_connected>
 80825ba:	ae07      	add	r6, sp, #28
    if (!connected()) {
 80825bc:	4682      	mov	sl, r0
 80825be:	bb38      	cbnz	r0, 8082610 <_ZN10CloudClass13publish_eventEPKcS1_iN8particle5FlagsI15PublishFlagTypehEE+0x6c>
        type_(type) {
 80825c0:	f64f 732e 	movw	r3, #65326	; 0xff2e
 80825c4:	9005      	str	r0, [sp, #20]
    typedef typename detail::FutureImpl<ResultT, ContextT>::OnSuccessCallback OnSuccessCallback;
    typedef typename detail::FutureImpl<ResultT, ContextT>::OnErrorCallback OnErrorCallback;

    // Construct failed future
    explicit FutureBase(Error error) :
            p_(new detail::FutureImpl<ResultT, ContextT>(std::move(error))) {
 80825c6:	a905      	add	r1, sp, #20
 80825c8:	4630      	mov	r0, r6
 80825ca:	f8ad 3018 	strh.w	r3, [sp, #24]
 80825ce:	f7ff fe77 	bl	80822c0 <_ZN8particle5ErrorC1EOS0_>
 80825d2:	2014      	movs	r0, #20
 80825d4:	f7fd fd69 	bl	80800aa <_Znwj>
 80825d8:	4604      	mov	r4, r0
 80825da:	b148      	cbz	r0, 80825f0 <_ZN10CloudClass13publish_eventEPKcS1_iN8particle5FlagsI15PublishFlagTypehEE+0x4c>
      constexpr atomic(_Tp __i) noexcept : _M_i(__i) { }
 80825dc:	2302      	movs	r3, #2
 80825de:	7003      	strb	r3, [r0, #0]
      constexpr __atomic_base(__int_type __i) noexcept : _M_i (__i) { }
 80825e0:	2301      	movs	r3, #1
      constexpr __atomic_base(__pointer_type __p) noexcept : _M_p (__p) { }
 80825e2:	e9c0 aa01 	strd	sl, sl, [r0, #4]
      constexpr __atomic_base(__int_type __i) noexcept : _M_i (__i) { }
 80825e6:	7043      	strb	r3, [r0, #1]
            error_(std::move(error)) {
 80825e8:	4631      	mov	r1, r6
 80825ea:	300c      	adds	r0, #12
 80825ec:	f7ff fe68 	bl	80822c0 <_ZN8particle5ErrorC1EOS0_>
	: _M_ptr(__p), _M_refcount(__p, typename is_array<_Tp>::type())
 80825f0:	4628      	mov	r0, r5
	: __shared_count(__p)
 80825f2:	4621      	mov	r1, r4
	: _M_ptr(__p), _M_refcount(__p, typename is_array<_Tp>::type())
 80825f4:	f840 4b04 	str.w	r4, [r0], #4
	: __shared_count(__p)
 80825f8:	f7ff ff32 	bl	8082460 <_ZNSt14__shared_countILN9__gnu_cxx12_Lock_policyE0EEC1IPN8particle6detail10FutureImplIbNS5_13FutureContextEEEEET_>
            p_(new detail::FutureImpl<ResultT, ContextT>(std::move(error))) {
 80825fc:	4630      	mov	r0, r6
 80825fe:	f7ff fe6c 	bl	80822da <_ZN8particle5ErrorD1Ev>
    }

    explicit FutureBase(Error::Type error) :
            FutureBase(Error(error)) {
 8082602:	a805      	add	r0, sp, #20
 8082604:	f7ff fe69 	bl	80822da <_ZN8particle5ErrorD1Ev>
}
 8082608:	4628      	mov	r0, r5
 808260a:	b00a      	add	sp, #40	; 0x28
 808260c:	e8bd 87f0 	ldmia.w	sp!, {r4, r5, r6, r7, r8, r9, sl, pc}
    spark_send_event_data d = { sizeof(spark_send_event_data) };
 8082610:	230c      	movs	r3, #12
 8082612:	f04f 0a00 	mov.w	sl, #0
            p_(new detail::FutureImpl<ResultT, ContextT>(State::RUNNING)) {
 8082616:	2014      	movs	r0, #20
 8082618:	e9cd aa08 	strd	sl, sl, [sp, #32]
 808261c:	9307      	str	r3, [sp, #28]
 808261e:	f7fd fd44 	bl	80800aa <_Znwj>
 8082622:	4601      	mov	r1, r0
 8082624:	b128      	cbz	r0, 8082632 <_ZN10CloudClass13publish_eventEPKcS1_iN8particle5FlagsI15PublishFlagTypehEE+0x8e>
      constexpr __atomic_base(__pointer_type __p) noexcept : _M_p (__p) { }
 8082626:	e9c0 aa01 	strd	sl, sl, [r0, #4]
 808262a:	f880 a000 	strb.w	sl, [r0]
      constexpr __atomic_base(__int_type __i) noexcept : _M_i (__i) { }
 808262e:	f880 a001 	strb.w	sl, [r0, #1]
 8082632:	a804      	add	r0, sp, #16
	: _M_ptr(__p), _M_refcount(__p, typename is_array<_Tp>::type())
 8082634:	9103      	str	r1, [sp, #12]
	: __shared_count(__p)
 8082636:	f7ff ff13 	bl	8082460 <_ZNSt14__shared_countILN9__gnu_cxx12_Lock_policyE0EEC1IPN8particle6detail10FutureImplIbNS5_13FutureContextEEEEET_>
    d.handler_callback = publishCompletionCallback;
 808263a:	4b22      	ldr	r3, [pc, #136]	; (80826c4 <_ZN10CloudClass13publish_eventEPKcS1_iN8particle5FlagsI15PublishFlagTypehEE+0x120>)
        return new detail::FutureImplPtr<ResultT, ContextT>(p_);
 808263c:	2008      	movs	r0, #8
 808263e:	9308      	str	r3, [sp, #32]
 8082640:	f7fd fd33 	bl	80800aa <_Znwj>
 8082644:	4682      	mov	sl, r0
 8082646:	b128      	cbz	r0, 8082654 <_ZN10CloudClass13publish_eventEPKcS1_iN8particle5FlagsI15PublishFlagTypehEE+0xb0>
      __shared_ptr(const __shared_ptr&) noexcept = default;
 8082648:	9b03      	ldr	r3, [sp, #12]
 808264a:	a904      	add	r1, sp, #16
 808264c:	f840 3b04 	str.w	r3, [r0], #4
 8082650:	f7ff feae 	bl	80823b0 <_ZNSt14__shared_countILN9__gnu_cxx12_Lock_policyE0EEC1ERKS2_>
    if (!spark_send_event(eventName, eventData, ttl, flags.value(), &d) && !p.isDone()) {
 8082654:	4642      	mov	r2, r8
 8082656:	4639      	mov	r1, r7
 8082658:	4620      	mov	r0, r4
 808265a:	9600      	str	r6, [sp, #0]
 808265c:	fa5f f389 	uxtb.w	r3, r9
    d.handler_data = p.dataPtr();
 8082660:	f8cd a024 	str.w	sl, [sp, #36]	; 0x24
    if (!spark_send_event(eventName, eventData, ttl, flags.value(), &d) && !p.isDone()) {
 8082664:	f7ff fbdc 	bl	8081e20 <spark_send_event>
 8082668:	b9b8      	cbnz	r0, 808269a <_ZN10CloudClass13publish_eventEPKcS1_iN8particle5FlagsI15PublishFlagTypehEE+0xf6>
	return __atomic_load_n(&_M_i, int(__m));
 808266a:	9b03      	ldr	r3, [sp, #12]
 808266c:	785b      	ldrb	r3, [r3, #1]
 808266e:	f003 02ff 	and.w	r2, r3, #255	; 0xff
 8082672:	b993      	cbnz	r3, 808269a <_ZN10CloudClass13publish_eventEPKcS1_iN8particle5FlagsI15PublishFlagTypehEE+0xf6>
 8082674:	f64f 739c 	movw	r3, #65436	; 0xff9c
        p.setError(Error::UNKNOWN);
 8082678:	a905      	add	r1, sp, #20
 808267a:	a803      	add	r0, sp, #12
 808267c:	9205      	str	r2, [sp, #20]
 808267e:	f8ad 3018 	strh.w	r3, [sp, #24]
 8082682:	f7ff ff11 	bl	80824a8 <_ZN8particle11PromiseBaseIbNS_6detail13FutureContextEE8setErrorENS_5ErrorE>
 8082686:	a805      	add	r0, sp, #20
 8082688:	f7ff fe27 	bl	80822da <_ZN8particle5ErrorD1Ev>
        p.fromDataPtr(d.handler_data); // Free wrapper object
 808268c:	a805      	add	r0, sp, #20
 808268e:	9909      	ldr	r1, [sp, #36]	; 0x24
 8082690:	f7ff fe95 	bl	80823be <_ZN8particle11PromiseBaseIbNS_6detail13FutureContextEE11fromDataPtrEPv>
      ~__shared_ptr() = default;
 8082694:	a806      	add	r0, sp, #24
 8082696:	f7fe f891 	bl	80807bc <_ZNSt14__shared_countILN9__gnu_cxx12_Lock_policyE0EED1Ev>
      __shared_ptr(const __shared_ptr&) noexcept = default;
 808269a:	9b03      	ldr	r3, [sp, #12]
 808269c:	a904      	add	r1, sp, #16
 808269e:	a806      	add	r0, sp, #24
 80826a0:	9305      	str	r3, [sp, #20]
 80826a2:	f7ff fe85 	bl	80823b0 <_ZNSt14__shared_countILN9__gnu_cxx12_Lock_policyE0EEC1ERKS2_>
      : _M_ptr(__r._M_ptr), _M_refcount()
 80826a6:	9b05      	ldr	r3, [sp, #20]
	_Sp_counted_base<_Lp>* __tmp = __r._M_pi;
 80826a8:	9a06      	ldr	r2, [sp, #24]
      : _M_ptr(__r._M_ptr), _M_refcount()
 80826aa:	602b      	str	r3, [r5, #0]
	__r._M_pi = _M_pi;
 80826ac:	2300      	movs	r3, #0
	_M_pi = __tmp;
 80826ae:	606a      	str	r2, [r5, #4]
      ~__shared_ptr() = default;
 80826b0:	a806      	add	r0, sp, #24
	__r._M_pi = _M_pi;
 80826b2:	9306      	str	r3, [sp, #24]
	__r._M_ptr = 0;
 80826b4:	9305      	str	r3, [sp, #20]
      ~__shared_ptr() = default;
 80826b6:	f7fe f881 	bl	80807bc <_ZNSt14__shared_countILN9__gnu_cxx12_Lock_policyE0EED1Ev>
 80826ba:	a804      	add	r0, sp, #16
 80826bc:	f7fe f87e 	bl	80807bc <_ZNSt14__shared_countILN9__gnu_cxx12_Lock_policyE0EED1Ev>
class Promise: public PromiseBase<ResultT, ContextT> {
 80826c0:	e7a2      	b.n	8082608 <_ZN10CloudClass13publish_eventEPKcS1_iN8particle5FlagsI15PublishFlagTypehEE+0x64>
 80826c2:	bf00      	nop
 80826c4:	0808278d 	.word	0x0808278d

080826c8 <_ZNSt14_Function_base13_Base_managerISt5_BindIFSt8functionIFvRKN8particle5ErrorEEES4_EEE10_M_managerERSt9_Any_dataRKSC_St18_Manager_operation>:
	  switch (__op)
 80826c8:	2a02      	cmp	r2, #2
	_M_manager(_Any_data& __dest, const _Any_data& __source,
 80826ca:	b5f8      	push	{r3, r4, r5, r6, r7, lr}
 80826cc:	4605      	mov	r5, r0
	  switch (__op)
 80826ce:	d007      	beq.n	80826e0 <_ZNSt14_Function_base13_Base_managerISt5_BindIFSt8functionIFvRKN8particle5ErrorEEES4_EEE10_M_managerERSt9_Any_dataRKSC_St18_Manager_operation+0x18>
 80826d0:	2a03      	cmp	r2, #3
 80826d2:	d018      	beq.n	8082706 <_ZNSt14_Function_base13_Base_managerISt5_BindIFSt8functionIFvRKN8particle5ErrorEEES4_EEE10_M_managerERSt9_Any_dataRKSC_St18_Manager_operation+0x3e>
 80826d4:	2a01      	cmp	r2, #1
 80826d6:	d101      	bne.n	80826dc <_ZNSt14_Function_base13_Base_managerISt5_BindIFSt8functionIFvRKN8particle5ErrorEEES4_EEE10_M_managerERSt9_Any_dataRKSC_St18_Manager_operation+0x14>
	    return __source._M_access<_Functor*>();
 80826d8:	680b      	ldr	r3, [r1, #0]
	      __dest._M_access<_Functor*>() = _M_get_pointer(__source);
 80826da:	6003      	str	r3, [r0, #0]
	}
 80826dc:	2000      	movs	r0, #0
 80826de:	bdf8      	pop	{r3, r4, r5, r6, r7, pc}
	    new _Functor(*__source._M_access<const _Functor*>());
 80826e0:	2018      	movs	r0, #24
	  __dest._M_access<_Functor*>() =
 80826e2:	680e      	ldr	r6, [r1, #0]
	    new _Functor(*__source._M_access<const _Functor*>());
 80826e4:	f7fd fce1 	bl	80800aa <_Znwj>
 80826e8:	4604      	mov	r4, r0
 80826ea:	b150      	cbz	r0, 8082702 <_ZNSt14_Function_base13_Base_managerISt5_BindIFSt8functionIFvRKN8particle5ErrorEEES4_EEE10_M_managerERSt9_Any_dataRKSC_St18_Manager_operation+0x3a>
      template<typename... _Args>
	explicit _Bind(_Functor&& __f, _Args&&... __args)
	: _M_f(std::move(__f)), _M_bound_args(std::forward<_Args>(__args)...)
	{ }

      _Bind(const _Bind&) = default;
 80826ec:	4631      	mov	r1, r6
 80826ee:	f7ff fecb 	bl	8082488 <_ZNSt8functionIFvRKN8particle5ErrorEEEC1ERKS5_>
        Error(error.type_, error.msg_) {
 80826f2:	6930      	ldr	r0, [r6, #16]
 80826f4:	f9b6 7014 	ldrsh.w	r7, [r6, #20]
        msg_(msg ? (const char*)strdup(msg) : nullptr),
 80826f8:	b108      	cbz	r0, 80826fe <_ZNSt14_Function_base13_Base_managerISt5_BindIFSt8functionIFvRKN8particle5ErrorEEES4_EEE10_M_managerERSt9_Any_dataRKSC_St18_Manager_operation+0x36>
 80826fa:	f003 faf7 	bl	8085cec <strdup>
        type_(type) {
 80826fe:	6120      	str	r0, [r4, #16]
 8082700:	82a7      	strh	r7, [r4, #20]
	  __dest._M_access<_Functor*>() =
 8082702:	602c      	str	r4, [r5, #0]
	}
 8082704:	e7ea      	b.n	80826dc <_ZNSt14_Function_base13_Base_managerISt5_BindIFSt8functionIFvRKN8particle5ErrorEEES4_EEE10_M_managerERSt9_Any_dataRKSC_St18_Manager_operation+0x14>
	  delete __victim._M_access<_Functor*>();
 8082706:	6804      	ldr	r4, [r0, #0]
 8082708:	2c00      	cmp	r4, #0
 808270a:	d0e7      	beq.n	80826dc <_ZNSt14_Function_base13_Base_managerISt5_BindIFSt8functionIFvRKN8particle5ErrorEEES4_EEE10_M_managerERSt9_Any_dataRKSC_St18_Manager_operation+0x14>
 808270c:	f104 0010 	add.w	r0, r4, #16
 8082710:	f7ff fde3 	bl	80822da <_ZN8particle5ErrorD1Ev>
    class function<_Res(_ArgTypes...)>
 8082714:	4620      	mov	r0, r4
 8082716:	f7ff fdca 	bl	80822ae <_ZNSt14_Function_baseD1Ev>
	  delete __victim._M_access<_Functor*>();
 808271a:	2118      	movs	r1, #24
 808271c:	4620      	mov	r0, r4
 808271e:	f002 fa83 	bl	8084c28 <_ZdlPvj>
 8082722:	e7db      	b.n	80826dc <_ZNSt14_Function_base13_Base_managerISt5_BindIFSt8functionIFvRKN8particle5ErrorEEES4_EEE10_M_managerERSt9_Any_dataRKSC_St18_Manager_operation+0x14>

08082724 <_ZNSt8functionIFvRKbEEC1ERKS3_>:
    function<_Res(_ArgTypes...)>::
 8082724:	b538      	push	{r3, r4, r5, lr}
    _Function_base() : _M_manager(nullptr) { }
 8082726:	2300      	movs	r3, #0
 8082728:	6083      	str	r3, [r0, #8]
      { return !_M_empty(); }
 808272a:	688b      	ldr	r3, [r1, #8]
    function<_Res(_ArgTypes...)>::
 808272c:	4604      	mov	r4, r0
 808272e:	460d      	mov	r5, r1
      if (static_cast<bool>(__x))
 8082730:	b12b      	cbz	r3, 808273e <_ZNSt8functionIFvRKbEEC1ERKS3_+0x1a>
	  __x._M_manager(_M_functor, __x._M_functor, __clone_functor);
 8082732:	2202      	movs	r2, #2
 8082734:	4798      	blx	r3
	  _M_invoker = __x._M_invoker;
 8082736:	68eb      	ldr	r3, [r5, #12]
 8082738:	60e3      	str	r3, [r4, #12]
	  _M_manager = __x._M_manager;
 808273a:	68ab      	ldr	r3, [r5, #8]
 808273c:	60a3      	str	r3, [r4, #8]
    }
 808273e:	4620      	mov	r0, r4
 8082740:	bd38      	pop	{r3, r4, r5, pc}

08082742 <_ZNSt14_Function_base13_Base_managerISt5_BindIFSt8functionIFvRKbEEbEEE10_M_managerERSt9_Any_dataRKSA_St18_Manager_operation>:
	  switch (__op)
 8082742:	2a02      	cmp	r2, #2
	_M_manager(_Any_data& __dest, const _Any_data& __source,
 8082744:	b570      	push	{r4, r5, r6, lr}
 8082746:	4604      	mov	r4, r0
	  switch (__op)
 8082748:	d007      	beq.n	808275a <_ZNSt14_Function_base13_Base_managerISt5_BindIFSt8functionIFvRKbEEbEEE10_M_managerERSt9_Any_dataRKSA_St18_Manager_operation+0x18>
 808274a:	2a03      	cmp	r2, #3
 808274c:	d012      	beq.n	8082774 <_ZNSt14_Function_base13_Base_managerISt5_BindIFSt8functionIFvRKbEEbEEE10_M_managerERSt9_Any_dataRKSA_St18_Manager_operation+0x32>
 808274e:	2a01      	cmp	r2, #1
 8082750:	d101      	bne.n	8082756 <_ZNSt14_Function_base13_Base_managerISt5_BindIFSt8functionIFvRKbEEbEEE10_M_managerERSt9_Any_dataRKSA_St18_Manager_operation+0x14>
	    return __source._M_access<_Functor*>();
 8082752:	680b      	ldr	r3, [r1, #0]
	      __dest._M_access<_Functor*>() = _M_get_pointer(__source);
 8082754:	6003      	str	r3, [r0, #0]
	}
 8082756:	2000      	movs	r0, #0
 8082758:	bd70      	pop	{r4, r5, r6, pc}
	    new _Functor(*__source._M_access<const _Functor*>());
 808275a:	2014      	movs	r0, #20
	  __dest._M_access<_Functor*>() =
 808275c:	680e      	ldr	r6, [r1, #0]
	    new _Functor(*__source._M_access<const _Functor*>());
 808275e:	f7fd fca4 	bl	80800aa <_Znwj>
 8082762:	4605      	mov	r5, r0
 8082764:	b120      	cbz	r0, 8082770 <_ZNSt14_Function_base13_Base_managerISt5_BindIFSt8functionIFvRKbEEbEEE10_M_managerERSt9_Any_dataRKSA_St18_Manager_operation+0x2e>
 8082766:	4631      	mov	r1, r6
 8082768:	f7ff ffdc 	bl	8082724 <_ZNSt8functionIFvRKbEEC1ERKS3_>
 808276c:	7c33      	ldrb	r3, [r6, #16]
 808276e:	742b      	strb	r3, [r5, #16]
	  __dest._M_access<_Functor*>() =
 8082770:	6025      	str	r5, [r4, #0]
	}
 8082772:	e7f0      	b.n	8082756 <_ZNSt14_Function_base13_Base_managerISt5_BindIFSt8functionIFvRKbEEbEEE10_M_managerERSt9_Any_dataRKSA_St18_Manager_operation+0x14>
	  delete __victim._M_access<_Functor*>();
 8082774:	6804      	ldr	r4, [r0, #0]
 8082776:	2c00      	cmp	r4, #0
 8082778:	d0ed      	beq.n	8082756 <_ZNSt14_Function_base13_Base_managerISt5_BindIFSt8functionIFvRKbEEbEEE10_M_managerERSt9_Any_dataRKSA_St18_Manager_operation+0x14>
    class function<_Res(_ArgTypes...)>
 808277a:	4620      	mov	r0, r4
 808277c:	f7ff fd97 	bl	80822ae <_ZNSt14_Function_baseD1Ev>
	  delete __victim._M_access<_Functor*>();
 8082780:	2114      	movs	r1, #20
 8082782:	4620      	mov	r0, r4
 8082784:	f002 fa50 	bl	8084c28 <_ZdlPvj>
 8082788:	e7e5      	b.n	8082756 <_ZNSt14_Function_base13_Base_managerISt5_BindIFSt8functionIFvRKbEEbEEE10_M_managerERSt9_Any_dataRKSA_St18_Manager_operation+0x14>
	...

0808278c <_ZN12_GLOBAL__N_125publishCompletionCallbackEiPKvPvS2_>:
void publishCompletionCallback(int error, const void* data, void* callbackData, void* reserved) {
 808278c:	b5f0      	push	{r4, r5, r6, r7, lr}
 808278e:	4604      	mov	r4, r0
 8082790:	b089      	sub	sp, #36	; 0x24
 8082792:	460d      	mov	r5, r1
    auto p = Promise<bool>::fromDataPtr(callbackData);
 8082794:	a801      	add	r0, sp, #4
 8082796:	4611      	mov	r1, r2
 8082798:	f7ff fe11 	bl	80823be <_ZN8particle11PromiseBaseIbNS_6detail13FutureContextEE11fromDataPtrEPv>
    if (error != Error::NONE) {
 808279c:	b1a4      	cbz	r4, 80827c8 <_ZN12_GLOBAL__N_125publishCompletionCallbackEiPKvPvS2_+0x3c>
        p.setError(Error((Error::Type)error, (const char*)data));
 808279e:	b224      	sxth	r4, r4
        msg_(msg ? (const char*)strdup(msg) : nullptr),
 80827a0:	b11d      	cbz	r5, 80827aa <_ZN12_GLOBAL__N_125publishCompletionCallbackEiPKvPvS2_+0x1e>
 80827a2:	4628      	mov	r0, r5
 80827a4:	f003 faa2 	bl	8085cec <strdup>
 80827a8:	4605      	mov	r5, r0
 80827aa:	a801      	add	r0, sp, #4
 80827ac:	a903      	add	r1, sp, #12
        type_(type) {
 80827ae:	9503      	str	r5, [sp, #12]
 80827b0:	f8ad 4010 	strh.w	r4, [sp, #16]
 80827b4:	f7ff fe78 	bl	80824a8 <_ZN8particle11PromiseBaseIbNS_6detail13FutureContextEE8setErrorENS_5ErrorE>
 80827b8:	a803      	add	r0, sp, #12
 80827ba:	f7ff fd8e 	bl	80822da <_ZN8particle5ErrorD1Ev>
 80827be:	a802      	add	r0, sp, #8
 80827c0:	f7fd fffc 	bl	80807bc <_ZNSt14__shared_countILN9__gnu_cxx12_Lock_policyE0EED1Ev>
}
 80827c4:	b009      	add	sp, #36	; 0x24
 80827c6:	bdf0      	pop	{r4, r5, r6, r7, pc}
	return __atomic_compare_exchange(std::__addressof(_M_i),
 80827c8:	2301      	movs	r3, #1
      { return static_cast<const __shared_ptr<_Tp, _Lp>*>(this)->get(); }
 80827ca:	9d01      	ldr	r5, [sp, #4]
 80827cc:	e8d5 2f4f 	ldrexb	r2, [r5]
 80827d0:	2a00      	cmp	r2, #0
 80827d2:	d103      	bne.n	80827dc <_ZN12_GLOBAL__N_125publishCompletionCallbackEiPKvPvS2_+0x50>
 80827d4:	e8c5 3f41 	strexb	r1, r3, [r5]
 80827d8:	2900      	cmp	r1, #0
 80827da:	d1f7      	bne.n	80827cc <_ZN12_GLOBAL__N_125publishCompletionCallbackEiPKvPvS2_+0x40>
        if (this->changeState(State::SUCCEEDED)) {
 80827dc:	d1ef      	bne.n	80827be <_ZN12_GLOBAL__N_125publishCompletionCallbackEiPKvPvS2_+0x32>
            new(&result_) ResultT(std::move(result));
 80827de:	732b      	strb	r3, [r5, #12]
	__atomic_store_n(&_M_i, __i, int(__m));
 80827e0:	f3bf 8f5b 	dmb	ish
 80827e4:	706b      	strb	r3, [r5, #1]
	return __atomic_exchange_n(&_M_p, __p, int(__m));
 80827e6:	f3bf 8f5b 	dmb	ish
 80827ea:	1d2b      	adds	r3, r5, #4
 80827ec:	e853 6f00 	ldrex	r6, [r3]
 80827f0:	e843 4200 	strex	r2, r4, [r3]
 80827f4:	2a00      	cmp	r2, #0
 80827f6:	d1f9      	bne.n	80827ec <_ZN12_GLOBAL__N_125publishCompletionCallbackEiPKvPvS2_+0x60>
 80827f8:	f3bf 8f5b 	dmb	ish
        if (callbackPtr) {
 80827fc:	2e00      	cmp	r6, #0
 80827fe:	d0de      	beq.n	80827be <_ZN12_GLOBAL__N_125publishCompletionCallbackEiPKvPvS2_+0x32>
        return (application_thread_current(nullptr) != 0);
 8082800:	4620      	mov	r0, r4
 8082802:	f7ff faa7 	bl	8081d54 <application_thread_current>
        if (ContextT::isApplicationThreadCurrent()) {
 8082806:	4607      	mov	r7, r0
 8082808:	b160      	cbz	r0, 8082824 <_ZN12_GLOBAL__N_125publishCompletionCallbackEiPKvPvS2_+0x98>
            callback(std::forward<ArgsT>(args)...); // Synchronous call
 808280a:	4630      	mov	r0, r6
 808280c:	f105 010c 	add.w	r1, r5, #12
 8082810:	f7ff fe15 	bl	808243e <_ZNKSt8functionIFvRKbEEclES1_>
    class function<_Res(_ArgTypes...)>
 8082814:	4630      	mov	r0, r6
 8082816:	f7ff fd4a 	bl	80822ae <_ZNSt14_Function_baseD1Ev>
            delete callbackPtr;
 808281a:	2110      	movs	r1, #16
 808281c:	4630      	mov	r0, r6
 808281e:	f002 fa03 	bl	8084c28 <_ZdlPvj>
 8082822:	e7cc      	b.n	80827be <_ZN12_GLOBAL__N_125publishCompletionCallbackEiPKvPvS2_+0x32>
	: _M_f(__f), _M_bound_args(std::forward<_Args>(__args)...)
 8082824:	4631      	mov	r1, r6
 8082826:	a803      	add	r0, sp, #12
 8082828:	f7ff ff7c 	bl	8082724 <_ZNSt8functionIFvRKbEEC1ERKS3_>
	: _M_head_impl(std::forward<_UHead>(__h)) { }
 808282c:	7b2b      	ldrb	r3, [r5, #12]
            auto callbackPtr = new std::function<void()>(std::bind(callback, std::forward<ArgsT>(args)...));
 808282e:	2010      	movs	r0, #16
 8082830:	f88d 301c 	strb.w	r3, [sp, #28]
 8082834:	f7fd fc39 	bl	80800aa <_Znwj>
 8082838:	4605      	mov	r5, r0
 808283a:	b1d0      	cbz	r0, 8082872 <_ZN12_GLOBAL__N_125publishCompletionCallbackEiPKvPvS2_+0xe6>
    _Function_base() : _M_manager(nullptr) { }
 808283c:	6087      	str	r7, [r0, #8]
	{ __functor._M_access<_Functor*>() = new _Functor(std::move(__f)); }
 808283e:	2014      	movs	r0, #20
 8082840:	f7fd fc33 	bl	80800aa <_Znwj>
 8082844:	4604      	mov	r4, r0
 8082846:	b178      	cbz	r0, 8082868 <_ZN12_GLOBAL__N_125publishCompletionCallbackEiPKvPvS2_+0xdc>
	std::swap(_M_functor, __x._M_functor);
 8082848:	4601      	mov	r1, r0
    _Function_base() : _M_manager(nullptr) { }
 808284a:	6087      	str	r7, [r0, #8]
	std::swap(_M_functor, __x._M_functor);
 808284c:	a803      	add	r0, sp, #12
 808284e:	f7ff fdd5 	bl	80823fc <_ZSt4swapISt9_Any_dataENSt9enable_ifIXsrSt6__and_IJSt6__not_ISt15__is_tuple_likeIT_EESt21is_move_constructibleIS5_ESt18is_move_assignableIS5_EEE5valueEvE4typeERS5_SF_>
      _Tp __tmp = _GLIBCXX_MOVE(__a);
 8082852:	9b05      	ldr	r3, [sp, #20]
      __a = _GLIBCXX_MOVE(__b);
 8082854:	68a2      	ldr	r2, [r4, #8]
      __b = _GLIBCXX_MOVE(__tmp);
 8082856:	60a3      	str	r3, [r4, #8]
      _Tp __tmp = _GLIBCXX_MOVE(__a);
 8082858:	9b06      	ldr	r3, [sp, #24]
      __a = _GLIBCXX_MOVE(__b);
 808285a:	9205      	str	r2, [sp, #20]
 808285c:	68e2      	ldr	r2, [r4, #12]
      __b = _GLIBCXX_MOVE(__tmp);
 808285e:	60e3      	str	r3, [r4, #12]
 8082860:	f89d 301c 	ldrb.w	r3, [sp, #28]
      __a = _GLIBCXX_MOVE(__b);
 8082864:	9206      	str	r2, [sp, #24]
 8082866:	7423      	strb	r3, [r4, #16]
	    _M_invoker = &_My_handler::_M_invoke;
 8082868:	4b06      	ldr	r3, [pc, #24]	; (8082884 <_ZN12_GLOBAL__N_125publishCompletionCallbackEiPKvPvS2_+0xf8>)
	{ __functor._M_access<_Functor*>() = new _Functor(std::move(__f)); }
 808286a:	602c      	str	r4, [r5, #0]
	    _M_invoker = &_My_handler::_M_invoke;
 808286c:	60eb      	str	r3, [r5, #12]
	    _M_manager = &_My_handler::_M_manager;
 808286e:	4b06      	ldr	r3, [pc, #24]	; (8082888 <_ZN12_GLOBAL__N_125publishCompletionCallbackEiPKvPvS2_+0xfc>)
 8082870:	60ab      	str	r3, [r5, #8]
    class function<_Res(_ArgTypes...)>
 8082872:	a803      	add	r0, sp, #12
 8082874:	f7ff fd1b 	bl	80822ae <_ZNSt14_Function_baseD1Ev>
        return (application_thread_invoke(callback, data, nullptr) == 0);
 8082878:	2200      	movs	r2, #0
 808287a:	4629      	mov	r1, r5
 808287c:	4803      	ldr	r0, [pc, #12]	; (808288c <_ZN12_GLOBAL__N_125publishCompletionCallbackEiPKvPvS2_+0x100>)
 808287e:	f7ff fa71 	bl	8081d64 <application_thread_invoke>
 8082882:	e7c7      	b.n	8082814 <_ZN12_GLOBAL__N_125publishCompletionCallbackEiPKvPvS2_+0x88>
 8082884:	08082451 	.word	0x08082451
 8082888:	08082743 	.word	0x08082743
 808288c:	08081fe7 	.word	0x08081fe7

08082890 <_ZN9FuelGauge4lockEv>:
    CHECK_TRUE(i2c_.endTransmission(true) == 0, SYSTEM_ERROR_TIMEOUT);
    return SYSTEM_ERROR_NONE;
}

bool FuelGauge::lock() {
    return i2c_.lock();
 8082890:	6800      	ldr	r0, [r0, #0]
 8082892:	f000 b917 	b.w	8082ac4 <_ZN7TwoWire4lockEv>

08082896 <_ZN9FuelGaugeC1ER7TwoWireb>:
FuelGauge::FuelGauge(TwoWire& i2c, bool _lock)
 8082896:	b510      	push	{r4, lr}
 8082898:	4604      	mov	r4, r0
      lock_(_lock) {
 808289a:	6001      	str	r1, [r0, #0]
 808289c:	7102      	strb	r2, [r0, #4]
    if (lock_) {
 808289e:	b10a      	cbz	r2, 80828a4 <_ZN9FuelGaugeC1ER7TwoWireb+0xe>
        lock();
 80828a0:	f7ff fff6 	bl	8082890 <_ZN9FuelGauge4lockEv>
}
 80828a4:	4620      	mov	r0, r4
 80828a6:	bd10      	pop	{r4, pc}

080828a8 <_ZN9FuelGaugeC1Eb>:
FuelGauge::FuelGauge(bool _lock)
 80828a8:	b538      	push	{r3, r4, r5, lr}
 80828aa:	4604      	mov	r4, r0
 80828ac:	460d      	mov	r5, r1
            return &Wire3;
 80828ae:	f002 f989 	bl	8084bc4 <_Z20__fetch_global_Wire3v>
        : FuelGauge(*fuelWireInstance(), _lock)
 80828b2:	462a      	mov	r2, r5
            return &Wire3;
 80828b4:	4601      	mov	r1, r0
        : FuelGauge(*fuelWireInstance(), _lock)
 80828b6:	4620      	mov	r0, r4
 80828b8:	f7ff ffed 	bl	8082896 <_ZN9FuelGaugeC1ER7TwoWireb>
}
 80828bc:	4620      	mov	r0, r4
 80828be:	bd38      	pop	{r3, r4, r5, pc}

080828c0 <_ZN9FuelGauge6unlockEv>:
}

bool FuelGauge::unlock() {
    return i2c_.unlock();
 80828c0:	6800      	ldr	r0, [r0, #0]
 80828c2:	f000 b908 	b.w	8082ad6 <_ZN7TwoWire6unlockEv>

080828c6 <_ZN9FuelGauge12readRegisterEhRhS0_>:
int FuelGauge::readRegister(byte startAddress, byte &MSB, byte &LSB) {
 80828c6:	e92d 41ff 	stmdb	sp!, {r0, r1, r2, r3, r4, r5, r6, r7, r8, lr}
 80828ca:	4604      	mov	r4, r0
 80828cc:	460d      	mov	r5, r1
 80828ce:	4617      	mov	r7, r2
 80828d0:	461e      	mov	r6, r3
    {
    public:
      typedef _Mutex mutex_type;

      explicit lock_guard(mutex_type& __m) : _M_device(__m)
      { _M_device.lock(); }
 80828d2:	f7ff ffdd 	bl	8082890 <_ZN9FuelGauge4lockEv>
public:
  WireTransmission(uint8_t address)
      : address_{address},
        size_{0},
        stop_{true},
        timeout_{HAL_I2C_DEFAULT_TIMEOUT_MS} {
 80828d6:	2336      	movs	r3, #54	; 0x36
 80828d8:	f88d 3000 	strb.w	r3, [sp]
 80828dc:	2300      	movs	r3, #0
 80828de:	f04f 0801 	mov.w	r8, #1
 80828e2:	9301      	str	r3, [sp, #4]
    size_ = size;
    return *this;
  }

  WireTransmission& timeout(system_tick_t ms) {
    timeout_ = ms;
 80828e4:	230a      	movs	r3, #10
    i2c_.beginTransmission(config);
 80828e6:	4669      	mov	r1, sp
 80828e8:	6820      	ldr	r0, [r4, #0]
 80828ea:	9303      	str	r3, [sp, #12]
        timeout_{HAL_I2C_DEFAULT_TIMEOUT_MS} {
 80828ec:	f88d 8008 	strb.w	r8, [sp, #8]
 80828f0:	f000 f8c9 	bl	8082a86 <_ZN7TwoWire17beginTransmissionERK16WireTransmission>
    i2c_.write(startAddress);
 80828f4:	6820      	ldr	r0, [r4, #0]
 80828f6:	4629      	mov	r1, r5
 80828f8:	6803      	ldr	r3, [r0, #0]
 80828fa:	689b      	ldr	r3, [r3, #8]
 80828fc:	4798      	blx	r3
    CHECK_TRUE(i2c_.endTransmission(true) == 0, SYSTEM_ERROR_TIMEOUT);
 80828fe:	4641      	mov	r1, r8
 8082900:	6820      	ldr	r0, [r4, #0]
 8082902:	f000 f8d8 	bl	8082ab6 <_ZN7TwoWire15endTransmissionEh>
 8082906:	4605      	mov	r5, r0
 8082908:	b140      	cbz	r0, 808291c <_ZN9FuelGauge12readRegisterEhRhS0_+0x56>
 808290a:	f06f 059f 	mvn.w	r5, #159	; 0x9f

      lock_guard(mutex_type& __m, adopt_lock_t) noexcept : _M_device(__m)
      { } // calling thread owns mutex

      ~lock_guard()
      { _M_device.unlock(); }
 808290e:	4620      	mov	r0, r4
 8082910:	f7ff ffd6 	bl	80828c0 <_ZN9FuelGauge6unlockEv>
}
 8082914:	4628      	mov	r0, r5
 8082916:	b004      	add	sp, #16
 8082918:	e8bd 81f0 	ldmia.w	sp!, {r4, r5, r6, r7, r8, pc}
    size_ = size;
 808291c:	2302      	movs	r3, #2
    CHECK_TRUE(i2c_.requestFrom(config) == 2, SYSTEM_ERROR_TIMEOUT);
 808291e:	4669      	mov	r1, sp
 8082920:	6820      	ldr	r0, [r4, #0]
 8082922:	9301      	str	r3, [sp, #4]
 8082924:	f000 f87c 	bl	8082a20 <_ZN7TwoWire11requestFromERK16WireTransmission>
 8082928:	2802      	cmp	r0, #2
 808292a:	d1ee      	bne.n	808290a <_ZN9FuelGauge12readRegisterEhRhS0_+0x44>
    MSB = i2c_.read();
 808292c:	6820      	ldr	r0, [r4, #0]
 808292e:	6803      	ldr	r3, [r0, #0]
 8082930:	695b      	ldr	r3, [r3, #20]
 8082932:	4798      	blx	r3
 8082934:	7038      	strb	r0, [r7, #0]
    LSB = i2c_.read();
 8082936:	6820      	ldr	r0, [r4, #0]
 8082938:	6803      	ldr	r3, [r0, #0]
 808293a:	695b      	ldr	r3, [r3, #20]
 808293c:	4798      	blx	r3
 808293e:	7030      	strb	r0, [r6, #0]
    return SYSTEM_ERROR_NONE;
 8082940:	e7e5      	b.n	808290e <_ZN9FuelGauge12readRegisterEhRhS0_+0x48>
	...

08082944 <_ZN9FuelGauge6getSoCEv>:
    byte MSB = 0;
 8082944:	2300      	movs	r3, #0
float FuelGauge::getSoC() {
 8082946:	b513      	push	{r0, r1, r4, lr}
    if(readRegister(SOC_REGISTER, MSB, LSB) != SYSTEM_ERROR_NONE) {
 8082948:	2104      	movs	r1, #4
    byte MSB = 0;
 808294a:	f88d 3006 	strb.w	r3, [sp, #6]
    byte LSB = 0;
 808294e:	f88d 3007 	strb.w	r3, [sp, #7]
    if(readRegister(SOC_REGISTER, MSB, LSB) != SYSTEM_ERROR_NONE) {
 8082952:	f10d 0206 	add.w	r2, sp, #6
 8082956:	f10d 0307 	add.w	r3, sp, #7
 808295a:	f7ff ffb4 	bl	80828c6 <_ZN9FuelGauge12readRegisterEhRhS0_>
 808295e:	b9a0      	cbnz	r0, 808298a <_ZN9FuelGauge6getSoCEv+0x46>
        float decimal = LSB / 256.0;
 8082960:	f89d 0007 	ldrb.w	r0, [sp, #7]
 8082964:	f002 fabc 	bl	8084ee0 <__aeabi_i2d>
 8082968:	2200      	movs	r2, #0
 808296a:	4b09      	ldr	r3, [pc, #36]	; (8082990 <_ZN9FuelGauge6getSoCEv+0x4c>)
 808296c:	f002 fb22 	bl	8084fb4 <__aeabi_dmul>
 8082970:	f002 fd7a 	bl	8085468 <__aeabi_d2f>
 8082974:	4604      	mov	r4, r0
        return MSB + decimal;
 8082976:	f89d 0006 	ldrb.w	r0, [sp, #6]
 808297a:	f002 fe7f 	bl	808567c <__aeabi_i2f>
 808297e:	4601      	mov	r1, r0
 8082980:	4620      	mov	r0, r4
 8082982:	f002 fdc7 	bl	8085514 <__addsf3>
}
 8082986:	b002      	add	sp, #8
 8082988:	bd10      	pop	{r4, pc}
        return -1.0f;
 808298a:	4802      	ldr	r0, [pc, #8]	; (8082994 <_ZN9FuelGauge6getSoCEv+0x50>)
 808298c:	e7fb      	b.n	8082986 <_ZN9FuelGauge6getSoCEv+0x42>
 808298e:	bf00      	nop
 8082990:	3f700000 	.word	0x3f700000
 8082994:	bf800000 	.word	0xbf800000

08082998 <_ZN7TwoWireD1Ev>:
private:
  hal_i2c_interface_t _i2c;

public:
  TwoWire(hal_i2c_interface_t i2c, const hal_i2c_config_t& config);
  virtual ~TwoWire() {};
 8082998:	4770      	bx	lr

0808299a <_ZN7TwoWire5writeEPKhj>:

// must be called in:
// slave tx event callback
// or after beginTransmission(address)
size_t TwoWire::write(const uint8_t *data, size_t quantity)
{
 808299a:	b5f8      	push	{r3, r4, r5, r6, r7, lr}
 808299c:	4606      	mov	r6, r0
 808299e:	4615      	mov	r5, r2
 80829a0:	460c      	mov	r4, r1
 80829a2:	188f      	adds	r7, r1, r2
  // in master/slave transmitter mode
  for(size_t i = 0; i < quantity; ++i)
 80829a4:	42bc      	cmp	r4, r7
 80829a6:	d006      	beq.n	80829b6 <_ZN7TwoWire5writeEPKhj+0x1c>
  {
    write(data[i]);
 80829a8:	6833      	ldr	r3, [r6, #0]
 80829aa:	4630      	mov	r0, r6
 80829ac:	689b      	ldr	r3, [r3, #8]
 80829ae:	f814 1b01 	ldrb.w	r1, [r4], #1
 80829b2:	4798      	blx	r3
  for(size_t i = 0; i < quantity; ++i)
 80829b4:	e7f6      	b.n	80829a4 <_ZN7TwoWire5writeEPKhj+0xa>
  }

  return quantity;
}
 80829b6:	4628      	mov	r0, r5
 80829b8:	bdf8      	pop	{r3, r4, r5, r6, r7, pc}

080829ba <_ZN7TwoWire5writeEh>:
  return hal_i2c_write(_i2c, data, NULL);
 80829ba:	2200      	movs	r2, #0
 80829bc:	7c00      	ldrb	r0, [r0, #16]
 80829be:	f7ff b887 	b.w	8081ad0 <hal_i2c_write>

080829c2 <_ZN7TwoWire9availableEv>:
// must be called in:
// slave rx event callback
// or after requestFrom(address, numBytes)
int TwoWire::available(void)
{
  return hal_i2c_available(_i2c, NULL);
 80829c2:	2100      	movs	r1, #0
 80829c4:	7c00      	ldrb	r0, [r0, #16]
 80829c6:	f7ff b88b 	b.w	8081ae0 <hal_i2c_available>

080829ca <_ZN7TwoWire4readEv>:
// must be called in:
// slave rx event callback
// or after requestFrom(address, numBytes)
int TwoWire::read(void)
{
  return hal_i2c_read(_i2c, NULL);
 80829ca:	2100      	movs	r1, #0
 80829cc:	7c00      	ldrb	r0, [r0, #16]
 80829ce:	f7ff b88f 	b.w	8081af0 <hal_i2c_read>

080829d2 <_ZN7TwoWire4peekEv>:
// must be called in:
// slave rx event callback
// or after requestFrom(address, numBytes)
int TwoWire::peek(void)
{
  return hal_i2c_peek(_i2c, NULL);
 80829d2:	2100      	movs	r1, #0
 80829d4:	7c00      	ldrb	r0, [r0, #16]
 80829d6:	f7ff b893 	b.w	8081b00 <hal_i2c_peek>

080829da <_ZN7TwoWire5flushEv>:
}

void TwoWire::flush(void)
{
  hal_i2c_flush(_i2c, NULL);
 80829da:	2100      	movs	r1, #0
 80829dc:	7c00      	ldrb	r0, [r0, #16]
 80829de:	f7ff b897 	b.w	8081b10 <hal_i2c_flush>

080829e2 <_ZN7TwoWireD0Ev>:
 80829e2:	b510      	push	{r4, lr}
 80829e4:	4604      	mov	r4, r0
 80829e6:	2114      	movs	r1, #20
 80829e8:	f002 f91e 	bl	8084c28 <_ZdlPvj>
 80829ec:	4620      	mov	r0, r4
 80829ee:	bd10      	pop	{r4, pc}

080829f0 <_ZN7TwoWireC1E19hal_i2c_interface_tRK16hal_i2c_config_t>:
TwoWire::TwoWire(hal_i2c_interface_t i2c, const hal_i2c_config_t& conf)
 80829f0:	b510      	push	{r4, lr}
    virtual int available() = 0;
    virtual int read() = 0;
    virtual int peek() = 0;
    virtual void flush() = 0;

    Stream() {_timeout=1000;}
 80829f2:	f44f 737a 	mov.w	r3, #1000	; 0x3e8
 80829f6:	4604      	mov	r4, r0
 80829f8:	4608      	mov	r0, r1
 80829fa:	2100      	movs	r1, #0
 80829fc:	e9c4 1301 	strd	r1, r3, [r4, #4]
 8082a00:	4b03      	ldr	r3, [pc, #12]	; (8082a10 <_ZN7TwoWireC1E19hal_i2c_interface_tRK16hal_i2c_config_t+0x20>)
  hal_i2c_init(_i2c, &conf);
 8082a02:	4611      	mov	r1, r2
TwoWire::TwoWire(hal_i2c_interface_t i2c, const hal_i2c_config_t& conf)
 8082a04:	6023      	str	r3, [r4, #0]
  _i2c = i2c;
 8082a06:	7420      	strb	r0, [r4, #16]
  hal_i2c_init(_i2c, &conf);
 8082a08:	f7ff f892 	bl	8081b30 <hal_i2c_init>
}
 8082a0c:	4620      	mov	r0, r4
 8082a0e:	bd10      	pop	{r4, pc}
 8082a10:	08086450 	.word	0x08086450

08082a14 <_ZN7TwoWire5beginEv>:
	hal_i2c_begin(_i2c, I2C_MODE_MASTER, 0x00, NULL);
 8082a14:	2300      	movs	r3, #0
 8082a16:	7c00      	ldrb	r0, [r0, #16]
 8082a18:	461a      	mov	r2, r3
 8082a1a:	4619      	mov	r1, r3
 8082a1c:	f7ff b840 	b.w	8081aa0 <hal_i2c_begin>

08082a20 <_ZN7TwoWire11requestFromERK16WireTransmission>:
size_t TwoWire::requestFrom(const WireTransmission& transfer) {
 8082a20:	b57f      	push	{r0, r1, r2, r3, r4, r5, r6, lr}
    hal_i2c_transmission_config_t conf = {
 8082a22:	2200      	movs	r2, #0
 8082a24:	2314      	movs	r3, #20
 8082a26:	e9cd 2201 	strd	r2, r2, [sp, #4]
 8082a2a:	f8ad 3004 	strh.w	r3, [sp, #4]
    };
 8082a2e:	780b      	ldrb	r3, [r1, #0]
  return hal_i2c_request_ex(_i2c, &conf, nullptr);
 8082a30:	7c00      	ldrb	r0, [r0, #16]
 8082a32:	f88d 3008 	strb.w	r3, [sp, #8]
 8082a36:	684b      	ldr	r3, [r1, #4]
 8082a38:	9303      	str	r3, [sp, #12]
 8082a3a:	68cb      	ldr	r3, [r1, #12]
 8082a3c:	9304      	str	r3, [sp, #16]
      .flags = (uint32_t)(stop_ ? HAL_I2C_TRANSMISSION_FLAG_STOP : 0)
 8082a3e:	7a0b      	ldrb	r3, [r1, #8]
 8082a40:	a901      	add	r1, sp, #4
 8082a42:	9305      	str	r3, [sp, #20]
 8082a44:	f7ff f88c 	bl	8081b60 <hal_i2c_request_ex>
}
 8082a48:	b007      	add	sp, #28
 8082a4a:	f85d fb04 	ldr.w	pc, [sp], #4

08082a4e <_ZN7TwoWire11requestFromEhjh>:
{
 8082a4e:	b51f      	push	{r0, r1, r2, r3, r4, lr}
  return requestFrom(WireTransmission(address).quantity(quantity).stop(sendStop));
 8082a50:	3b00      	subs	r3, #0
        timeout_{HAL_I2C_DEFAULT_TIMEOUT_MS} {
 8082a52:	f88d 1000 	strb.w	r1, [sp]
 8082a56:	f04f 0164 	mov.w	r1, #100	; 0x64
 8082a5a:	bf18      	it	ne
 8082a5c:	2301      	movne	r3, #1
 8082a5e:	9103      	str	r1, [sp, #12]
 8082a60:	4669      	mov	r1, sp
    size_ = size;
 8082a62:	9201      	str	r2, [sp, #4]
 8082a64:	f88d 3008 	strb.w	r3, [sp, #8]
 8082a68:	f7ff ffda 	bl	8082a20 <_ZN7TwoWire11requestFromERK16WireTransmission>
}
 8082a6c:	b005      	add	sp, #20
 8082a6e:	f85d fb04 	ldr.w	pc, [sp], #4

08082a72 <_ZN7TwoWire11requestFromEhj>:
  return requestFrom(address, quantity, (uint8_t)true);
 8082a72:	2301      	movs	r3, #1
 8082a74:	f7ff bfeb 	b.w	8082a4e <_ZN7TwoWire11requestFromEhjh>

08082a78 <_ZN7TwoWire17beginTransmissionEh>:
	hal_i2c_begin_transmission(_i2c, address, NULL);
 8082a78:	2200      	movs	r2, #0
 8082a7a:	7c00      	ldrb	r0, [r0, #16]
 8082a7c:	f7ff b818 	b.w	8081ab0 <hal_i2c_begin_transmission>

08082a80 <_ZN7TwoWire17beginTransmissionEi>:
  beginTransmission((uint8_t)address);
 8082a80:	b2c9      	uxtb	r1, r1
 8082a82:	f7ff bff9 	b.w	8082a78 <_ZN7TwoWire17beginTransmissionEh>

08082a86 <_ZN7TwoWire17beginTransmissionERK16WireTransmission>:
void TwoWire::beginTransmission(const WireTransmission& transfer) {
 8082a86:	b57f      	push	{r0, r1, r2, r3, r4, r5, r6, lr}
    hal_i2c_transmission_config_t conf = {
 8082a88:	2200      	movs	r2, #0
 8082a8a:	460b      	mov	r3, r1
 8082a8c:	e9cd 2201 	strd	r2, r2, [sp, #4]
 8082a90:	2214      	movs	r2, #20
 8082a92:	f8ad 2004 	strh.w	r2, [sp, #4]
    };
 8082a96:	685a      	ldr	r2, [r3, #4]
      .address = address_,
 8082a98:	7809      	ldrb	r1, [r1, #0]
    };
 8082a9a:	9203      	str	r2, [sp, #12]
 8082a9c:	68da      	ldr	r2, [r3, #12]
      .flags = (uint32_t)(stop_ ? HAL_I2C_TRANSMISSION_FLAG_STOP : 0)
 8082a9e:	7a1b      	ldrb	r3, [r3, #8]
    };
 8082aa0:	9204      	str	r2, [sp, #16]
  hal_i2c_begin_transmission(_i2c, conf.address, &conf);
 8082aa2:	7c00      	ldrb	r0, [r0, #16]
 8082aa4:	aa01      	add	r2, sp, #4
 8082aa6:	f88d 1008 	strb.w	r1, [sp, #8]
      .flags = (uint32_t)(stop_ ? HAL_I2C_TRANSMISSION_FLAG_STOP : 0)
 8082aaa:	9305      	str	r3, [sp, #20]
 8082aac:	f7ff f800 	bl	8081ab0 <hal_i2c_begin_transmission>
}
 8082ab0:	b007      	add	sp, #28
 8082ab2:	f85d fb04 	ldr.w	pc, [sp], #4

08082ab6 <_ZN7TwoWire15endTransmissionEh>:
	return hal_i2c_end_transmission(_i2c, sendStop, NULL);
 8082ab6:	2200      	movs	r2, #0
 8082ab8:	7c00      	ldrb	r0, [r0, #16]
 8082aba:	f7ff b801 	b.w	8081ac0 <hal_i2c_end_transmission>

08082abe <_ZN7TwoWire15endTransmissionEv>:
  return endTransmission(true);
 8082abe:	2101      	movs	r1, #1
 8082ac0:	f7ff bff9 	b.w	8082ab6 <_ZN7TwoWire15endTransmissionEh>

08082ac4 <_ZN7TwoWire4lockEv>:
{
  hal_i2c_reset(_i2c, 0, NULL);
}

bool TwoWire::lock()
{
 8082ac4:	b508      	push	{r3, lr}
  return hal_i2c_lock(_i2c, NULL) == 0;
 8082ac6:	2100      	movs	r1, #0
 8082ac8:	7c00      	ldrb	r0, [r0, #16]
 8082aca:	f7ff f839 	bl	8081b40 <hal_i2c_lock>
}
 8082ace:	fab0 f080 	clz	r0, r0
 8082ad2:	0940      	lsrs	r0, r0, #5
 8082ad4:	bd08      	pop	{r3, pc}

08082ad6 <_ZN7TwoWire6unlockEv>:

bool TwoWire::unlock()
{
 8082ad6:	b508      	push	{r3, lr}
  return hal_i2c_unlock(_i2c, NULL) == 0;
 8082ad8:	2100      	movs	r1, #0
 8082ada:	7c00      	ldrb	r0, [r0, #16]
 8082adc:	f7ff f838 	bl	8081b50 <hal_i2c_unlock>
}
 8082ae0:	fab0 f080 	clz	r0, r0
 8082ae4:	0940      	lsrs	r0, r0, #5
 8082ae6:	bd08      	pop	{r3, pc}

08082ae8 <_Z26call_raw_interrupt_handlerPv>:
}

void call_raw_interrupt_handler(void* data)
{
    raw_interrupt_handler_t handler = raw_interrupt_handler_t(data);
    handler();
 8082ae8:	4700      	bx	r0
	...

08082aec <_Z15attachInterrupttPFvvE13InterruptModeah>:
    }
    return handler!=NULL;
}

bool attachInterrupt(uint16_t pin, raw_interrupt_handler_t handler, InterruptMode mode, int8_t priority, uint8_t subpriority)
{
 8082aec:	e92d 41ff 	stmdb	sp!, {r0, r1, r2, r3, r4, r5, r6, r7, r8, lr}
    HAL_Interrupts_Detach(pin);
    HAL_InterruptExtraConfiguration extra = {0};
 8082af0:	2400      	movs	r4, #0
{
 8082af2:	461d      	mov	r5, r3
 8082af4:	460f      	mov	r7, r1
 8082af6:	4690      	mov	r8, r2
 8082af8:	4606      	mov	r6, r0
    HAL_Interrupts_Detach(pin);
 8082afa:	f7fe ffc1 	bl	8081a80 <HAL_Interrupts_Detach>
  extra.version = HAL_INTERRUPT_EXTRA_CONFIGURATION_VERSION_1;
 8082afe:	2304      	movs	r3, #4
  if (priority >= 0) {
 8082b00:	42a5      	cmp	r5, r4
  extra.version = HAL_INTERRUPT_EXTRA_CONFIGURATION_VERSION_1;
 8082b02:	f88d 300c 	strb.w	r3, [sp, #12]
    extra.IRQChannelSubPriority = subpriority;
 8082b06:	bfa8      	it	ge
 8082b08:	f89d 3028 	ldrbge.w	r3, [sp, #40]	; 0x28
    HAL_InterruptExtraConfiguration extra = {0};
 8082b0c:	f8ad 400d 	strh.w	r4, [sp, #13]
 8082b10:	f88d 400f 	strb.w	r4, [sp, #15]
    return &extra;
 8082b14:	bfa4      	itt	ge
 8082b16:	ac03      	addge	r4, sp, #12
    extra.IRQChannelSubPriority = subpriority;
 8082b18:	f88d 300e 	strbge.w	r3, [sp, #14]
    if (SYSTEM_ERROR_NONE != HAL_Interrupts_Attach(pin, call_raw_interrupt_handler, (void*)handler, mode, configure_interrupt(extra, priority, subpriority))) {
 8082b1c:	463a      	mov	r2, r7
 8082b1e:	4643      	mov	r3, r8
 8082b20:	4630      	mov	r0, r6
 8082b22:	4906      	ldr	r1, [pc, #24]	; (8082b3c <_Z15attachInterrupttPFvvE13InterruptModeah+0x50>)
 8082b24:	9400      	str	r4, [sp, #0]
    extra.IRQChannelPreemptionPriority = (uint8_t)priority;
 8082b26:	bfa8      	it	ge
 8082b28:	f88d 500d 	strbge.w	r5, [sp, #13]
    if (SYSTEM_ERROR_NONE != HAL_Interrupts_Attach(pin, call_raw_interrupt_handler, (void*)handler, mode, configure_interrupt(extra, priority, subpriority))) {
 8082b2c:	f7fe ffa0 	bl	8081a70 <HAL_Interrupts_Attach>
        return false;
    }
    return true;
}
 8082b30:	fab0 f080 	clz	r0, r0
 8082b34:	0940      	lsrs	r0, r0, #5
 8082b36:	b004      	add	sp, #16
 8082b38:	e8bd 81f0 	ldmia.w	sp!, {r4, r5, r6, r7, r8, pc}
 8082b3c:	08082ae9 	.word	0x08082ae9

08082b40 <_ZN9IPAddressD1Ev>:
    IPAddress(uint8_t first_octet, uint8_t second_octet, uint8_t third_octet, uint8_t fourth_octet);
    IPAddress(uint32_t address);
    IPAddress(const uint8_t* address);
    IPAddress(const HAL_IPAddress& address);

    virtual ~IPAddress() {}
 8082b40:	4770      	bx	lr

08082b42 <_ZN9IPAddressD0Ev>:
 8082b42:	b510      	push	{r4, lr}
 8082b44:	4604      	mov	r4, r0
 8082b46:	2108      	movs	r1, #8
 8082b48:	f002 f86e 	bl	8084c28 <_ZdlPvj>
 8082b4c:	4620      	mov	r0, r4
 8082b4e:	bd10      	pop	{r4, pc}

08082b50 <_ZNK9IPAddress7printToER5Print>:
#endif // Wiring_IPv6
	return address.ipv4==that.address.ipv4;
}

size_t IPAddress::printTo(Print& p) const
{
 8082b50:	b5f8      	push	{r3, r4, r5, r6, r7, lr}
 8082b52:	460e      	mov	r6, r1
 8082b54:	2400      	movs	r4, #0
 8082b56:	f100 0708 	add.w	r7, r0, #8
 8082b5a:	1d05      	adds	r5, r0, #4
        return printNumber(val, base) + t;
 8082b5c:	f817 1d01 	ldrb.w	r1, [r7, #-1]!
 8082b60:	220a      	movs	r2, #10
 8082b62:	4630      	mov	r0, r6
 8082b64:	f001 faae 	bl	80840c4 <_ZN5Print11printNumberEmh>
#else
#pragma message "HAL_USE_INET_HAL_POSIX is required for IPv6 support in IPAddress::printTo()"
#endif // HAL_USE_INET_HAL_POSIX
#endif // Wiring_IPv6
    size_t n = 0;
    for (int i = 0; i < 4; i++)
 8082b68:	42af      	cmp	r7, r5
    {
        if (n)
            n += p.print('.');
        n += p.print((*this)[i], DEC);
 8082b6a:	4404      	add	r4, r0
    for (int i = 0; i < 4; i++)
 8082b6c:	d101      	bne.n	8082b72 <_ZNK9IPAddress7printToER5Print+0x22>
    }
    return n;
}
 8082b6e:	4620      	mov	r0, r4
 8082b70:	bdf8      	pop	{r3, r4, r5, r6, r7, pc}
        if (n)
 8082b72:	2c00      	cmp	r4, #0
 8082b74:	d0f2      	beq.n	8082b5c <_ZNK9IPAddress7printToER5Print+0xc>
            n += p.print('.');
 8082b76:	212e      	movs	r1, #46	; 0x2e
 8082b78:	4630      	mov	r0, r6
 8082b7a:	f001 fa8a 	bl	8084092 <_ZN5Print5printEc>
 8082b7e:	4404      	add	r4, r0
 8082b80:	e7ec      	b.n	8082b5c <_ZNK9IPAddress7printToER5Print+0xc>
	...

08082b84 <_ZN9IPAddressC1Ev>:
IPAddress::IPAddress()
 8082b84:	4a02      	ldr	r2, [pc, #8]	; (8082b90 <_ZN9IPAddressC1Ev+0xc>)
 8082b86:	6002      	str	r2, [r0, #0]
        return address;
    }

    virtual size_t printTo(Print& p) const;

    void clear() { memset(&address, 0, sizeof (address)); }
 8082b88:	2200      	movs	r2, #0
 8082b8a:	6042      	str	r2, [r0, #4]
}
 8082b8c:	4770      	bx	lr
 8082b8e:	bf00      	nop
 8082b90:	08086478 	.word	0x08086478

08082b94 <_ZN9IPAddressC1ERK16_HAL_IPAddress_t>:
IPAddress::IPAddress(const HAL_IPAddress& address)
 8082b94:	4a02      	ldr	r2, [pc, #8]	; (8082ba0 <_ZN9IPAddressC1ERK16_HAL_IPAddress_t+0xc>)
 8082b96:	6002      	str	r2, [r0, #0]
    memcpy(&this->address, &address, sizeof(address));
 8082b98:	680a      	ldr	r2, [r1, #0]
 8082b9a:	6042      	str	r2, [r0, #4]
}
 8082b9c:	4770      	bx	lr
 8082b9e:	bf00      	nop
 8082ba0:	08086478 	.word	0x08086478

08082ba4 <_ZN9IPAddressC1Em>:
IPAddress::IPAddress(uint32_t address)
 8082ba4:	4a01      	ldr	r2, [pc, #4]	; (8082bac <_ZN9IPAddressC1Em+0x8>)
    address.ipv4 = ipv4;
 8082ba6:	e9c0 2100 	strd	r2, r1, [r0]
}
 8082baa:	4770      	bx	lr
 8082bac:	08086478 	.word	0x08086478

08082bb0 <_ZN9IPAddress8set_ipv4Ehhhh>:
{
 8082bb0:	b510      	push	{r4, lr}
    address.ipv4 = b0<<24 | b1 << 16 | b2 << 8 | b3;
 8082bb2:	f89d 4008 	ldrb.w	r4, [sp, #8]
 8082bb6:	ea44 2403 	orr.w	r4, r4, r3, lsl #8
 8082bba:	ea44 4402 	orr.w	r4, r4, r2, lsl #16
 8082bbe:	ea44 6401 	orr.w	r4, r4, r1, lsl #24
 8082bc2:	6044      	str	r4, [r0, #4]
}
 8082bc4:	bd10      	pop	{r4, pc}
	...

08082bc8 <_ZN9IPAddressC1Ehhhh>:
IPAddress::IPAddress(uint8_t first_octet, uint8_t second_octet, uint8_t third_octet, uint8_t fourth_octet)
 8082bc8:	b537      	push	{r0, r1, r2, r4, r5, lr}
 8082bca:	4d04      	ldr	r5, [pc, #16]	; (8082bdc <_ZN9IPAddressC1Ehhhh+0x14>)
 8082bcc:	6005      	str	r5, [r0, #0]
    set_ipv4(first_octet, second_octet, third_octet, fourth_octet);
 8082bce:	f89d 5018 	ldrb.w	r5, [sp, #24]
 8082bd2:	9500      	str	r5, [sp, #0]
 8082bd4:	f7ff ffec 	bl	8082bb0 <_ZN9IPAddress8set_ipv4Ehhhh>
}
 8082bd8:	b003      	add	sp, #12
 8082bda:	bd30      	pop	{r4, r5, pc}
 8082bdc:	08086478 	.word	0x08086478

08082be0 <_ZN12_GLOBAL__N_19skipTokenEPK9jsmntok_t>:

namespace {

// Skips token and all its children tokens if any
const jsmntok_t* skipToken(const jsmntok_t *t) {
    size_t n = 1;
 8082be0:	2201      	movs	r2, #1
 8082be2:	f100 0310 	add.w	r3, r0, #16
    do {
        if (t->type == JSMN_OBJECT) {
 8082be6:	f813 1c10 	ldrb.w	r1, [r3, #-16]
 8082bea:	4618      	mov	r0, r3
 8082bec:	2901      	cmp	r1, #1
 8082bee:	d108      	bne.n	8082c02 <_ZN12_GLOBAL__N_19skipTokenEPK9jsmntok_t+0x22>
            n += t->size * 2; // Number of name and value tokens
 8082bf0:	f853 1c04 	ldr.w	r1, [r3, #-4]
 8082bf4:	eb02 0241 	add.w	r2, r2, r1, lsl #1
        } else if (t->type == JSMN_ARRAY) {
            n += t->size; // Number of value tokens
        }
        ++t;
        --n;
    } while (n);
 8082bf8:	3a01      	subs	r2, #1
 8082bfa:	f103 0310 	add.w	r3, r3, #16
 8082bfe:	d1f2      	bne.n	8082be6 <_ZN12_GLOBAL__N_19skipTokenEPK9jsmntok_t+0x6>
    return t;
}
 8082c00:	4770      	bx	lr
        } else if (t->type == JSMN_ARRAY) {
 8082c02:	2902      	cmp	r1, #2
            n += t->size; // Number of value tokens
 8082c04:	bf04      	itt	eq
 8082c06:	f853 1c04 	ldreq.w	r1, [r3, #-4]
 8082c0a:	1852      	addeq	r2, r2, r1
 8082c0c:	e7f4      	b.n	8082bf8 <_ZN12_GLOBAL__N_19skipTokenEPK9jsmntok_t+0x18>

08082c0e <_ZN5spark10JSONWriter6printfEPKcz>:
    write("null", 4);
    state_ = NEXT;
    return *this;
}

void spark::JSONWriter::printf(const char *fmt, ...) {
 8082c0e:	b40e      	push	{r1, r2, r3}
 8082c10:	e92d 41f0 	stmdb	sp!, {r4, r5, r6, r7, r8, lr}
 8082c14:	b087      	sub	sp, #28
 8082c16:	af00      	add	r7, sp, #0
 8082c18:	f107 0534 	add.w	r5, r7, #52	; 0x34
 8082c1c:	f855 8b04 	ldr.w	r8, [r5], #4
 8082c20:	4604      	mov	r4, r0
    char buf[16];
    va_list args;
    va_start(args, fmt);
    int n = vsnprintf(buf, sizeof(buf), fmt, args);
 8082c22:	462b      	mov	r3, r5
 8082c24:	4642      	mov	r2, r8
 8082c26:	2110      	movs	r1, #16
 8082c28:	f107 0008 	add.w	r0, r7, #8
    va_start(args, fmt);
 8082c2c:	607d      	str	r5, [r7, #4]
    int n = vsnprintf(buf, sizeof(buf), fmt, args);
 8082c2e:	f7ff f9b7 	bl	8081fa0 <vsnprintf>
    va_end(args);
    if ((size_t)n >= sizeof(buf)) {
 8082c32:	280f      	cmp	r0, #15
 8082c34:	d91b      	bls.n	8082c6e <_ZN5spark10JSONWriter6printfEPKcz+0x60>
        char buf[n + 1]; // Use larger buffer
 8082c36:	f100 0308 	add.w	r3, r0, #8
 8082c3a:	f023 0307 	bic.w	r3, r3, #7
        va_start(args, fmt);
        n = vsnprintf(buf, sizeof(buf), fmt, args);
        va_end(args);
        if (n > 0) {
            write(buf, n);
        }
 8082c3e:	466e      	mov	r6, sp
        char buf[n + 1]; // Use larger buffer
 8082c40:	ebad 0d03 	sub.w	sp, sp, r3
        n = vsnprintf(buf, sizeof(buf), fmt, args);
 8082c44:	4642      	mov	r2, r8
 8082c46:	1c41      	adds	r1, r0, #1
 8082c48:	462b      	mov	r3, r5
 8082c4a:	4668      	mov	r0, sp
        va_start(args, fmt);
 8082c4c:	607d      	str	r5, [r7, #4]
        n = vsnprintf(buf, sizeof(buf), fmt, args);
 8082c4e:	f7ff f9a7 	bl	8081fa0 <vsnprintf>
        if (n > 0) {
 8082c52:	1e02      	subs	r2, r0, #0
 8082c54:	dd04      	ble.n	8082c60 <_ZN5spark10JSONWriter6printfEPKcz+0x52>
            write(buf, n);
 8082c56:	6823      	ldr	r3, [r4, #0]
 8082c58:	4669      	mov	r1, sp
 8082c5a:	4620      	mov	r0, r4
 8082c5c:	689b      	ldr	r3, [r3, #8]
 8082c5e:	4798      	blx	r3
 8082c60:	46b5      	mov	sp, r6
    } else if (n > 0) {
        write(buf, n);
    }
}
 8082c62:	371c      	adds	r7, #28
 8082c64:	46bd      	mov	sp, r7
 8082c66:	e8bd 41f0 	ldmia.w	sp!, {r4, r5, r6, r7, r8, lr}
 8082c6a:	b003      	add	sp, #12
 8082c6c:	4770      	bx	lr
    } else if (n > 0) {
 8082c6e:	2800      	cmp	r0, #0
 8082c70:	d0f7      	beq.n	8082c62 <_ZN5spark10JSONWriter6printfEPKcz+0x54>
        write(buf, n);
 8082c72:	6823      	ldr	r3, [r4, #0]
 8082c74:	4602      	mov	r2, r0
 8082c76:	689b      	ldr	r3, [r3, #8]
 8082c78:	4620      	mov	r0, r4
 8082c7a:	f107 0108 	add.w	r1, r7, #8
 8082c7e:	4798      	blx	r3
}
 8082c80:	e7ef      	b.n	8082c62 <_ZN5spark10JSONWriter6printfEPKcz+0x54>

08082c82 <_ZNSt16_Sp_counted_baseILN9__gnu_cxx12_Lock_policyE0EE10_M_releaseEv.part.0>:
    _Sp_counted_base<_S_single>::_M_release() noexcept
 8082c82:	b510      	push	{r4, lr}
 8082c84:	4604      	mov	r4, r0
          _M_dispose();
 8082c86:	6803      	ldr	r3, [r0, #0]
 8082c88:	689b      	ldr	r3, [r3, #8]
 8082c8a:	4798      	blx	r3
          if (--_M_weak_count == 0)
 8082c8c:	68a3      	ldr	r3, [r4, #8]
 8082c8e:	3b01      	subs	r3, #1
 8082c90:	60a3      	str	r3, [r4, #8]
 8082c92:	b92b      	cbnz	r3, 8082ca0 <_ZNSt16_Sp_counted_baseILN9__gnu_cxx12_Lock_policyE0EE10_M_releaseEv.part.0+0x1e>
            _M_destroy();
 8082c94:	6823      	ldr	r3, [r4, #0]
 8082c96:	4620      	mov	r0, r4
    }
 8082c98:	e8bd 4010 	ldmia.w	sp!, {r4, lr}
            _M_destroy();
 8082c9c:	68db      	ldr	r3, [r3, #12]
 8082c9e:	4718      	bx	r3
    }
 8082ca0:	bd10      	pop	{r4, pc}

08082ca2 <_ZN5spark10JSONWriter5writeEc>:

inline spark::JSONWriter& spark::JSONWriter::value(const String &val) {
    return value(val.c_str(), val.length());
}

inline void spark::JSONWriter::write(char c) {
 8082ca2:	b507      	push	{r0, r1, r2, lr}
    write(&c, 1);
 8082ca4:	6803      	ldr	r3, [r0, #0]
inline void spark::JSONWriter::write(char c) {
 8082ca6:	f88d 1007 	strb.w	r1, [sp, #7]
    write(&c, 1);
 8082caa:	2201      	movs	r2, #1
 8082cac:	689b      	ldr	r3, [r3, #8]
 8082cae:	f10d 0107 	add.w	r1, sp, #7
 8082cb2:	4798      	blx	r3
}
 8082cb4:	b003      	add	sp, #12
 8082cb6:	f85d fb04 	ldr.w	pc, [sp], #4

08082cba <_ZNSt12__shared_ptrIN5spark6detail8JSONDataELN9__gnu_cxx12_Lock_policyE0EEaSERKS5_>:
    class __shared_ptr
 8082cba:	b538      	push	{r3, r4, r5, lr}
 8082cbc:	680b      	ldr	r3, [r1, #0]
 8082cbe:	4604      	mov	r4, r0
 8082cc0:	6003      	str	r3, [r0, #0]
 8082cc2:	684d      	ldr	r5, [r1, #4]
	if (__tmp != _M_pi)
 8082cc4:	6843      	ldr	r3, [r0, #4]
 8082cc6:	429d      	cmp	r5, r3
 8082cc8:	d00c      	beq.n	8082ce4 <_ZNSt12__shared_ptrIN5spark6detail8JSONDataELN9__gnu_cxx12_Lock_policyE0EEaSERKS5_+0x2a>
	    if (__tmp != 0)
 8082cca:	b115      	cbz	r5, 8082cd2 <_ZNSt12__shared_ptrIN5spark6detail8JSONDataELN9__gnu_cxx12_Lock_policyE0EEaSERKS5_+0x18>
    { ++_M_use_count; }
 8082ccc:	686b      	ldr	r3, [r5, #4]
 8082cce:	3301      	adds	r3, #1
 8082cd0:	606b      	str	r3, [r5, #4]
	    if (_M_pi != 0)
 8082cd2:	6860      	ldr	r0, [r4, #4]
 8082cd4:	b128      	cbz	r0, 8082ce2 <_ZNSt12__shared_ptrIN5spark6detail8JSONDataELN9__gnu_cxx12_Lock_policyE0EEaSERKS5_+0x28>
      if (--_M_use_count == 0)
 8082cd6:	6843      	ldr	r3, [r0, #4]
 8082cd8:	3b01      	subs	r3, #1
 8082cda:	6043      	str	r3, [r0, #4]
 8082cdc:	b90b      	cbnz	r3, 8082ce2 <_ZNSt12__shared_ptrIN5spark6detail8JSONDataELN9__gnu_cxx12_Lock_policyE0EEaSERKS5_+0x28>
 8082cde:	f7ff ffd0 	bl	8082c82 <_ZNSt16_Sp_counted_baseILN9__gnu_cxx12_Lock_policyE0EE10_M_releaseEv.part.0>
	    _M_pi = __tmp;
 8082ce2:	6065      	str	r5, [r4, #4]
    class __shared_ptr
 8082ce4:	4620      	mov	r0, r4
 8082ce6:	bd38      	pop	{r3, r4, r5, pc}

08082ce8 <_ZN5spark9JSONValueC1EPK9jsmntok_tSt10shared_ptrINS_6detail8JSONDataEE>:
spark::JSONValue::JSONValue(const jsmntok_t *t, detail::JSONDataPtr d) :
 8082ce8:	460b      	mov	r3, r1
 8082cea:	4611      	mov	r1, r2
      : _M_ptr(0), _M_refcount()
 8082cec:	2200      	movs	r2, #0
 8082cee:	b510      	push	{r4, lr}
 8082cf0:	4604      	mov	r4, r0
      constexpr __shared_count() noexcept : _M_pi(0)
 8082cf2:	e9c0 2200 	strd	r2, r2, [r0]
        t_ = t;
 8082cf6:	6083      	str	r3, [r0, #8]
    if (t) {
 8082cf8:	b90b      	cbnz	r3, 8082cfe <_ZN5spark9JSONValueC1EPK9jsmntok_tSt10shared_ptrINS_6detail8JSONDataEE+0x16>
}
 8082cfa:	4620      	mov	r0, r4
 8082cfc:	bd10      	pop	{r4, pc}
   *
   *  The object pointed to is deleted when the last shared_ptr pointing to
   *  it is destroyed or reset.
  */
  template<typename _Tp>
    class shared_ptr : public __shared_ptr<_Tp>
 8082cfe:	f7ff ffdc 	bl	8082cba <_ZNSt12__shared_ptrIN5spark6detail8JSONDataELN9__gnu_cxx12_Lock_policyE0EEaSERKS5_>
 8082d02:	e7fa      	b.n	8082cfa <_ZN5spark9JSONValueC1EPK9jsmntok_tSt10shared_ptrINS_6detail8JSONDataEE+0x12>

08082d04 <_ZNK5spark9JSONValue4typeEv>:
spark::JSONType spark::JSONValue::type() const {
 8082d04:	4603      	mov	r3, r0
    if (!t_) {
 8082d06:	6880      	ldr	r0, [r0, #8]
 8082d08:	b320      	cbz	r0, 8082d54 <_ZNK5spark9JSONValue4typeEv+0x50>
    switch (t_->type) {
 8082d0a:	7802      	ldrb	r2, [r0, #0]
 8082d0c:	2a03      	cmp	r2, #3
 8082d0e:	d81a      	bhi.n	8082d46 <_ZNK5spark9JSONValue4typeEv+0x42>
 8082d10:	e8df f002 	tbb	[pc, r2]
 8082d14:	1b021704 	.word	0x1b021704
 8082d18:	2005      	movs	r0, #5
 8082d1a:	4770      	bx	lr
        const char c = d_->json[t_->start];
 8082d1c:	681b      	ldr	r3, [r3, #0]
 8082d1e:	685a      	ldr	r2, [r3, #4]
 8082d20:	6843      	ldr	r3, [r0, #4]
 8082d22:	5cd0      	ldrb	r0, [r2, r3]
        if (c == '-' || (c >= '0' && c <= '9')) {
 8082d24:	282d      	cmp	r0, #45	; 0x2d
 8082d26:	d012      	beq.n	8082d4e <_ZNK5spark9JSONValue4typeEv+0x4a>
 8082d28:	f1a0 0330 	sub.w	r3, r0, #48	; 0x30
 8082d2c:	2b09      	cmp	r3, #9
 8082d2e:	d90e      	bls.n	8082d4e <_ZNK5spark9JSONValue4typeEv+0x4a>
        } else if (c == 't' || c == 'f') { // Literal names are always in lower case
 8082d30:	2874      	cmp	r0, #116	; 0x74
 8082d32:	d00e      	beq.n	8082d52 <_ZNK5spark9JSONValue4typeEv+0x4e>
 8082d34:	2866      	cmp	r0, #102	; 0x66
 8082d36:	d00c      	beq.n	8082d52 <_ZNK5spark9JSONValue4typeEv+0x4e>
        return JSON_TYPE_INVALID;
 8082d38:	f1a0 036e 	sub.w	r3, r0, #110	; 0x6e
 8082d3c:	4258      	negs	r0, r3
 8082d3e:	4158      	adcs	r0, r3
 8082d40:	4770      	bx	lr
        return JSON_TYPE_OBJECT;
 8082d42:	2006      	movs	r0, #6
 8082d44:	4770      	bx	lr
        return JSON_TYPE_INVALID;
 8082d46:	2000      	movs	r0, #0
 8082d48:	4770      	bx	lr
        return JSON_TYPE_STRING;
 8082d4a:	2004      	movs	r0, #4
 8082d4c:	4770      	bx	lr
            return JSON_TYPE_NUMBER;
 8082d4e:	2003      	movs	r0, #3
 8082d50:	4770      	bx	lr
            return JSON_TYPE_BOOL;
 8082d52:	2002      	movs	r0, #2
}
 8082d54:	4770      	bx	lr

08082d56 <_ZNK5spark9JSONValue5toIntEv>:
int spark::JSONValue::toInt() const {
 8082d56:	b510      	push	{r4, lr}
 8082d58:	4604      	mov	r4, r0
    switch (type()) {
 8082d5a:	f7ff ffd3 	bl	8082d04 <_ZNK5spark9JSONValue4typeEv>
 8082d5e:	2802      	cmp	r0, #2
 8082d60:	d00e      	beq.n	8082d80 <_ZNK5spark9JSONValue5toIntEv+0x2a>
 8082d62:	1ec3      	subs	r3, r0, #3
 8082d64:	b2db      	uxtb	r3, r3
 8082d66:	2b01      	cmp	r3, #1
 8082d68:	d814      	bhi.n	8082d94 <_ZNK5spark9JSONValue5toIntEv+0x3e>
        const char* const s = d_->json + t_->start;
 8082d6a:	6822      	ldr	r2, [r4, #0]
 8082d6c:	68a3      	ldr	r3, [r4, #8]
 8082d6e:	6850      	ldr	r0, [r2, #4]
 8082d70:	685b      	ldr	r3, [r3, #4]
        return strtol(s, nullptr, 10);
 8082d72:	220a      	movs	r2, #10
}
 8082d74:	e8bd 4010 	ldmia.w	sp!, {r4, lr}
        return strtol(s, nullptr, 10);
 8082d78:	2100      	movs	r1, #0
 8082d7a:	4418      	add	r0, r3
 8082d7c:	f003 b88c 	b.w	8085e98 <strtol>
        const char* const s = d_->json + t_->start;
 8082d80:	6822      	ldr	r2, [r4, #0]
 8082d82:	68a3      	ldr	r3, [r4, #8]
        return *s == 't';
 8082d84:	6852      	ldr	r2, [r2, #4]
 8082d86:	685b      	ldr	r3, [r3, #4]
 8082d88:	5cd0      	ldrb	r0, [r2, r3]
 8082d8a:	f1a0 0374 	sub.w	r3, r0, #116	; 0x74
 8082d8e:	4258      	negs	r0, r3
 8082d90:	4158      	adcs	r0, r3
}
 8082d92:	bd10      	pop	{r4, pc}
    switch (type()) {
 8082d94:	2000      	movs	r0, #0
 8082d96:	e7fc      	b.n	8082d92 <_ZNK5spark9JSONValue5toIntEv+0x3c>

08082d98 <_ZN5spark10JSONStringC1EPK9jsmntok_tSt10shared_ptrINS_6detail8JSONDataEE>:
spark::JSONString::JSONString(const jsmntok_t *t, detail::JSONDataPtr d) :
 8082d98:	460b      	mov	r3, r1
 8082d9a:	4611      	mov	r1, r2
      : _M_ptr(0), _M_refcount()
 8082d9c:	2200      	movs	r2, #0
 8082d9e:	b510      	push	{r4, lr}
 8082da0:	4604      	mov	r4, r0
      constexpr __shared_count() noexcept : _M_pi(0)
 8082da2:	e9c0 2200 	strd	r2, r2, [r0]
        n_(0) {
 8082da6:	480d      	ldr	r0, [pc, #52]	; (8082ddc <_ZN5spark10JSONStringC1EPK9jsmntok_tSt10shared_ptrINS_6detail8JSONDataEE+0x44>)
 8082da8:	e9c4 0202 	strd	r0, r2, [r4, #8]
    if (t && (t->type == JSMN_STRING || t->type == JSMN_PRIMITIVE)) {
 8082dac:	b1a3      	cbz	r3, 8082dd8 <_ZN5spark10JSONStringC1EPK9jsmntok_tSt10shared_ptrINS_6detail8JSONDataEE+0x40>
 8082dae:	781a      	ldrb	r2, [r3, #0]
 8082db0:	2a03      	cmp	r2, #3
 8082db2:	d006      	beq.n	8082dc2 <_ZN5spark10JSONStringC1EPK9jsmntok_tSt10shared_ptrINS_6detail8JSONDataEE+0x2a>
 8082db4:	b982      	cbnz	r2, 8082dd8 <_ZN5spark10JSONStringC1EPK9jsmntok_tSt10shared_ptrINS_6detail8JSONDataEE+0x40>
        if (t->type != JSMN_PRIMITIVE || d->json[t->start] != 'n') { // Nulls are treated as empty strings
 8082db6:	680a      	ldr	r2, [r1, #0]
 8082db8:	6850      	ldr	r0, [r2, #4]
 8082dba:	685a      	ldr	r2, [r3, #4]
 8082dbc:	5c82      	ldrb	r2, [r0, r2]
 8082dbe:	2a6e      	cmp	r2, #110	; 0x6e
 8082dc0:	d007      	beq.n	8082dd2 <_ZN5spark10JSONStringC1EPK9jsmntok_tSt10shared_ptrINS_6detail8JSONDataEE+0x3a>
            s_ = d->json + t->start;
 8082dc2:	680a      	ldr	r2, [r1, #0]
 8082dc4:	6858      	ldr	r0, [r3, #4]
 8082dc6:	6852      	ldr	r2, [r2, #4]
            n_ = t->end - t->start;
 8082dc8:	689b      	ldr	r3, [r3, #8]
            s_ = d->json + t->start;
 8082dca:	4402      	add	r2, r0
            n_ = t->end - t->start;
 8082dcc:	1a1b      	subs	r3, r3, r0
            s_ = d->json + t->start;
 8082dce:	60a2      	str	r2, [r4, #8]
            n_ = t->end - t->start;
 8082dd0:	60e3      	str	r3, [r4, #12]
 8082dd2:	4620      	mov	r0, r4
 8082dd4:	f7ff ff71 	bl	8082cba <_ZNSt12__shared_ptrIN5spark6detail8JSONDataELN9__gnu_cxx12_Lock_policyE0EEaSERKS5_>
}
 8082dd8:	4620      	mov	r0, r4
 8082dda:	bd10      	pop	{r4, pc}
 8082ddc:	080864ea 	.word	0x080864ea

08082de0 <_ZN5spark18JSONObjectIteratorC1EPK9jsmntok_tSt10shared_ptrINS_6detail8JSONDataEE>:
spark::JSONObjectIterator::JSONObjectIterator(const jsmntok_t *t, detail::JSONDataPtr d) :
 8082de0:	b538      	push	{r3, r4, r5, lr}
      : _M_ptr(0), _M_refcount()
 8082de2:	2500      	movs	r5, #0
 8082de4:	460b      	mov	r3, r1
 8082de6:	4604      	mov	r4, r0
 8082de8:	4611      	mov	r1, r2
      constexpr __shared_count() noexcept : _M_pi(0)
 8082dea:	e9c0 5500 	strd	r5, r5, [r0]
        n_(0) {
 8082dee:	e9c0 5502 	strd	r5, r5, [r0, #8]
 8082df2:	e9c0 5504 	strd	r5, r5, [r0, #16]
    if (t && t->type == JSMN_OBJECT) {
 8082df6:	b14b      	cbz	r3, 8082e0c <_ZN5spark18JSONObjectIteratorC1EPK9jsmntok_tSt10shared_ptrINS_6detail8JSONDataEE+0x2c>
 8082df8:	781a      	ldrb	r2, [r3, #0]
 8082dfa:	2a01      	cmp	r2, #1
 8082dfc:	d106      	bne.n	8082e0c <_ZN5spark18JSONObjectIteratorC1EPK9jsmntok_tSt10shared_ptrINS_6detail8JSONDataEE+0x2c>
        t_ = t + 1; // First property's name
 8082dfe:	f103 0210 	add.w	r2, r3, #16
        n_ = t->size; // Number of properties
 8082e02:	68db      	ldr	r3, [r3, #12]
        t_ = t + 1; // First property's name
 8082e04:	6082      	str	r2, [r0, #8]
        n_ = t->size; // Number of properties
 8082e06:	6143      	str	r3, [r0, #20]
 8082e08:	f7ff ff57 	bl	8082cba <_ZNSt12__shared_ptrIN5spark6detail8JSONDataELN9__gnu_cxx12_Lock_policyE0EEaSERKS5_>
}
 8082e0c:	4620      	mov	r0, r4
 8082e0e:	bd38      	pop	{r3, r4, r5, pc}

08082e10 <_ZN5spark18JSONObjectIterator4nextEv>:
bool spark::JSONObjectIterator::next() {
 8082e10:	b510      	push	{r4, lr}
    if (!n_) {
 8082e12:	6943      	ldr	r3, [r0, #20]
bool spark::JSONObjectIterator::next() {
 8082e14:	4604      	mov	r4, r0
    if (!n_) {
 8082e16:	b163      	cbz	r3, 8082e32 <_ZN5spark18JSONObjectIterator4nextEv+0x22>
    k_ = t_; // Name
 8082e18:	6880      	ldr	r0, [r0, #8]
    --n_;
 8082e1a:	3b01      	subs	r3, #1
    k_ = t_; // Name
 8082e1c:	60e0      	str	r0, [r4, #12]
    ++t_;
 8082e1e:	3010      	adds	r0, #16
 8082e20:	60a0      	str	r0, [r4, #8]
    v_ = t_; // Value
 8082e22:	6120      	str	r0, [r4, #16]
    --n_;
 8082e24:	6163      	str	r3, [r4, #20]
    if (n_) {
 8082e26:	b113      	cbz	r3, 8082e2e <_ZN5spark18JSONObjectIterator4nextEv+0x1e>
        t_ = skipToken(t_);
 8082e28:	f7ff feda 	bl	8082be0 <_ZN12_GLOBAL__N_19skipTokenEPK9jsmntok_t>
 8082e2c:	60a0      	str	r0, [r4, #8]
    return true;
 8082e2e:	2001      	movs	r0, #1
 8082e30:	e000      	b.n	8082e34 <_ZN5spark18JSONObjectIterator4nextEv+0x24>
        return false;
 8082e32:	4618      	mov	r0, r3
}
 8082e34:	bd10      	pop	{r4, pc}

08082e36 <_ZN5spark10JSONWriter9endObjectEv>:
spark::JSONWriter& spark::JSONWriter::endObject() {
 8082e36:	b510      	push	{r4, lr}
    write('}');
 8082e38:	217d      	movs	r1, #125	; 0x7d
spark::JSONWriter& spark::JSONWriter::endObject() {
 8082e3a:	4604      	mov	r4, r0
    write('}');
 8082e3c:	f7ff ff31 	bl	8082ca2 <_ZN5spark10JSONWriter5writeEc>
    state_ = NEXT;
 8082e40:	2301      	movs	r3, #1
}
 8082e42:	4620      	mov	r0, r4
    state_ = NEXT;
 8082e44:	7123      	strb	r3, [r4, #4]
}
 8082e46:	bd10      	pop	{r4, pc}

08082e48 <_ZN5spark10JSONWriter14writeSeparatorEv>:

void spark::JSONWriter::writeSeparator() {
 8082e48:	b508      	push	{r3, lr}
    switch (state_) {
 8082e4a:	7903      	ldrb	r3, [r0, #4]
 8082e4c:	2b01      	cmp	r3, #1
 8082e4e:	d002      	beq.n	8082e56 <_ZN5spark10JSONWriter14writeSeparatorEv+0xe>
 8082e50:	2b02      	cmp	r3, #2
 8082e52:	d004      	beq.n	8082e5e <_ZN5spark10JSONWriter14writeSeparatorEv+0x16>
        write(':');
        break;
    default:
        break;
    }
}
 8082e54:	bd08      	pop	{r3, pc}
        write(',');
 8082e56:	212c      	movs	r1, #44	; 0x2c
        write(':');
 8082e58:	f7ff ff23 	bl	8082ca2 <_ZN5spark10JSONWriter5writeEc>
}
 8082e5c:	e7fa      	b.n	8082e54 <_ZN5spark10JSONWriter14writeSeparatorEv+0xc>
        write(':');
 8082e5e:	213a      	movs	r1, #58	; 0x3a
 8082e60:	e7fa      	b.n	8082e58 <_ZN5spark10JSONWriter14writeSeparatorEv+0x10>

08082e62 <_ZN5spark10JSONWriter11beginObjectEv>:
spark::JSONWriter& spark::JSONWriter::beginObject() {
 8082e62:	b510      	push	{r4, lr}
 8082e64:	4604      	mov	r4, r0
    writeSeparator();
 8082e66:	f7ff ffef 	bl	8082e48 <_ZN5spark10JSONWriter14writeSeparatorEv>
    write('{');
 8082e6a:	4620      	mov	r0, r4
 8082e6c:	217b      	movs	r1, #123	; 0x7b
 8082e6e:	f7ff ff18 	bl	8082ca2 <_ZN5spark10JSONWriter5writeEc>
    state_ = BEGIN;
 8082e72:	2300      	movs	r3, #0
}
 8082e74:	4620      	mov	r0, r4
    state_ = BEGIN;
 8082e76:	7123      	strb	r3, [r4, #4]
}
 8082e78:	bd10      	pop	{r4, pc}
	...

08082e7c <_ZN5spark10JSONWriter5valueEi>:
spark::JSONWriter& spark::JSONWriter::value(int val) {
 8082e7c:	b538      	push	{r3, r4, r5, lr}
 8082e7e:	4604      	mov	r4, r0
 8082e80:	460d      	mov	r5, r1
    writeSeparator();
 8082e82:	f7ff ffe1 	bl	8082e48 <_ZN5spark10JSONWriter14writeSeparatorEv>
    printf("%d", val);
 8082e86:	6823      	ldr	r3, [r4, #0]
 8082e88:	4620      	mov	r0, r4
 8082e8a:	462a      	mov	r2, r5
 8082e8c:	68db      	ldr	r3, [r3, #12]
 8082e8e:	4903      	ldr	r1, [pc, #12]	; (8082e9c <_ZN5spark10JSONWriter5valueEi+0x20>)
 8082e90:	4798      	blx	r3
    state_ = NEXT;
 8082e92:	2301      	movs	r3, #1
}
 8082e94:	4620      	mov	r0, r4
    state_ = NEXT;
 8082e96:	7123      	strb	r3, [r4, #4]
}
 8082e98:	bd38      	pop	{r3, r4, r5, pc}
 8082e9a:	bf00      	nop
 8082e9c:	08086484 	.word	0x08086484

08082ea0 <_ZN5spark10JSONWriter5valueEj>:
spark::JSONWriter& spark::JSONWriter::value(unsigned val) {
 8082ea0:	b538      	push	{r3, r4, r5, lr}
 8082ea2:	4604      	mov	r4, r0
 8082ea4:	460d      	mov	r5, r1
    writeSeparator();
 8082ea6:	f7ff ffcf 	bl	8082e48 <_ZN5spark10JSONWriter14writeSeparatorEv>
    printf("%u", val);
 8082eaa:	6823      	ldr	r3, [r4, #0]
 8082eac:	4620      	mov	r0, r4
 8082eae:	462a      	mov	r2, r5
 8082eb0:	68db      	ldr	r3, [r3, #12]
 8082eb2:	4903      	ldr	r1, [pc, #12]	; (8082ec0 <_ZN5spark10JSONWriter5valueEj+0x20>)
 8082eb4:	4798      	blx	r3
    state_ = NEXT;
 8082eb6:	2301      	movs	r3, #1
}
 8082eb8:	4620      	mov	r0, r4
    state_ = NEXT;
 8082eba:	7123      	strb	r3, [r4, #4]
}
 8082ebc:	bd38      	pop	{r3, r4, r5, pc}
 8082ebe:	bf00      	nop
 8082ec0:	08086487 	.word	0x08086487

08082ec4 <_ZN5spark10JSONWriter12writeEscapedEPKcj>:

void spark::JSONWriter::writeEscaped(const char *str, size_t size) {
 8082ec4:	e92d 41f0 	stmdb	sp!, {r4, r5, r6, r7, r8, lr}
 8082ec8:	460d      	mov	r5, r1
 8082eca:	4617      	mov	r7, r2
    write('"');
 8082ecc:	2122      	movs	r1, #34	; 0x22
void spark::JSONWriter::writeEscaped(const char *str, size_t size) {
 8082ece:	4604      	mov	r4, r0
    write('"');
 8082ed0:	f7ff fee7 	bl	8082ca2 <_ZN5spark10JSONWriter5writeEc>
    const char* const end = str + size;
 8082ed4:	4629      	mov	r1, r5
            case 0x0d: // Carriage return
                write('r');
                break;
            default:
                // All other control characters are written in hex, e.g. "\u001f"
                printf("u%04x", (unsigned)c);
 8082ed6:	f8df 8098 	ldr.w	r8, [pc, #152]	; 8082f70 <_ZN5spark10JSONWriter12writeEscapedEPKcj+0xac>
    const char* const end = str + size;
 8082eda:	442f      	add	r7, r5
    while (s != end) {
 8082edc:	42bd      	cmp	r5, r7
 8082ede:	462a      	mov	r2, r5
 8082ee0:	d038      	beq.n	8082f54 <_ZN5spark10JSONWriter12writeEscapedEPKcj+0x90>
        const char c = *s;
 8082ee2:	f815 6b01 	ldrb.w	r6, [r5], #1
        if (c == '"' || c == '\\' || (c >= 0 && c <= 0x1f)) {
 8082ee6:	2e22      	cmp	r6, #34	; 0x22
 8082ee8:	d003      	beq.n	8082ef2 <_ZN5spark10JSONWriter12writeEscapedEPKcj+0x2e>
 8082eea:	2e5c      	cmp	r6, #92	; 0x5c
 8082eec:	d001      	beq.n	8082ef2 <_ZN5spark10JSONWriter12writeEscapedEPKcj+0x2e>
 8082eee:	2e1f      	cmp	r6, #31
 8082ef0:	d8f4      	bhi.n	8082edc <_ZN5spark10JSONWriter12writeEscapedEPKcj+0x18>
            write(str, s - str); // Write preceeding characters
 8082ef2:	6823      	ldr	r3, [r4, #0]
 8082ef4:	1a52      	subs	r2, r2, r1
 8082ef6:	4620      	mov	r0, r4
 8082ef8:	689b      	ldr	r3, [r3, #8]
 8082efa:	4798      	blx	r3
            write('\\');
 8082efc:	215c      	movs	r1, #92	; 0x5c
 8082efe:	4620      	mov	r0, r4
 8082f00:	f7ff fecf 	bl	8082ca2 <_ZN5spark10JSONWriter5writeEc>
            switch (c) {
 8082f04:	2e0d      	cmp	r6, #13
 8082f06:	d80a      	bhi.n	8082f1e <_ZN5spark10JSONWriter12writeEscapedEPKcj+0x5a>
 8082f08:	2e07      	cmp	r6, #7
 8082f0a:	d91c      	bls.n	8082f46 <_ZN5spark10JSONWriter12writeEscapedEPKcj+0x82>
 8082f0c:	f1a6 0308 	sub.w	r3, r6, #8
 8082f10:	2b05      	cmp	r3, #5
 8082f12:	d818      	bhi.n	8082f46 <_ZN5spark10JSONWriter12writeEscapedEPKcj+0x82>
 8082f14:	e8df f003 	tbb	[pc, r3]
 8082f18:	17110f0d 	.word	0x17110f0d
 8082f1c:	1513      	.short	0x1513
 8082f1e:	2e22      	cmp	r6, #34	; 0x22
 8082f20:	d001      	beq.n	8082f26 <_ZN5spark10JSONWriter12writeEscapedEPKcj+0x62>
 8082f22:	2e5c      	cmp	r6, #92	; 0x5c
 8082f24:	d10f      	bne.n	8082f46 <_ZN5spark10JSONWriter12writeEscapedEPKcj+0x82>
                write(c);
 8082f26:	4631      	mov	r1, r6
                write('b');
 8082f28:	4620      	mov	r0, r4
 8082f2a:	f7ff feba 	bl	8082ca2 <_ZN5spark10JSONWriter5writeEc>
                break;
            }
            str = s + 1;
 8082f2e:	4629      	mov	r1, r5
    while (s != end) {
 8082f30:	e7d4      	b.n	8082edc <_ZN5spark10JSONWriter12writeEscapedEPKcj+0x18>
                write('b');
 8082f32:	2162      	movs	r1, #98	; 0x62
 8082f34:	e7f8      	b.n	8082f28 <_ZN5spark10JSONWriter12writeEscapedEPKcj+0x64>
                write('t');
 8082f36:	2174      	movs	r1, #116	; 0x74
 8082f38:	e7f6      	b.n	8082f28 <_ZN5spark10JSONWriter12writeEscapedEPKcj+0x64>
                write('n');
 8082f3a:	216e      	movs	r1, #110	; 0x6e
 8082f3c:	e7f4      	b.n	8082f28 <_ZN5spark10JSONWriter12writeEscapedEPKcj+0x64>
                write('f');
 8082f3e:	2166      	movs	r1, #102	; 0x66
 8082f40:	e7f2      	b.n	8082f28 <_ZN5spark10JSONWriter12writeEscapedEPKcj+0x64>
                write('r');
 8082f42:	2172      	movs	r1, #114	; 0x72
 8082f44:	e7f0      	b.n	8082f28 <_ZN5spark10JSONWriter12writeEscapedEPKcj+0x64>
                printf("u%04x", (unsigned)c);
 8082f46:	6823      	ldr	r3, [r4, #0]
 8082f48:	4632      	mov	r2, r6
 8082f4a:	4641      	mov	r1, r8
 8082f4c:	4620      	mov	r0, r4
 8082f4e:	68db      	ldr	r3, [r3, #12]
 8082f50:	4798      	blx	r3
                break;
 8082f52:	e7ec      	b.n	8082f2e <_ZN5spark10JSONWriter12writeEscapedEPKcj+0x6a>
        }
        ++s;
    }
    if (s != str) {
 8082f54:	428d      	cmp	r5, r1
 8082f56:	d004      	beq.n	8082f62 <_ZN5spark10JSONWriter12writeEscapedEPKcj+0x9e>
        write(str, s - str); // Write remaining characters
 8082f58:	6823      	ldr	r3, [r4, #0]
 8082f5a:	4620      	mov	r0, r4
 8082f5c:	689b      	ldr	r3, [r3, #8]
 8082f5e:	1a6a      	subs	r2, r5, r1
 8082f60:	4798      	blx	r3
    }
    write('"');
 8082f62:	2122      	movs	r1, #34	; 0x22
 8082f64:	4620      	mov	r0, r4
 8082f66:	f7ff fe9c 	bl	8082ca2 <_ZN5spark10JSONWriter5writeEc>
}
 8082f6a:	e8bd 81f0 	ldmia.w	sp!, {r4, r5, r6, r7, r8, pc}
 8082f6e:	bf00      	nop
 8082f70:	0808648a 	.word	0x0808648a

08082f74 <_ZN5spark10JSONWriter4nameEPKcj>:
spark::JSONWriter& spark::JSONWriter::name(const char *name, size_t size) {
 8082f74:	b570      	push	{r4, r5, r6, lr}
 8082f76:	4604      	mov	r4, r0
 8082f78:	460d      	mov	r5, r1
 8082f7a:	4616      	mov	r6, r2
    writeSeparator();
 8082f7c:	f7ff ff64 	bl	8082e48 <_ZN5spark10JSONWriter14writeSeparatorEv>
    writeEscaped(name, size);
 8082f80:	4620      	mov	r0, r4
 8082f82:	4632      	mov	r2, r6
 8082f84:	4629      	mov	r1, r5
 8082f86:	f7ff ff9d 	bl	8082ec4 <_ZN5spark10JSONWriter12writeEscapedEPKcj>
    state_ = VALUE;
 8082f8a:	2302      	movs	r3, #2
}
 8082f8c:	4620      	mov	r0, r4
    state_ = VALUE;
 8082f8e:	7123      	strb	r3, [r4, #4]
}
 8082f90:	bd70      	pop	{r4, r5, r6, pc}

08082f92 <_ZN5spark10JSONWriter5valueEPKcj>:
spark::JSONWriter& spark::JSONWriter::value(const char *val, size_t size) {
 8082f92:	b570      	push	{r4, r5, r6, lr}
 8082f94:	4604      	mov	r4, r0
 8082f96:	460d      	mov	r5, r1
 8082f98:	4616      	mov	r6, r2
    writeSeparator();
 8082f9a:	f7ff ff55 	bl	8082e48 <_ZN5spark10JSONWriter14writeSeparatorEv>
    writeEscaped(val, size);
 8082f9e:	4620      	mov	r0, r4
 8082fa0:	4632      	mov	r2, r6
 8082fa2:	4629      	mov	r1, r5
 8082fa4:	f7ff ff8e 	bl	8082ec4 <_ZN5spark10JSONWriter12writeEscapedEPKcj>
    state_ = NEXT;
 8082fa8:	2301      	movs	r3, #1
}
 8082faa:	4620      	mov	r0, r4
    state_ = NEXT;
 8082fac:	7123      	strb	r3, [r4, #4]
}
 8082fae:	bd70      	pop	{r4, r5, r6, pc}

08082fb0 <_ZN5spark16JSONStreamWriter5writeEPKcj>:
inline Print* spark::JSONStreamWriter::stream() const {
    return &strm_;
}

inline void spark::JSONStreamWriter::write(const char *data, size_t size) {
    strm_.write((const uint8_t*)data, size);
 8082fb0:	6880      	ldr	r0, [r0, #8]
 8082fb2:	6803      	ldr	r3, [r0, #0]
 8082fb4:	68db      	ldr	r3, [r3, #12]
 8082fb6:	4718      	bx	r3

08082fb8 <_ZN5spark20JSONStreamLogHandler5writeEPKcj>:
}

// spark::JSONStreamLogHandler
inline void spark::JSONStreamLogHandler::write(const char *data, size_t size) {
    // This handler doesn't support direct logging
}
 8082fb8:	4770      	bx	lr

08082fba <_ZN5spark17LogHandlerFactory14destroyHandlerEPNS_10LogHandlerE>:

#if Wiring_LogConfig

// spark::LogHandlerFactory
inline void spark::LogHandlerFactory::destroyHandler(LogHandler *handler) {
    delete handler;
 8082fba:	4608      	mov	r0, r1
 8082fbc:	b111      	cbz	r1, 8082fc4 <_ZN5spark17LogHandlerFactory14destroyHandlerEPNS_10LogHandlerE+0xa>
 8082fbe:	680b      	ldr	r3, [r1, #0]
 8082fc0:	685b      	ldr	r3, [r3, #4]
 8082fc2:	4718      	bx	r3
}
 8082fc4:	4770      	bx	lr

08082fc6 <__tcf_0>:
    }
    return nullptr; // Unknown handler type
}

spark::DefaultLogHandlerFactory* spark::DefaultLogHandlerFactory::instance() {
    static DefaultLogHandlerFactory factory;
 8082fc6:	4770      	bx	lr

08082fc8 <_ZN5spark26DefaultOutputStreamFactoryD1Ev>:
class DefaultOutputStreamFactory: public OutputStreamFactory {
 8082fc8:	4770      	bx	lr

08082fca <_ZN5spark24DefaultLogHandlerFactoryD1Ev>:
class DefaultLogHandlerFactory: public LogHandlerFactory {
 8082fca:	4770      	bx	lr

08082fcc <_ZN5spark16JSONStreamWriterD1Ev>:
class JSONStreamWriter: public JSONWriter {
 8082fcc:	4770      	bx	lr

08082fce <_ZN12_GLOBAL__N_119nextSubcategoryNameERPKcRj>:
const char* nextSubcategoryName(const char* &category, size_t &size) {
 8082fce:	b538      	push	{r3, r4, r5, lr}
 8082fd0:	4604      	mov	r4, r0
 8082fd2:	460d      	mov	r5, r1
    const char *s = strchrnul(category, '.');
 8082fd4:	6800      	ldr	r0, [r0, #0]
 8082fd6:	212e      	movs	r1, #46	; 0x2e
 8082fd8:	f002 fe6c 	bl	8085cb4 <strchrnul>
    size = s - category;
 8082fdc:	6823      	ldr	r3, [r4, #0]
    const char *s = strchrnul(category, '.');
 8082fde:	4602      	mov	r2, r0
    size = s - category;
 8082fe0:	1ac0      	subs	r0, r0, r3
 8082fe2:	6028      	str	r0, [r5, #0]
    if (size) {
 8082fe4:	b120      	cbz	r0, 8082ff0 <_ZN12_GLOBAL__N_119nextSubcategoryNameERPKcRj+0x22>
        if (*s) {
 8082fe6:	7813      	ldrb	r3, [r2, #0]
 8082fe8:	b103      	cbz	r3, 8082fec <_ZN12_GLOBAL__N_119nextSubcategoryNameERPKcRj+0x1e>
            ++s;
 8082fea:	3201      	adds	r2, #1
 8082fec:	6820      	ldr	r0, [r4, #0]
      __b = _GLIBCXX_MOVE(__tmp);
 8082fee:	6022      	str	r2, [r4, #0]
}
 8082ff0:	bd38      	pop	{r3, r4, r5, pc}

08082ff2 <_ZN5spark16JSONStreamWriterD0Ev>:
 8082ff2:	b510      	push	{r4, lr}
 8082ff4:	4604      	mov	r4, r0
 8082ff6:	210c      	movs	r1, #12
 8082ff8:	f001 fe16 	bl	8084c28 <_ZdlPvj>
 8082ffc:	4620      	mov	r0, r4
 8082ffe:	bd10      	pop	{r4, pc}

08083000 <_ZN5spark24DefaultLogHandlerFactoryD0Ev>:
 8083000:	b510      	push	{r4, lr}
 8083002:	4604      	mov	r4, r0
 8083004:	2104      	movs	r1, #4
 8083006:	f001 fe0f 	bl	8084c28 <_ZdlPvj>
 808300a:	4620      	mov	r0, r4
 808300c:	bd10      	pop	{r4, pc}

0808300e <_ZN5spark26DefaultOutputStreamFactoryD0Ev>:
class DefaultOutputStreamFactory: public OutputStreamFactory {
 808300e:	b510      	push	{r4, lr}
 8083010:	4604      	mov	r4, r0
 8083012:	2104      	movs	r1, #4
 8083014:	f001 fe08 	bl	8084c28 <_ZdlPvj>
 8083018:	4620      	mov	r0, r4
 808301a:	bd10      	pop	{r4, pc}

0808301c <_ZNK5spark10JSONStringeqEPKc.isra.0>:
inline bool spark::JSONString::operator==(const char *str) const {
 808301c:	b508      	push	{r3, lr}
    return strcmp(s_, str) == 0;
 808301e:	f002 fe53 	bl	8085cc8 <strcmp>
}
 8083022:	fab0 f080 	clz	r0, r0
 8083026:	0940      	lsrs	r0, r0, #5
 8083028:	bd08      	pop	{r3, pc}

0808302a <__tcf_1>:
 808302a:	4770      	bx	lr

0808302c <_ZN5spark26DefaultOutputStreamFactory13destroyStreamEP5Print>:
    }
#endif // PLATFORM_ID != 3
    return nullptr;
}

void spark::DefaultOutputStreamFactory::destroyStream(Print *stream) {
 808302c:	b510      	push	{r4, lr}
 808302e:	460c      	mov	r4, r1
#if PLATFORM_ID != 3
    if (stream == &Serial) {
 8083030:	f001 fbd8 	bl	80847e4 <_Z16_fetch_usbserialv>
 8083034:	4284      	cmp	r4, r0
 8083036:	d105      	bne.n	8083044 <_ZN5spark26DefaultOutputStreamFactory13destroyStreamEP5Print+0x18>
        // FIXME: Uninitializing Serial detaches a Gen 3 device from the host
#if !HAL_PLATFORM_NRF52840
        Serial.end();
 8083038:	f001 fbd4 	bl	80847e4 <_Z16_fetch_usbserialv>
        Serial1.end();
        return;
    }
#endif // PLATFORM_ID != 3
    OutputStreamFactory::destroyStream(stream);
}
 808303c:	e8bd 4010 	ldmia.w	sp!, {r4, lr}
        USBSerial1.end();
 8083040:	f001 bbb6 	b.w	80847b0 <_ZN9USBSerial3endEv>
    if (stream == &USBSerial1) {
 8083044:	f001 fc08 	bl	8084858 <_Z17_fetch_usbserial1v>
 8083048:	4284      	cmp	r4, r0
 808304a:	d102      	bne.n	8083052 <_ZN5spark26DefaultOutputStreamFactory13destroyStreamEP5Print+0x26>
        USBSerial1.end();
 808304c:	f001 fc04 	bl	8084858 <_Z17_fetch_usbserial1v>
 8083050:	e7f4      	b.n	808303c <_ZN5spark26DefaultOutputStreamFactory13destroyStreamEP5Print+0x10>
    if (stream == &Serial1) {
 8083052:	f001 fb33 	bl	80846bc <_Z22__fetch_global_Serial1v>
 8083056:	4284      	cmp	r4, r0
 8083058:	d105      	bne.n	8083066 <_ZN5spark26DefaultOutputStreamFactory13destroyStreamEP5Print+0x3a>
        Serial1.end();
 808305a:	f001 fb2f 	bl	80846bc <_Z22__fetch_global_Serial1v>
}
 808305e:	e8bd 4010 	ldmia.w	sp!, {r4, lr}
        Serial1.end();
 8083062:	f001 bb28 	b.w	80846b6 <_ZN11USARTSerial3endEv>

// spark::OutputStreamFactory
inline void spark::OutputStreamFactory::destroyStream(Print *stream) {
    delete stream;
 8083066:	b12c      	cbz	r4, 8083074 <_ZN5spark26DefaultOutputStreamFactory13destroyStreamEP5Print+0x48>
 8083068:	6823      	ldr	r3, [r4, #0]
 808306a:	4620      	mov	r0, r4
}
 808306c:	e8bd 4010 	ldmia.w	sp!, {r4, lr}
 8083070:	685b      	ldr	r3, [r3, #4]
 8083072:	4718      	bx	r3
 8083074:	bd10      	pop	{r4, pc}

08083076 <_ZN5spark10JSONWriter5valueEPKc>:
inline spark::JSONWriter& spark::JSONWriter::value(const char *val) {
 8083076:	b538      	push	{r3, r4, r5, lr}
 8083078:	4605      	mov	r5, r0
    return value(val, strlen(val));
 808307a:	4608      	mov	r0, r1
inline spark::JSONWriter& spark::JSONWriter::value(const char *val) {
 808307c:	460c      	mov	r4, r1
    return value(val, strlen(val));
 808307e:	f002 fe50 	bl	8085d22 <strlen>
 8083082:	4621      	mov	r1, r4
 8083084:	4602      	mov	r2, r0
 8083086:	4628      	mov	r0, r5
}
 8083088:	e8bd 4038 	ldmia.w	sp!, {r3, r4, r5, lr}
    return value(val, strlen(val));
 808308c:	f7ff bf81 	b.w	8082f92 <_ZN5spark10JSONWriter5valueEPKcj>

08083090 <_ZN5spark16StreamLogHandler5writeEPKc>:
inline void spark::StreamLogHandler::write(const char *str) {
 8083090:	b570      	push	{r4, r5, r6, lr}
 8083092:	4604      	mov	r4, r0
    write(str, strlen(str));
 8083094:	4608      	mov	r0, r1
inline void spark::StreamLogHandler::write(const char *str) {
 8083096:	460d      	mov	r5, r1
    write(str, strlen(str));
 8083098:	f002 fe43 	bl	8085d22 <strlen>
 808309c:	6823      	ldr	r3, [r4, #0]
 808309e:	4602      	mov	r2, r0
 80830a0:	4629      	mov	r1, r5
 80830a2:	4620      	mov	r0, r4
}
 80830a4:	e8bd 4070 	ldmia.w	sp!, {r4, r5, r6, lr}
    write(str, strlen(str));
 80830a8:	68db      	ldr	r3, [r3, #12]
 80830aa:	4718      	bx	r3

080830ac <_ZN5spark16StreamLogHandler5writeEc>:
inline void spark::StreamLogHandler::write(char c) {
 80830ac:	b507      	push	{r0, r1, r2, lr}
    write(&c, 1);
 80830ae:	6803      	ldr	r3, [r0, #0]
inline void spark::StreamLogHandler::write(char c) {
 80830b0:	f88d 1007 	strb.w	r1, [sp, #7]
    write(&c, 1);
 80830b4:	2201      	movs	r2, #1
 80830b6:	68db      	ldr	r3, [r3, #12]
 80830b8:	f10d 0107 	add.w	r1, sp, #7
 80830bc:	4798      	blx	r3
}
 80830be:	b003      	add	sp, #12
 80830c0:	f85d fb04 	ldr.w	pc, [sp], #4

080830c4 <_ZN5spark16StreamLogHandler6printfEPKcz>:
inline void spark::StreamLogHandler::printf(const char *fmt, ...) {
 80830c4:	b40e      	push	{r1, r2, r3}
 80830c6:	b503      	push	{r0, r1, lr}
 80830c8:	ab03      	add	r3, sp, #12
 80830ca:	f853 2b04 	ldr.w	r2, [r3], #4
    stream_->vprintf(false, fmt, args);
 80830ce:	2100      	movs	r1, #0
 80830d0:	6a00      	ldr	r0, [r0, #32]
    va_start(args, fmt);
 80830d2:	9301      	str	r3, [sp, #4]
    stream_->vprintf(false, fmt, args);
 80830d4:	f001 f813 	bl	80840fe <_ZN5Print7vprintfEbPKcSt9__va_list>
}
 80830d8:	b002      	add	sp, #8
 80830da:	f85d eb04 	ldr.w	lr, [sp], #4
 80830de:	b003      	add	sp, #12
 80830e0:	4770      	bx	lr
	...

080830e4 <_ZN5spark6detail9LogFilter9nodeIndexERKNS_6VectorINS1_4NodeENS_16DefaultAllocatorEEEPKcjRb>:
int spark::detail::LogFilter::nodeIndex(const Vector<Node> &nodes, const char *name, size_t size, bool &found) {
 80830e4:	e92d 4ff7 	stmdb	sp!, {r0, r1, r2, r4, r5, r6, r7, r8, r9, sl, fp, lr}
    return data_ + size_;
}

template<typename T, typename AllocatorT>
const T* spark::Vector<T, AllocatorT>::end() const {
    return data_ + size_;
 80830e8:	f04f 0814 	mov.w	r8, #20
 80830ec:	e9d0 9500 	ldrd	r9, r5, [r0]
 80830f0:	4617      	mov	r7, r2
               random_access_iterator_tag)
    {
      // concept requirements
      __glibcxx_function_requires(_RandomAccessIteratorConcept<
				  _RandomAccessIterator>)
      return __last - __first;
 80830f2:	464c      	mov	r4, r9
 80830f4:	fb08 f505 	mul.w	r5, r8, r5
 80830f8:	9300      	str	r3, [sp, #0]
 80830fa:	10ab      	asrs	r3, r5, #2
 80830fc:	4d17      	ldr	r5, [pc, #92]	; (808315c <_ZN5spark6detail9LogFilter9nodeIndexERKNS_6VectorINS1_4NodeENS_16DefaultAllocatorEEEPKcjRb+0x78>)
 80830fe:	435d      	muls	r5, r3
      typedef typename iterator_traits<_ForwardIterator>::difference_type
	_DistanceType;

      _DistanceType __len = std::distance(__first, __last);

      while (__len > 0)
 8083100:	2d00      	cmp	r5, #0
 8083102:	dd23      	ble.n	808314c <_ZN5spark6detail9LogFilter9nodeIndexERKNS_6VectorINS1_4NodeENS_16DefaultAllocatorEEEPKcjRb+0x68>
	{
	  _DistanceType __half = __len >> 1;
 8083104:	106e      	asrs	r6, r5, #1
      if (__builtin_constant_p(__n) && __n == 1)
	++__i;
      else if (__builtin_constant_p(__n) && __n == -1)
	--__i;
      else
	__i += __n;
 8083106:	fb08 f006 	mul.w	r0, r8, r6
 808310a:	eb04 0a00 	add.w	sl, r4, r0
                const int cmp = strncmp(node.name, value.first, std::min<size_t>(node.size, value.second));
 808310e:	f8ba b004 	ldrh.w	fp, [sl, #4]
 8083112:	463a      	mov	r2, r7
 8083114:	455f      	cmp	r7, fp
 8083116:	bf28      	it	cs
 8083118:	465a      	movcs	r2, fp
 808311a:	5820      	ldr	r0, [r4, r0]
 808311c:	9101      	str	r1, [sp, #4]
 808311e:	f002 fe08 	bl	8085d32 <strncmp>
                if (cmp == 0) {
 8083122:	2301      	movs	r3, #1
 8083124:	9901      	ldr	r1, [sp, #4]
 8083126:	b978      	cbnz	r0, 8083148 <_ZN5spark6detail9LogFilter9nodeIndexERKNS_6VectorINS1_4NodeENS_16DefaultAllocatorEEEPKcjRb+0x64>
                    if (node.size == value.second) { // Lengths are equal
 8083128:	455f      	cmp	r7, fp
 808312a:	d103      	bne.n	8083134 <_ZN5spark6detail9LogFilter9nodeIndexERKNS_6VectorINS1_4NodeENS_16DefaultAllocatorEEEPKcjRb+0x50>
                        found = true; // Allows caller code to avoid extra call to strncmp()
 808312c:	9a00      	ldr	r2, [sp, #0]
 808312e:	7013      	strb	r3, [r2, #0]
int spark::detail::LogFilter::nodeIndex(const Vector<Node> &nodes, const char *name, size_t size, bool &found) {
 8083130:	4635      	mov	r5, r6
 8083132:	e7e5      	b.n	8083100 <_ZN5spark6detail9LogFilter9nodeIndexERKNS_6VectorINS1_4NodeENS_16DefaultAllocatorEEEPKcjRb+0x1c>
                    return node.size < value.second;
 8083134:	bf8c      	ite	hi
 8083136:	2001      	movhi	r0, #1
 8083138:	2000      	movls	r0, #0
	  _ForwardIterator __middle = __first;
	  std::advance(__middle, __half);
	  if (__comp(__middle, __val))
 808313a:	2800      	cmp	r0, #0
 808313c:	d0f8      	beq.n	8083130 <_ZN5spark6detail9LogFilter9nodeIndexERKNS_6VectorINS1_4NodeENS_16DefaultAllocatorEEEPKcjRb+0x4c>
	    {
	      __first = __middle;
	      ++__first;
	      __len = __len - __half - 1;
 808313e:	1bae      	subs	r6, r5, r6
	      ++__first;
 8083140:	f10a 0414 	add.w	r4, sl, #20
	      __len = __len - __half - 1;
 8083144:	3e01      	subs	r6, #1
 8083146:	e7f3      	b.n	8083130 <_ZN5spark6detail9LogFilter9nodeIndexERKNS_6VectorINS1_4NodeENS_16DefaultAllocatorEEEPKcjRb+0x4c>
                return cmp < 0;
 8083148:	0fc0      	lsrs	r0, r0, #31
 808314a:	e7f6      	b.n	808313a <_ZN5spark6detail9LogFilter9nodeIndexERKNS_6VectorINS1_4NodeENS_16DefaultAllocatorEEEPKcjRb+0x56>
      return __last - __first;
 808314c:	eba4 0409 	sub.w	r4, r4, r9
}
 8083150:	4802      	ldr	r0, [pc, #8]	; (808315c <_ZN5spark6detail9LogFilter9nodeIndexERKNS_6VectorINS1_4NodeENS_16DefaultAllocatorEEEPKcjRb+0x78>)
 8083152:	10a4      	asrs	r4, r4, #2
 8083154:	4360      	muls	r0, r4
 8083156:	b003      	add	sp, #12
 8083158:	e8bd 8ff0 	ldmia.w	sp!, {r4, r5, r6, r7, r8, r9, sl, fp, pc}
 808315c:	cccccccd 	.word	0xcccccccd

08083160 <_ZNK5spark6detail9LogFilter5levelEPKc>:
LogLevel spark::detail::LogFilter::level(const char *category) const {
 8083160:	b57f      	push	{r0, r1, r2, r3, r4, r5, r6, lr}
    if (!nodes_.isEmpty() && category) {
 8083162:	6903      	ldr	r3, [r0, #16]
    LogLevel level = level_; // Default level
 8083164:	7e06      	ldrb	r6, [r0, #24]
LogLevel spark::detail::LogFilter::level(const char *category) const {
 8083166:	9101      	str	r1, [sp, #4]
    if (!nodes_.isEmpty() && category) {
 8083168:	b303      	cbz	r3, 80831ac <_ZNK5spark6detail9LogFilter5levelEPKc+0x4c>
 808316a:	b1f9      	cbz	r1, 80831ac <_ZNK5spark6detail9LogFilter5levelEPKc+0x4c>
        size_t size = 0; // Name length
 808316c:	2500      	movs	r5, #0
        const Vector<Node> *pNodes = &nodes_; // Root nodes
 808316e:	f100 040c 	add.w	r4, r0, #12
        size_t size = 0; // Name length
 8083172:	9503      	str	r5, [sp, #12]
        while ((name = nextSubcategoryName(category, size))) {
 8083174:	a903      	add	r1, sp, #12
 8083176:	a801      	add	r0, sp, #4
 8083178:	f7ff ff29 	bl	8082fce <_ZN12_GLOBAL__N_119nextSubcategoryNameERPKcRj>
 808317c:	4601      	mov	r1, r0
 808317e:	b1a8      	cbz	r0, 80831ac <_ZNK5spark6detail9LogFilter5levelEPKc+0x4c>
            const int index = nodeIndex(*pNodes, name, size, found);
 8083180:	f10d 030b 	add.w	r3, sp, #11
 8083184:	4620      	mov	r0, r4
 8083186:	9a03      	ldr	r2, [sp, #12]
            bool found = false;
 8083188:	f88d 500b 	strb.w	r5, [sp, #11]
            const int index = nodeIndex(*pNodes, name, size, found);
 808318c:	f7ff ffaa 	bl	80830e4 <_ZN5spark6detail9LogFilter9nodeIndexERKNS_6VectorINS1_4NodeENS_16DefaultAllocatorEEEPKcjRb>
            if (!found) {
 8083190:	f89d 300b 	ldrb.w	r3, [sp, #11]
 8083194:	b153      	cbz	r3, 80831ac <_ZNK5spark6detail9LogFilter5levelEPKc+0x4c>
    return data_[i];
 8083196:	2314      	movs	r3, #20
 8083198:	6824      	ldr	r4, [r4, #0]
 808319a:	fb03 4400 	mla	r4, r3, r0, r4
            if (node.level >= 0) {
 808319e:	f9b4 3006 	ldrsh.w	r3, [r4, #6]
            pNodes = &node.nodes;
 80831a2:	3408      	adds	r4, #8
            if (node.level >= 0) {
 80831a4:	2b00      	cmp	r3, #0
                level = (LogLevel)node.level;
 80831a6:	bfa8      	it	ge
 80831a8:	b2de      	uxtbge	r6, r3
        while ((name = nextSubcategoryName(category, size))) {
 80831aa:	e7e3      	b.n	8083174 <_ZNK5spark6detail9LogFilter5levelEPKc+0x14>
}
 80831ac:	4630      	mov	r0, r6
 80831ae:	b004      	add	sp, #16
 80831b0:	bd70      	pop	{r4, r5, r6, pc}
	...

080831b4 <_ZN5spark24DefaultLogHandlerFactory8instanceEv>:
spark::DefaultLogHandlerFactory* spark::DefaultLogHandlerFactory::instance() {
 80831b4:	b510      	push	{r4, lr}
    static DefaultLogHandlerFactory factory;
 80831b6:	4c09      	ldr	r4, [pc, #36]	; (80831dc <_ZN5spark24DefaultLogHandlerFactory8instanceEv+0x28>)
 80831b8:	7823      	ldrb	r3, [r4, #0]
 80831ba:	f3bf 8f5b 	dmb	ish
 80831be:	07db      	lsls	r3, r3, #31
 80831c0:	d409      	bmi.n	80831d6 <_ZN5spark24DefaultLogHandlerFactory8instanceEv+0x22>
 80831c2:	4620      	mov	r0, r4
 80831c4:	f7fc ff82 	bl	80800cc <__cxa_guard_acquire>
 80831c8:	b128      	cbz	r0, 80831d6 <_ZN5spark24DefaultLogHandlerFactory8instanceEv+0x22>
 80831ca:	4620      	mov	r0, r4
 80831cc:	f7fc ff83 	bl	80800d6 <__cxa_guard_release>
 80831d0:	4803      	ldr	r0, [pc, #12]	; (80831e0 <_ZN5spark24DefaultLogHandlerFactory8instanceEv+0x2c>)
 80831d2:	f002 fced 	bl	8085bb0 <atexit>
}
 80831d6:	4803      	ldr	r0, [pc, #12]	; (80831e4 <_ZN5spark24DefaultLogHandlerFactory8instanceEv+0x30>)
 80831d8:	bd10      	pop	{r4, pc}
 80831da:	bf00      	nop
 80831dc:	200001d0 	.word	0x200001d0
 80831e0:	08082fc7 	.word	0x08082fc7
 80831e4:	2000008c 	.word	0x2000008c

080831e8 <_ZN5spark26DefaultOutputStreamFactory8instanceEv>:

spark::DefaultOutputStreamFactory* spark::DefaultOutputStreamFactory::instance() {
 80831e8:	b510      	push	{r4, lr}
    static DefaultOutputStreamFactory factory;
 80831ea:	4c09      	ldr	r4, [pc, #36]	; (8083210 <_ZN5spark26DefaultOutputStreamFactory8instanceEv+0x28>)
 80831ec:	7823      	ldrb	r3, [r4, #0]
 80831ee:	f3bf 8f5b 	dmb	ish
 80831f2:	07db      	lsls	r3, r3, #31
 80831f4:	d409      	bmi.n	808320a <_ZN5spark26DefaultOutputStreamFactory8instanceEv+0x22>
 80831f6:	4620      	mov	r0, r4
 80831f8:	f7fc ff68 	bl	80800cc <__cxa_guard_acquire>
 80831fc:	b128      	cbz	r0, 808320a <_ZN5spark26DefaultOutputStreamFactory8instanceEv+0x22>
 80831fe:	4620      	mov	r0, r4
 8083200:	f7fc ff69 	bl	80800d6 <__cxa_guard_release>
 8083204:	4803      	ldr	r0, [pc, #12]	; (8083214 <_ZN5spark26DefaultOutputStreamFactory8instanceEv+0x2c>)
 8083206:	f002 fcd3 	bl	8085bb0 <atexit>
    return &factory;
}
 808320a:	4803      	ldr	r0, [pc, #12]	; (8083218 <_ZN5spark26DefaultOutputStreamFactory8instanceEv+0x30>)
 808320c:	bd10      	pop	{r4, pc}
 808320e:	bf00      	nop
 8083210:	200001d4 	.word	0x200001d4
 8083214:	0808302b 	.word	0x0808302b
 8083218:	20000090 	.word	0x20000090

0808321c <_ZN5spark10LogManagerC1Ev>:
    Print *stream;
};

#endif // Wiring_LogConfig

spark::LogManager::LogManager() {
 808321c:	b538      	push	{r3, r4, r5, lr}
        capacity_(0) {
 808321e:	2500      	movs	r5, #0
 8083220:	4604      	mov	r4, r0
 8083222:	e9c0 5500 	strd	r5, r5, [r0]
 8083226:	e9c0 5504 	strd	r5, r5, [r0, #16]
 808322a:	6085      	str	r5, [r0, #8]
 808322c:	6185      	str	r5, [r0, #24]
    /**
     * Creates a shared mutex.
     */
    RecursiveMutex(os_mutex_recursive_t handle) : handle_(handle) {}

    RecursiveMutex() : handle_(nullptr)
 808322e:	f840 5f24 	str.w	r5, [r0, #36]!
    {
        os_mutex_recursive_create(&handle_);
 8083232:	f7fe fb95 	bl	8081960 <os_mutex_recursive_create>
#if Wiring_LogConfig
    handlerFactory_ = DefaultLogHandlerFactory::instance();
 8083236:	f7ff ffbd 	bl	80831b4 <_ZN5spark24DefaultLogHandlerFactory8instanceEv>
 808323a:	61e0      	str	r0, [r4, #28]
    streamFactory_ = DefaultOutputStreamFactory::instance();
 808323c:	f7ff ffd4 	bl	80831e8 <_ZN5spark26DefaultOutputStreamFactory8instanceEv>
#endif
    outputActive_ = false;
 8083240:	7325      	strb	r5, [r4, #12]
    streamFactory_ = DefaultOutputStreamFactory::instance();
 8083242:	6220      	str	r0, [r4, #32]
}
 8083244:	4620      	mov	r0, r4
 8083246:	bd38      	pop	{r3, r4, r5, pc}

08083248 <_ZN5spark10LogManager8instanceEv>:
            resetSystemCallbacks();
        }
    }
}

spark::LogManager* spark::LogManager::instance() {
 8083248:	b510      	push	{r4, lr}
    static LogManager mgr;
 808324a:	4c0a      	ldr	r4, [pc, #40]	; (8083274 <_ZN5spark10LogManager8instanceEv+0x2c>)
 808324c:	7823      	ldrb	r3, [r4, #0]
 808324e:	f3bf 8f5b 	dmb	ish
 8083252:	07db      	lsls	r3, r3, #31
 8083254:	d40c      	bmi.n	8083270 <_ZN5spark10LogManager8instanceEv+0x28>
 8083256:	4620      	mov	r0, r4
 8083258:	f7fc ff38 	bl	80800cc <__cxa_guard_acquire>
 808325c:	b140      	cbz	r0, 8083270 <_ZN5spark10LogManager8instanceEv+0x28>
 808325e:	4806      	ldr	r0, [pc, #24]	; (8083278 <_ZN5spark10LogManager8instanceEv+0x30>)
 8083260:	f7ff ffdc 	bl	808321c <_ZN5spark10LogManagerC1Ev>
 8083264:	4620      	mov	r0, r4
 8083266:	f7fc ff36 	bl	80800d6 <__cxa_guard_release>
 808326a:	4804      	ldr	r0, [pc, #16]	; (808327c <_ZN5spark10LogManager8instanceEv+0x34>)
 808326c:	f002 fca0 	bl	8085bb0 <atexit>
    return &mgr;
}
 8083270:	4801      	ldr	r0, [pc, #4]	; (8083278 <_ZN5spark10LogManager8instanceEv+0x30>)
 8083272:	bd10      	pop	{r4, pc}
 8083274:	200001cc 	.word	0x200001cc
 8083278:	200001dc 	.word	0x200001dc
 808327c:	08083745 	.word	0x08083745

08083280 <_ZN5spark10LogManager18setSystemCallbacksEv>:
}

#endif // Wiring_LogConfig

void spark::LogManager::setSystemCallbacks() {
    log_set_callbacks(logMessage, logWrite, logEnabled, nullptr);
 8083280:	2300      	movs	r3, #0
 8083282:	4a02      	ldr	r2, [pc, #8]	; (808328c <_ZN5spark10LogManager18setSystemCallbacksEv+0xc>)
 8083284:	4902      	ldr	r1, [pc, #8]	; (8083290 <_ZN5spark10LogManager18setSystemCallbacksEv+0x10>)
 8083286:	4803      	ldr	r0, [pc, #12]	; (8083294 <_ZN5spark10LogManager18setSystemCallbacksEv+0x14>)
 8083288:	f7fe bd2a 	b.w	8081ce0 <log_set_callbacks>
 808328c:	080835d1 	.word	0x080835d1
 8083290:	0808355d 	.word	0x0808355d
 8083294:	080834dd 	.word	0x080834dd

08083298 <_ZN5spark10LogManager20resetSystemCallbacksEv>:
}

void spark::LogManager::resetSystemCallbacks() {
    log_set_callbacks(nullptr, nullptr, nullptr, nullptr);
 8083298:	2300      	movs	r3, #0
 808329a:	461a      	mov	r2, r3
 808329c:	4619      	mov	r1, r3
 808329e:	4618      	mov	r0, r3
 80832a0:	f7fe bd1e 	b.w	8081ce0 <log_set_callbacks>

080832a4 <_ZNK5spark18JSONObjectIterator5valueEv>:
inline spark::JSONValue spark::JSONObjectIterator::value() const {
 80832a4:	b537      	push	{r0, r1, r2, r4, r5, lr}
 80832a6:	4604      	mov	r4, r0
    return JSONValue(v_, d_);
 80832a8:	690d      	ldr	r5, [r1, #16]
      __shared_ptr(const __shared_ptr&) noexcept = default;
 80832aa:	f851 3b04 	ldr.w	r3, [r1], #4
 80832ae:	a801      	add	r0, sp, #4
 80832b0:	9300      	str	r3, [sp, #0]
 80832b2:	f7ff f87d 	bl	80823b0 <_ZNSt14__shared_countILN9__gnu_cxx12_Lock_policyE0EEC1ERKS2_>
 80832b6:	466a      	mov	r2, sp
 80832b8:	4629      	mov	r1, r5
 80832ba:	4620      	mov	r0, r4
 80832bc:	f7ff fd14 	bl	8082ce8 <_ZN5spark9JSONValueC1EPK9jsmntok_tSt10shared_ptrINS_6detail8JSONDataEE>
      ~__shared_ptr() = default;
 80832c0:	a801      	add	r0, sp, #4
 80832c2:	f7fd fa7b 	bl	80807bc <_ZNSt14__shared_countILN9__gnu_cxx12_Lock_policyE0EED1Ev>
}
 80832c6:	4620      	mov	r0, r4
 80832c8:	b003      	add	sp, #12
 80832ca:	bd30      	pop	{r4, r5, pc}

080832cc <_ZN5spark18JSONObjectIteratorC1ERKNS_9JSONValueE>:
inline spark::JSONObjectIterator::JSONObjectIterator(const JSONValue &value) :
 80832cc:	b537      	push	{r0, r1, r2, r4, r5, lr}
 80832ce:	4604      	mov	r4, r0
        JSONObjectIterator(value.t_, value.d_) {
 80832d0:	688d      	ldr	r5, [r1, #8]
      __shared_ptr(const __shared_ptr&) noexcept = default;
 80832d2:	f851 3b04 	ldr.w	r3, [r1], #4
 80832d6:	a801      	add	r0, sp, #4
 80832d8:	9300      	str	r3, [sp, #0]
 80832da:	f7ff f869 	bl	80823b0 <_ZNSt14__shared_countILN9__gnu_cxx12_Lock_policyE0EEC1ERKS2_>
 80832de:	466a      	mov	r2, sp
 80832e0:	4629      	mov	r1, r5
 80832e2:	4620      	mov	r0, r4
 80832e4:	f7ff fd7c 	bl	8082de0 <_ZN5spark18JSONObjectIteratorC1EPK9jsmntok_tSt10shared_ptrINS_6detail8JSONDataEE>
      ~__shared_ptr() = default;
 80832e8:	a801      	add	r0, sp, #4
 80832ea:	f7fd fa67 	bl	80807bc <_ZNSt14__shared_countILN9__gnu_cxx12_Lock_policyE0EED1Ev>
}
 80832ee:	4620      	mov	r0, r4
 80832f0:	b003      	add	sp, #12
 80832f2:	bd30      	pop	{r4, r5, pc}

080832f4 <_ZNK5spark18JSONObjectIterator4nameEv>:
inline spark::JSONString spark::JSONObjectIterator::name() const {
 80832f4:	b537      	push	{r0, r1, r2, r4, r5, lr}
 80832f6:	4604      	mov	r4, r0
    return JSONString(k_, d_);
 80832f8:	68cd      	ldr	r5, [r1, #12]
      __shared_ptr(const __shared_ptr&) noexcept = default;
 80832fa:	f851 3b04 	ldr.w	r3, [r1], #4
 80832fe:	a801      	add	r0, sp, #4
 8083300:	9300      	str	r3, [sp, #0]
 8083302:	f7ff f855 	bl	80823b0 <_ZNSt14__shared_countILN9__gnu_cxx12_Lock_policyE0EEC1ERKS2_>
 8083306:	466a      	mov	r2, sp
 8083308:	4629      	mov	r1, r5
 808330a:	4620      	mov	r0, r4
 808330c:	f7ff fd44 	bl	8082d98 <_ZN5spark10JSONStringC1EPK9jsmntok_tSt10shared_ptrINS_6detail8JSONDataEE>
      ~__shared_ptr() = default;
 8083310:	a801      	add	r0, sp, #4
 8083312:	f7fd fa53 	bl	80807bc <_ZNSt14__shared_countILN9__gnu_cxx12_Lock_policyE0EED1Ev>
}
 8083316:	4620      	mov	r0, r4
 8083318:	b003      	add	sp, #12
 808331a:	bd30      	pop	{r4, r5, pc}

0808331c <_ZN5spark26DefaultOutputStreamFactory9getParamsERKNS_9JSONValueEPi>:
void spark::DefaultOutputStreamFactory::getParams(const JSONValue &params, int *baudRate) {
 808331c:	b570      	push	{r4, r5, r6, lr}
 808331e:	b08a      	sub	sp, #40	; 0x28
 8083320:	460d      	mov	r5, r1
    JSONObjectIterator it(params);
 8083322:	4601      	mov	r1, r0
 8083324:	a804      	add	r0, sp, #16
 8083326:	f7ff ffd1 	bl	80832cc <_ZN5spark18JSONObjectIteratorC1ERKNS_9JSONValueE>
        if (it.name() == "baud" && baudRate) {
 808332a:	4e14      	ldr	r6, [pc, #80]	; (808337c <_ZN5spark26DefaultOutputStreamFactory9getParamsERKNS_9JSONValueEPi+0x60>)
    while (it.next()) {
 808332c:	a804      	add	r0, sp, #16
 808332e:	f7ff fd6f 	bl	8082e10 <_ZN5spark18JSONObjectIterator4nextEv>
 8083332:	b1e8      	cbz	r0, 8083370 <_ZN5spark26DefaultOutputStreamFactory9getParamsERKNS_9JSONValueEPi+0x54>
        if (it.name() == "baud" && baudRate) {
 8083334:	4668      	mov	r0, sp
 8083336:	a904      	add	r1, sp, #16
 8083338:	f7ff ffdc 	bl	80832f4 <_ZNK5spark18JSONObjectIterator4nameEv>
 808333c:	4631      	mov	r1, r6
 808333e:	9802      	ldr	r0, [sp, #8]
 8083340:	f7ff fe6c 	bl	808301c <_ZNK5spark10JSONStringeqEPKc.isra.0>
 8083344:	4604      	mov	r4, r0
 8083346:	b110      	cbz	r0, 808334e <_ZN5spark26DefaultOutputStreamFactory9getParamsERKNS_9JSONValueEPi+0x32>
 8083348:	1e2c      	subs	r4, r5, #0
 808334a:	bf18      	it	ne
 808334c:	2401      	movne	r4, #1
 808334e:	a801      	add	r0, sp, #4
 8083350:	f7fd fa34 	bl	80807bc <_ZNSt14__shared_countILN9__gnu_cxx12_Lock_policyE0EED1Ev>
 8083354:	2c00      	cmp	r4, #0
 8083356:	d0e9      	beq.n	808332c <_ZN5spark26DefaultOutputStreamFactory9getParamsERKNS_9JSONValueEPi+0x10>
            *baudRate = it.value().toInt();
 8083358:	4668      	mov	r0, sp
 808335a:	a904      	add	r1, sp, #16
 808335c:	f7ff ffa2 	bl	80832a4 <_ZNK5spark18JSONObjectIterator5valueEv>
 8083360:	4668      	mov	r0, sp
 8083362:	f7ff fcf8 	bl	8082d56 <_ZNK5spark9JSONValue5toIntEv>
 8083366:	6028      	str	r0, [r5, #0]
 8083368:	a801      	add	r0, sp, #4
 808336a:	f7fd fa27 	bl	80807bc <_ZNSt14__shared_countILN9__gnu_cxx12_Lock_policyE0EED1Ev>
 808336e:	e7dd      	b.n	808332c <_ZN5spark26DefaultOutputStreamFactory9getParamsERKNS_9JSONValueEPi+0x10>
 8083370:	a805      	add	r0, sp, #20
 8083372:	f7fd fa23 	bl	80807bc <_ZNSt14__shared_countILN9__gnu_cxx12_Lock_policyE0EED1Ev>
}
 8083376:	b00a      	add	sp, #40	; 0x28
 8083378:	bd70      	pop	{r4, r5, r6, pc}
 808337a:	bf00      	nop
 808337c:	08086490 	.word	0x08086490

08083380 <_ZN5spark26DefaultOutputStreamFactory12createStreamEPKcRKNS_9JSONValueE>:
Print* spark::DefaultOutputStreamFactory::createStream(const char *type, const JSONValue &params) {
 8083380:	b537      	push	{r0, r1, r2, r4, r5, lr}
 8083382:	460c      	mov	r4, r1
    if (strcmp(type, "Serial") == 0) {
 8083384:	4919      	ldr	r1, [pc, #100]	; (80833ec <_ZN5spark26DefaultOutputStreamFactory12createStreamEPKcRKNS_9JSONValueE+0x6c>)
 8083386:	4620      	mov	r0, r4
Print* spark::DefaultOutputStreamFactory::createStream(const char *type, const JSONValue &params) {
 8083388:	4615      	mov	r5, r2
    if (strcmp(type, "Serial") == 0) {
 808338a:	f002 fc9d 	bl	8085cc8 <strcmp>
 808338e:	b948      	cbnz	r0, 80833a4 <_ZN5spark26DefaultOutputStreamFactory12createStreamEPKcRKNS_9JSONValueE+0x24>
        Serial.begin();
 8083390:	f001 fa28 	bl	80847e4 <_Z16_fetch_usbserialv>
 8083394:	f44f 5116 	mov.w	r1, #9600	; 0x2580
 8083398:	f001 fa06 	bl	80847a8 <_ZN9USBSerial5beginEl>
        return &Serial;
 808339c:	f001 fa22 	bl	80847e4 <_Z16_fetch_usbserialv>
}
 80833a0:	b003      	add	sp, #12
 80833a2:	bd30      	pop	{r4, r5, pc}
    if (strcmp(type, "USBSerial1") == 0) {
 80833a4:	4620      	mov	r0, r4
 80833a6:	4912      	ldr	r1, [pc, #72]	; (80833f0 <_ZN5spark26DefaultOutputStreamFactory12createStreamEPKcRKNS_9JSONValueE+0x70>)
 80833a8:	f002 fc8e 	bl	8085cc8 <strcmp>
 80833ac:	b940      	cbnz	r0, 80833c0 <_ZN5spark26DefaultOutputStreamFactory12createStreamEPKcRKNS_9JSONValueE+0x40>
        USBSerial1.begin();
 80833ae:	f001 fa53 	bl	8084858 <_Z17_fetch_usbserial1v>
 80833b2:	f44f 5116 	mov.w	r1, #9600	; 0x2580
 80833b6:	f001 f9f7 	bl	80847a8 <_ZN9USBSerial5beginEl>
        return &USBSerial1;
 80833ba:	f001 fa4d 	bl	8084858 <_Z17_fetch_usbserial1v>
 80833be:	e7ef      	b.n	80833a0 <_ZN5spark26DefaultOutputStreamFactory12createStreamEPKcRKNS_9JSONValueE+0x20>
    if (strcmp(type, "Serial1") == 0) {
 80833c0:	4620      	mov	r0, r4
 80833c2:	490c      	ldr	r1, [pc, #48]	; (80833f4 <_ZN5spark26DefaultOutputStreamFactory12createStreamEPKcRKNS_9JSONValueE+0x74>)
 80833c4:	f002 fc80 	bl	8085cc8 <strcmp>
 80833c8:	b970      	cbnz	r0, 80833e8 <_ZN5spark26DefaultOutputStreamFactory12createStreamEPKcRKNS_9JSONValueE+0x68>
        int baud = 9600;
 80833ca:	f44f 5316 	mov.w	r3, #9600	; 0x2580
        getParams(params, &baud);
 80833ce:	a901      	add	r1, sp, #4
 80833d0:	4628      	mov	r0, r5
        int baud = 9600;
 80833d2:	9301      	str	r3, [sp, #4]
        getParams(params, &baud);
 80833d4:	f7ff ffa2 	bl	808331c <_ZN5spark26DefaultOutputStreamFactory9getParamsERKNS_9JSONValueEPi>
        Serial1.begin(baud);
 80833d8:	f001 f970 	bl	80846bc <_Z22__fetch_global_Serial1v>
 80833dc:	9901      	ldr	r1, [sp, #4]
 80833de:	f001 f967 	bl	80846b0 <_ZN11USARTSerial5beginEm>
        return &Serial1;
 80833e2:	f001 f96b 	bl	80846bc <_Z22__fetch_global_Serial1v>
 80833e6:	e7db      	b.n	80833a0 <_ZN5spark26DefaultOutputStreamFactory12createStreamEPKcRKNS_9JSONValueE+0x20>
    return nullptr;
 80833e8:	2000      	movs	r0, #0
 80833ea:	e7d9      	b.n	80833a0 <_ZN5spark26DefaultOutputStreamFactory12createStreamEPKcRKNS_9JSONValueE+0x20>
 80833ec:	08086495 	.word	0x08086495
 80833f0:	0808649c 	.word	0x0808649c
 80833f4:	0808649f 	.word	0x0808649f

080833f8 <_ZN5spark6VectorINS_6detail9LogFilter4NodeENS_16DefaultAllocatorEED1Ev>:
inline spark::Vector<T, AllocatorT>::~Vector() {
 80833f8:	b570      	push	{r4, r5, r6, lr}
    destruct(data_, data_ + size_);
 80833fa:	2614      	movs	r6, #20
 80833fc:	e9d0 5300 	ldrd	r5, r3, [r0]
inline spark::Vector<T, AllocatorT>::~Vector() {
 8083400:	4604      	mov	r4, r0
    destruct(data_, data_ + size_);
 8083402:	fb06 5603 	mla	r6, r6, r3, r5
        for (; p != end; ++p) {
 8083406:	42ae      	cmp	r6, r5
 8083408:	d005      	beq.n	8083416 <_ZN5spark6VectorINS_6detail9LogFilter4NodeENS_16DefaultAllocatorEED1Ev+0x1e>
struct spark::detail::LogFilter::Node {
 808340a:	f105 0008 	add.w	r0, r5, #8
 808340e:	f7ff fff3 	bl	80833f8 <_ZN5spark6VectorINS_6detail9LogFilter4NodeENS_16DefaultAllocatorEED1Ev>
 8083412:	3514      	adds	r5, #20
 8083414:	e7f7      	b.n	8083406 <_ZN5spark6VectorINS_6detail9LogFilter4NodeENS_16DefaultAllocatorEED1Ev+0xe>
    ::free(ptr);
 8083416:	6820      	ldr	r0, [r4, #0]
 8083418:	f7fe fda2 	bl	8081f60 <free>
}
 808341c:	4620      	mov	r0, r4
 808341e:	bd70      	pop	{r4, r5, r6, pc}

08083420 <_ZN5spark6VectorI6StringNS_16DefaultAllocatorEED1Ev>:
inline spark::Vector<T, AllocatorT>::~Vector() {
 8083420:	b570      	push	{r4, r5, r6, lr}
 8083422:	4604      	mov	r4, r0
    destruct(data_, data_ + size_);
 8083424:	e9d0 5300 	ldrd	r5, r3, [r0]
 8083428:	eb05 1603 	add.w	r6, r5, r3, lsl #4
        for (; p != end; ++p) {
 808342c:	42ae      	cmp	r6, r5
 808342e:	d004      	beq.n	808343a <_ZN5spark6VectorI6StringNS_16DefaultAllocatorEED1Ev+0x1a>
            p->~T();
 8083430:	4628      	mov	r0, r5
 8083432:	f000 feaa 	bl	808418a <_ZN6StringD1Ev>
        for (; p != end; ++p) {
 8083436:	3510      	adds	r5, #16
 8083438:	e7f8      	b.n	808342c <_ZN5spark6VectorI6StringNS_16DefaultAllocatorEED1Ev+0xc>
    ::free(ptr);
 808343a:	6820      	ldr	r0, [r4, #0]
 808343c:	f7fe fd90 	bl	8081f60 <free>
}
 8083440:	4620      	mov	r0, r4
 8083442:	bd70      	pop	{r4, r5, r6, pc}

08083444 <_ZN5spark6detail9LogFilterD1Ev>:
spark::detail::LogFilter::~LogFilter() {
 8083444:	b510      	push	{r4, lr}
 8083446:	4604      	mov	r4, r0
 8083448:	300c      	adds	r0, #12
 808344a:	f7ff ffd5 	bl	80833f8 <_ZN5spark6VectorINS_6detail9LogFilter4NodeENS_16DefaultAllocatorEED1Ev>
 808344e:	4620      	mov	r0, r4
 8083450:	f7ff ffe6 	bl	8083420 <_ZN5spark6VectorI6StringNS_16DefaultAllocatorEED1Ev>
}
 8083454:	4620      	mov	r0, r4
 8083456:	bd10      	pop	{r4, pc}

08083458 <_ZN5spark16StreamLogHandlerD1Ev>:
class StreamLogHandler: public LogHandler {
 8083458:	b510      	push	{r4, lr}
 808345a:	4604      	mov	r4, r0
    virtual ~LogHandler() = default;
 808345c:	4b03      	ldr	r3, [pc, #12]	; (808346c <_ZN5spark16StreamLogHandlerD1Ev+0x14>)
 808345e:	f840 3b04 	str.w	r3, [r0], #4
 8083462:	f7ff ffef 	bl	8083444 <_ZN5spark6detail9LogFilterD1Ev>
class StreamLogHandler: public LogHandler {
 8083466:	4620      	mov	r0, r4
 8083468:	bd10      	pop	{r4, pc}
 808346a:	bf00      	nop
 808346c:	08086364 	.word	0x08086364

08083470 <_ZN5spark16StreamLogHandlerD0Ev>:
 8083470:	b510      	push	{r4, lr}
 8083472:	4604      	mov	r4, r0
 8083474:	f7ff fff0 	bl	8083458 <_ZN5spark16StreamLogHandlerD1Ev>
 8083478:	4620      	mov	r0, r4
 808347a:	2124      	movs	r1, #36	; 0x24
 808347c:	f001 fbd4 	bl	8084c28 <_ZdlPvj>
 8083480:	4620      	mov	r0, r4
 8083482:	bd10      	pop	{r4, pc}

08083484 <_ZN5spark20JSONStreamLogHandlerD1Ev>:
class JSONStreamLogHandler: public StreamLogHandler {
 8083484:	b510      	push	{r4, lr}
 8083486:	4604      	mov	r4, r0
 8083488:	4b02      	ldr	r3, [pc, #8]	; (8083494 <_ZN5spark20JSONStreamLogHandlerD1Ev+0x10>)
 808348a:	6003      	str	r3, [r0, #0]
 808348c:	f7ff ffe4 	bl	8083458 <_ZN5spark16StreamLogHandlerD1Ev>
 8083490:	4620      	mov	r0, r4
 8083492:	bd10      	pop	{r4, pc}
 8083494:	08086538 	.word	0x08086538

08083498 <_ZN5spark20JSONStreamLogHandlerD0Ev>:
 8083498:	b510      	push	{r4, lr}
 808349a:	4604      	mov	r4, r0
 808349c:	f7ff fff2 	bl	8083484 <_ZN5spark20JSONStreamLogHandlerD1Ev>
 80834a0:	4620      	mov	r0, r4
 80834a2:	2124      	movs	r1, #36	; 0x24
 80834a4:	f001 fbc0 	bl	8084c28 <_ZdlPvj>
 80834a8:	4620      	mov	r0, r4
 80834aa:	bd10      	pop	{r4, pc}

080834ac <_ZN5spark6VectorINS_17LogCategoryFilterENS_16DefaultAllocatorEEC1EOS3_>:
        capacity_(0) {
 80834ac:	2200      	movs	r2, #0
 80834ae:	e9c0 2200 	strd	r2, r2, [r0]
 80834b2:	6082      	str	r2, [r0, #8]
inline spark::Vector<T, AllocatorT>::Vector(Vector<T, AllocatorT>&& vector) : Vector() {
 80834b4:	b510      	push	{r4, lr}
      __a = _GLIBCXX_MOVE(__b);
 80834b6:	680c      	ldr	r4, [r1, #0]
      __b = _GLIBCXX_MOVE(__tmp);
 80834b8:	600a      	str	r2, [r1, #0]
      __a = _GLIBCXX_MOVE(__b);
 80834ba:	6004      	str	r4, [r0, #0]
 80834bc:	684c      	ldr	r4, [r1, #4]
      __b = _GLIBCXX_MOVE(__tmp);
 80834be:	604a      	str	r2, [r1, #4]
      __a = _GLIBCXX_MOVE(__b);
 80834c0:	6044      	str	r4, [r0, #4]
 80834c2:	688c      	ldr	r4, [r1, #8]
      __b = _GLIBCXX_MOVE(__tmp);
 80834c4:	608a      	str	r2, [r1, #8]
      __a = _GLIBCXX_MOVE(__b);
 80834c6:	6084      	str	r4, [r0, #8]
}
 80834c8:	bd10      	pop	{r4, pc}

080834ca <_ZNSt10lock_guardI14RecursiveMutexED1Ev>:
      ~lock_guard()
 80834ca:	b510      	push	{r4, lr}
 80834cc:	4604      	mov	r4, r0
      { _M_device.unlock(); }
 80834ce:	6803      	ldr	r3, [r0, #0]
    }

    void lock() { os_mutex_recursive_lock(handle_); }
    bool trylock() { return os_mutex_recursive_trylock(handle_)==0; }
    bool try_lock() { return trylock(); }
    void unlock() { os_mutex_recursive_unlock(handle_); }
 80834d0:	6818      	ldr	r0, [r3, #0]
 80834d2:	f7fe fa5d 	bl	8081990 <os_mutex_recursive_unlock>
 80834d6:	4620      	mov	r0, r4
 80834d8:	bd10      	pop	{r4, pc}
	...

080834dc <_ZN5spark10LogManager10logMessageEPKciS2_PK13LogAttributesPv>:
}

void spark::LogManager::logMessage(const char *msg, int level, const char *category, const LogAttributes *attr, void *reserved) {
 80834dc:	e92d 4ff0 	stmdb	sp!, {r4, r5, r6, r7, r8, r9, sl, fp, lr}
 80834e0:	b087      	sub	sp, #28
 80834e2:	9303      	str	r3, [sp, #12]
#endif /* nRF52840 */

#if defined(STM32F10X_MD) || defined(STM32F10X_HD) || defined(STM32F2XX) || defined(nRF52840)
static inline bool HAL_IsISR() 
{
	return (SCB->ICSR & SCB_ICSR_VECTACTIVE_Msk) != 0;
 80834e4:	4b1c      	ldr	r3, [pc, #112]	; (8083558 <_ZN5spark10LogManager10logMessageEPKciS2_PK13LogAttributesPv+0x7c>)
 80834e6:	4680      	mov	r8, r0
 80834e8:	685b      	ldr	r3, [r3, #4]
 80834ea:	4689      	mov	r9, r1
 80834ec:	f3c3 0308 	ubfx	r3, r3, #0, #9
 80834f0:	4616      	mov	r6, r2
#ifndef LOG_FROM_ISR
    if (HAL_IsISR()) {
 80834f2:	b96b      	cbnz	r3, 8083510 <_ZN5spark10LogManager10logMessageEPKciS2_PK13LogAttributesPv+0x34>
        return;
    }
#endif
    LogManager *that = instance();
 80834f4:	f7ff fea8 	bl	8083248 <_ZN5spark10LogManager8instanceEv>
 80834f8:	4604      	mov	r4, r0
    LOG_WITH_LOCK(that->mutex_) {
 80834fa:	f100 0324 	add.w	r3, r0, #36	; 0x24
    void lock() { os_mutex_recursive_lock(handle_); }
 80834fe:	6a40      	ldr	r0, [r0, #36]	; 0x24
      explicit lock_guard(mutex_type& __m) : _M_device(__m)
 8083500:	9305      	str	r3, [sp, #20]
 8083502:	f7fe fa3d 	bl	8081980 <os_mutex_recursive_lock>
        // prevent re-entry
        if (that->isActive()) {
 8083506:	7b23      	ldrb	r3, [r4, #12]
 8083508:	b12b      	cbz	r3, 8083516 <_ZN5spark10LogManager10logMessageEPKciS2_PK13LogAttributesPv+0x3a>
    LOG_WITH_LOCK(that->mutex_) {
 808350a:	a805      	add	r0, sp, #20
 808350c:	f7ff ffdd 	bl	80834ca <_ZNSt10lock_guardI14RecursiveMutexED1Ev>
        for (LogHandler *handler: that->activeHandlers_) {
            handler->message(msg, (LogLevel)level, category, *attr);
        }
        that->setActive(false);
    }
}
 8083510:	b007      	add	sp, #28
 8083512:	e8bd 8ff0 	ldmia.w	sp!, {r4, r5, r6, r7, r8, r9, sl, fp, pc}
inline bool spark::LogManager::isActive() const {
    return outputActive_;
}

inline void spark::LogManager::setActive(bool outputActive) {
    outputActive_ = outputActive;
 8083516:	2301      	movs	r3, #1
            handler->message(msg, (LogLevel)level, category, *attr);
 8083518:	fa5f f989 	uxtb.w	r9, r9
    outputActive_ = outputActive;
 808351c:	7323      	strb	r3, [r4, #12]
    return data_ + size_;
 808351e:	e9d4 5300 	ldrd	r5, r3, [r4]
 8083522:	eb05 0a83 	add.w	sl, r5, r3, lsl #2
        for (LogHandler *handler: that->activeHandlers_) {
 8083526:	45aa      	cmp	sl, r5
 8083528:	d012      	beq.n	8083550 <_ZN5spark10LogManager10logMessageEPKciS2_PK13LogAttributesPv+0x74>
 808352a:	f855 7b04 	ldr.w	r7, [r5], #4
    if (level >= filter_.level(category)) {
 808352e:	4631      	mov	r1, r6
 8083530:	1d38      	adds	r0, r7, #4
 8083532:	f7ff fe15 	bl	8083160 <_ZNK5spark6detail9LogFilter5levelEPKc>
 8083536:	4581      	cmp	r9, r0
 8083538:	d3f5      	bcc.n	8083526 <_ZN5spark10LogManager10logMessageEPKciS2_PK13LogAttributesPv+0x4a>
        logMessage(msg, level, category, attr);
 808353a:	9a03      	ldr	r2, [sp, #12]
 808353c:	683b      	ldr	r3, [r7, #0]
 808353e:	9200      	str	r2, [sp, #0]
 8083540:	f8d3 b008 	ldr.w	fp, [r3, #8]
 8083544:	464a      	mov	r2, r9
 8083546:	4633      	mov	r3, r6
 8083548:	4641      	mov	r1, r8
 808354a:	4638      	mov	r0, r7
 808354c:	47d8      	blx	fp
 808354e:	e7ea      	b.n	8083526 <_ZN5spark10LogManager10logMessageEPKciS2_PK13LogAttributesPv+0x4a>
    outputActive_ = outputActive;
 8083550:	2300      	movs	r3, #0
 8083552:	7323      	strb	r3, [r4, #12]
 8083554:	e7d9      	b.n	808350a <_ZN5spark10LogManager10logMessageEPKciS2_PK13LogAttributesPv+0x2e>
 8083556:	bf00      	nop
 8083558:	e000ed00 	.word	0xe000ed00

0808355c <_ZN5spark10LogManager8logWriteEPKcjiS2_Pv>:
void spark::LogManager::logWrite(const char *data, size_t size, int level, const char *category, void *reserved) {
 808355c:	e92d 4ff7 	stmdb	sp!, {r0, r1, r2, r4, r5, r6, r7, r8, r9, sl, fp, lr}
 8083560:	469b      	mov	fp, r3
 8083562:	4b1a      	ldr	r3, [pc, #104]	; (80835cc <_ZN5spark10LogManager8logWriteEPKcjiS2_Pv+0x70>)
 8083564:	4680      	mov	r8, r0
 8083566:	685b      	ldr	r3, [r3, #4]
 8083568:	4689      	mov	r9, r1
 808356a:	f3c3 0308 	ubfx	r3, r3, #0, #9
 808356e:	4616      	mov	r6, r2
    if (HAL_IsISR()) {
 8083570:	b96b      	cbnz	r3, 808358e <_ZN5spark10LogManager8logWriteEPKcjiS2_Pv+0x32>
    LogManager *that = instance();
 8083572:	f7ff fe69 	bl	8083248 <_ZN5spark10LogManager8instanceEv>
 8083576:	4604      	mov	r4, r0
    LOG_WITH_LOCK(that->mutex_) {
 8083578:	f100 0324 	add.w	r3, r0, #36	; 0x24
 808357c:	6a40      	ldr	r0, [r0, #36]	; 0x24
 808357e:	9301      	str	r3, [sp, #4]
 8083580:	f7fe f9fe 	bl	8081980 <os_mutex_recursive_lock>
        if (that->isActive()) {
 8083584:	7b23      	ldrb	r3, [r4, #12]
 8083586:	b12b      	cbz	r3, 8083594 <_ZN5spark10LogManager8logWriteEPKcjiS2_Pv+0x38>
    LOG_WITH_LOCK(that->mutex_) {
 8083588:	a801      	add	r0, sp, #4
 808358a:	f7ff ff9e 	bl	80834ca <_ZNSt10lock_guardI14RecursiveMutexED1Ev>
}
 808358e:	b003      	add	sp, #12
 8083590:	e8bd 8ff0 	ldmia.w	sp!, {r4, r5, r6, r7, r8, r9, sl, fp, pc}
    outputActive_ = outputActive;
 8083594:	2301      	movs	r3, #1
    if (level >= filter_.level(category)) {
 8083596:	b2f6      	uxtb	r6, r6
 8083598:	7323      	strb	r3, [r4, #12]
 808359a:	e9d4 5300 	ldrd	r5, r3, [r4]
 808359e:	eb05 0a83 	add.w	sl, r5, r3, lsl #2
        for (LogHandler *handler: that->activeHandlers_) {
 80835a2:	4555      	cmp	r5, sl
 80835a4:	d00e      	beq.n	80835c4 <_ZN5spark10LogManager8logWriteEPKcjiS2_Pv+0x68>
 80835a6:	f855 7b04 	ldr.w	r7, [r5], #4
 80835aa:	4659      	mov	r1, fp
 80835ac:	1d38      	adds	r0, r7, #4
 80835ae:	f7ff fdd7 	bl	8083160 <_ZNK5spark6detail9LogFilter5levelEPKc>
 80835b2:	4286      	cmp	r6, r0
 80835b4:	d3f5      	bcc.n	80835a2 <_ZN5spark10LogManager8logWriteEPKcjiS2_Pv+0x46>
        write(data, size);
 80835b6:	683b      	ldr	r3, [r7, #0]
 80835b8:	464a      	mov	r2, r9
 80835ba:	4641      	mov	r1, r8
 80835bc:	4638      	mov	r0, r7
 80835be:	68db      	ldr	r3, [r3, #12]
 80835c0:	4798      	blx	r3
 80835c2:	e7ee      	b.n	80835a2 <_ZN5spark10LogManager8logWriteEPKcjiS2_Pv+0x46>
    outputActive_ = outputActive;
 80835c4:	2300      	movs	r3, #0
 80835c6:	7323      	strb	r3, [r4, #12]
 80835c8:	e7de      	b.n	8083588 <_ZN5spark10LogManager8logWriteEPKcjiS2_Pv+0x2c>
 80835ca:	bf00      	nop
 80835cc:	e000ed00 	.word	0xe000ed00

080835d0 <_ZN5spark10LogManager10logEnabledEiPKcPv>:
int spark::LogManager::logEnabled(int level, const char *category, void *reserved) {
 80835d0:	e92d 41f3 	stmdb	sp!, {r0, r1, r4, r5, r6, r7, r8, lr}
 80835d4:	4b16      	ldr	r3, [pc, #88]	; (8083630 <_ZN5spark10LogManager10logEnabledEiPKcPv+0x60>)
 80835d6:	4605      	mov	r5, r0
 80835d8:	685b      	ldr	r3, [r3, #4]
 80835da:	460f      	mov	r7, r1
 80835dc:	f3c3 0308 	ubfx	r3, r3, #0, #9
    if (HAL_IsISR()) {
 80835e0:	bb1b      	cbnz	r3, 808362a <_ZN5spark10LogManager10logEnabledEiPKcPv+0x5a>
    LogManager *that = instance();
 80835e2:	f7ff fe31 	bl	8083248 <_ZN5spark10LogManager8instanceEv>
 80835e6:	4604      	mov	r4, r0
    LOG_WITH_LOCK(that->mutex_) {
 80835e8:	f100 0324 	add.w	r3, r0, #36	; 0x24
 80835ec:	6a40      	ldr	r0, [r0, #36]	; 0x24
 80835ee:	9301      	str	r3, [sp, #4]
 80835f0:	f7fe f9c6 	bl	8081980 <os_mutex_recursive_lock>
 80835f4:	e9d4 6300 	ldrd	r6, r3, [r4]
    int minLevel = LOG_LEVEL_NONE;
 80835f8:	2446      	movs	r4, #70	; 0x46
 80835fa:	eb06 0883 	add.w	r8, r6, r3, lsl #2
        for (LogHandler *handler: that->activeHandlers_) {
 80835fe:	45b0      	cmp	r8, r6
 8083600:	d109      	bne.n	8083616 <_ZN5spark10LogManager10logEnabledEiPKcPv+0x46>
    LOG_WITH_LOCK(that->mutex_) {
 8083602:	a801      	add	r0, sp, #4
 8083604:	f7ff ff61 	bl	80834ca <_ZNSt10lock_guardI14RecursiveMutexED1Ev>
    return (level >= minLevel);
 8083608:	42a5      	cmp	r5, r4
 808360a:	bfb4      	ite	lt
 808360c:	2000      	movlt	r0, #0
 808360e:	2001      	movge	r0, #1
}
 8083610:	b002      	add	sp, #8
 8083612:	e8bd 81f0 	ldmia.w	sp!, {r4, r5, r6, r7, r8, pc}
    return filter_.level(category);
 8083616:	f856 0b04 	ldr.w	r0, [r6], #4
 808361a:	4639      	mov	r1, r7
 808361c:	3004      	adds	r0, #4
 808361e:	f7ff fd9f 	bl	8083160 <_ZNK5spark6detail9LogFilter5levelEPKc>
            if (level < minLevel) {
 8083622:	4284      	cmp	r4, r0
 8083624:	bfa8      	it	ge
 8083626:	4604      	movge	r4, r0
        for (LogHandler *handler: that->activeHandlers_) {
 8083628:	e7e9      	b.n	80835fe <_ZN5spark10LogManager10logEnabledEiPKcPv+0x2e>
        return 0;
 808362a:	2000      	movs	r0, #0
 808362c:	e7f0      	b.n	8083610 <_ZN5spark10LogManager10logEnabledEiPKcPv+0x40>
 808362e:	bf00      	nop
 8083630:	e000ed00 	.word	0xe000ed00

08083634 <_ZN5spark6VectorIPNS_10LogHandlerENS_16DefaultAllocatorEE9removeOneERKS2_>:
inline bool spark::Vector<T, AllocatorT>::removeOne(const T &value) {
 8083634:	460b      	mov	r3, r1
 8083636:	b570      	push	{r4, r5, r6, lr}
 8083638:	4604      	mov	r4, r0
    T* const p = find(data_, data_ + size_, value);
 808363a:	c805      	ldmia	r0, {r0, r2}
 808363c:	eb00 0282 	add.w	r2, r0, r2, lsl #2
        for (; p != end; ++p) {
 8083640:	4282      	cmp	r2, r0
 8083642:	d007      	beq.n	8083654 <_ZN5spark6VectorIPNS_10LogHandlerENS_16DefaultAllocatorEE9removeOneERKS2_+0x20>
 8083644:	4601      	mov	r1, r0
            if (*p == value) {
 8083646:	681d      	ldr	r5, [r3, #0]
 8083648:	f851 6b04 	ldr.w	r6, [r1], #4
 808364c:	42ae      	cmp	r6, r5
 808364e:	d003      	beq.n	8083658 <_ZN5spark6VectorIPNS_10LogHandlerENS_16DefaultAllocatorEE9removeOneERKS2_+0x24>
 8083650:	4608      	mov	r0, r1
 8083652:	e7f5      	b.n	8083640 <_ZN5spark6VectorIPNS_10LogHandlerENS_16DefaultAllocatorEE9removeOneERKS2_+0xc>
        return false;
 8083654:	2000      	movs	r0, #0
}
 8083656:	bd70      	pop	{r4, r5, r6, pc}
        ::memmove(dest, p, (end - p) * sizeof(T));
 8083658:	1a52      	subs	r2, r2, r1
 808365a:	f002 fac8 	bl	8085bee <memmove>
    --size_;
 808365e:	6863      	ldr	r3, [r4, #4]
    return true;
 8083660:	2001      	movs	r0, #1
    --size_;
 8083662:	3b01      	subs	r3, #1
 8083664:	6063      	str	r3, [r4, #4]
    return true;
 8083666:	e7f6      	b.n	8083656 <_ZN5spark6VectorIPNS_10LogHandlerENS_16DefaultAllocatorEE9removeOneERKS2_+0x22>

08083668 <_ZN5spark10LogManager13removeHandlerEPNS_10LogHandlerE>:
void spark::LogManager::removeHandler(LogHandler *handler) {
 8083668:	b51f      	push	{r0, r1, r2, r3, r4, lr}
 808366a:	4604      	mov	r4, r0
    LOG_WITH_LOCK(mutex_) {
 808366c:	f100 0324 	add.w	r3, r0, #36	; 0x24
 8083670:	6a40      	ldr	r0, [r0, #36]	; 0x24
void spark::LogManager::removeHandler(LogHandler *handler) {
 8083672:	9101      	str	r1, [sp, #4]
 8083674:	9303      	str	r3, [sp, #12]
 8083676:	f7fe f983 	bl	8081980 <os_mutex_recursive_lock>
        if (activeHandlers_.removeOne(handler) && activeHandlers_.isEmpty()) {
 808367a:	4620      	mov	r0, r4
 808367c:	a901      	add	r1, sp, #4
 808367e:	f7ff ffd9 	bl	8083634 <_ZN5spark6VectorIPNS_10LogHandlerENS_16DefaultAllocatorEE9removeOneERKS2_>
 8083682:	b118      	cbz	r0, 808368c <_ZN5spark10LogManager13removeHandlerEPNS_10LogHandlerE+0x24>
 8083684:	6863      	ldr	r3, [r4, #4]
 8083686:	b90b      	cbnz	r3, 808368c <_ZN5spark10LogManager13removeHandlerEPNS_10LogHandlerE+0x24>
            resetSystemCallbacks();
 8083688:	f7ff fe06 	bl	8083298 <_ZN5spark10LogManager20resetSystemCallbacksEv>
    LOG_WITH_LOCK(mutex_) {
 808368c:	a803      	add	r0, sp, #12
 808368e:	f7ff ff1c 	bl	80834ca <_ZNSt10lock_guardI14RecursiveMutexED1Ev>
}
 8083692:	b004      	add	sp, #16
 8083694:	bd10      	pop	{r4, pc}

08083696 <_ZN5spark10LogManager22destroyFactoryHandlersEv>:
    return data_ + size_;
 8083696:	2318      	movs	r3, #24
void spark::LogManager::destroyFactoryHandlers() {
 8083698:	b570      	push	{r4, r5, r6, lr}
 808369a:	4604      	mov	r4, r0
 808369c:	e9d0 5604 	ldrd	r5, r6, [r0, #16]
 80836a0:	fb03 5606 	mla	r6, r3, r6, r5
    for (const FactoryHandler &h: factoryHandlers_) {
 80836a4:	42ae      	cmp	r6, r5
 80836a6:	d015      	beq.n	80836d4 <_ZN5spark10LogManager22destroyFactoryHandlersEv+0x3e>
        activeHandlers_.removeOne(h.handler);
 80836a8:	4620      	mov	r0, r4
 80836aa:	f105 0110 	add.w	r1, r5, #16
 80836ae:	f7ff ffc1 	bl	8083634 <_ZN5spark6VectorIPNS_10LogHandlerENS_16DefaultAllocatorEE9removeOneERKS2_>
        if (activeHandlers_.isEmpty()) {
 80836b2:	6863      	ldr	r3, [r4, #4]
 80836b4:	b90b      	cbnz	r3, 80836ba <_ZN5spark10LogManager22destroyFactoryHandlersEv+0x24>
            resetSystemCallbacks();
 80836b6:	f7ff fdef 	bl	8083298 <_ZN5spark10LogManager20resetSystemCallbacksEv>
        handlerFactory_->destroyHandler(h.handler);
 80836ba:	69e0      	ldr	r0, [r4, #28]
 80836bc:	6929      	ldr	r1, [r5, #16]
 80836be:	6803      	ldr	r3, [r0, #0]
 80836c0:	68db      	ldr	r3, [r3, #12]
 80836c2:	4798      	blx	r3
        if (h.stream) {
 80836c4:	6969      	ldr	r1, [r5, #20]
 80836c6:	b119      	cbz	r1, 80836d0 <_ZN5spark10LogManager22destroyFactoryHandlersEv+0x3a>
            streamFactory_->destroyStream(h.stream);
 80836c8:	6a20      	ldr	r0, [r4, #32]
 80836ca:	6803      	ldr	r3, [r0, #0]
 80836cc:	68db      	ldr	r3, [r3, #12]
 80836ce:	4798      	blx	r3
    for (const FactoryHandler &h: factoryHandlers_) {
 80836d0:	3518      	adds	r5, #24
 80836d2:	e7e7      	b.n	80836a4 <_ZN5spark10LogManager22destroyFactoryHandlersEv+0xe>
    destruct(data_, data_ + size_);
 80836d4:	2618      	movs	r6, #24
 80836d6:	e9d4 5304 	ldrd	r5, r3, [r4, #16]
 80836da:	fb06 5603 	mla	r6, r6, r3, r5
        for (; p != end; ++p) {
 80836de:	42ae      	cmp	r6, r5
 80836e0:	d004      	beq.n	80836ec <_ZN5spark10LogManager22destroyFactoryHandlersEv+0x56>
struct spark::LogManager::FactoryHandler {
 80836e2:	4628      	mov	r0, r5
 80836e4:	f000 fd51 	bl	808418a <_ZN6StringD1Ev>
 80836e8:	3518      	adds	r5, #24
 80836ea:	e7f8      	b.n	80836de <_ZN5spark10LogManager22destroyFactoryHandlersEv+0x48>
    size_ = 0;
 80836ec:	2300      	movs	r3, #0
 80836ee:	6163      	str	r3, [r4, #20]
}
 80836f0:	bd70      	pop	{r4, r5, r6, pc}

080836f2 <_ZN5spark10LogManagerD1Ev>:
spark::LogManager::~LogManager() {
 80836f2:	b573      	push	{r0, r1, r4, r5, r6, lr}
 80836f4:	4604      	mov	r4, r0
    resetSystemCallbacks();
 80836f6:	f7ff fdcf 	bl	8083298 <_ZN5spark10LogManager20resetSystemCallbacksEv>
    LOG_WITH_LOCK(mutex_) {
 80836fa:	f104 0324 	add.w	r3, r4, #36	; 0x24
 80836fe:	6a60      	ldr	r0, [r4, #36]	; 0x24
 8083700:	9301      	str	r3, [sp, #4]
 8083702:	f7fe f93d 	bl	8081980 <os_mutex_recursive_lock>
         destroyFactoryHandlers();
 8083706:	4620      	mov	r0, r4
 8083708:	f7ff ffc5 	bl	8083696 <_ZN5spark10LogManager22destroyFactoryHandlersEv>
    LOG_WITH_LOCK(mutex_) {
 808370c:	a801      	add	r0, sp, #4
 808370e:	f7ff fedc 	bl	80834ca <_ZNSt10lock_guardI14RecursiveMutexED1Ev>
        if (handle_) {
 8083712:	6a60      	ldr	r0, [r4, #36]	; 0x24
 8083714:	b108      	cbz	r0, 808371a <_ZN5spark10LogManagerD1Ev+0x28>
            os_mutex_recursive_destroy(handle_);
 8083716:	f7fe f92b 	bl	8081970 <os_mutex_recursive_destroy>
    destruct(data_, data_ + size_);
 808371a:	e9d4 5304 	ldrd	r5, r3, [r4, #16]
 808371e:	2618      	movs	r6, #24
 8083720:	fb06 5603 	mla	r6, r6, r3, r5
        for (; p != end; ++p) {
 8083724:	42ae      	cmp	r6, r5
 8083726:	d004      	beq.n	8083732 <_ZN5spark10LogManagerD1Ev+0x40>
struct spark::LogManager::FactoryHandler {
 8083728:	4628      	mov	r0, r5
 808372a:	f000 fd2e 	bl	808418a <_ZN6StringD1Ev>
 808372e:	3518      	adds	r5, #24
 8083730:	e7f8      	b.n	8083724 <_ZN5spark10LogManagerD1Ev+0x32>
    ::free(ptr);
 8083732:	6920      	ldr	r0, [r4, #16]
 8083734:	f7fe fc14 	bl	8081f60 <free>
 8083738:	6820      	ldr	r0, [r4, #0]
 808373a:	f7fe fc11 	bl	8081f60 <free>
}
 808373e:	4620      	mov	r0, r4
 8083740:	b002      	add	sp, #8
 8083742:	bd70      	pop	{r4, r5, r6, pc}

08083744 <__tcf_2>:
    static LogManager mgr;
 8083744:	4801      	ldr	r0, [pc, #4]	; (808374c <__tcf_2+0x8>)
 8083746:	f7ff bfd4 	b.w	80836f2 <_ZN5spark10LogManagerD1Ev>
 808374a:	bf00      	nop
 808374c:	200001dc 	.word	0x200001dc

08083750 <_ZN5spark6VectorINS_6detail9LogFilter4NodeENS_16DefaultAllocatorEE4moveIS3_Li0EEEvPS3_S7_S7_>:
        if (dest > p && dest < end) {
 8083750:	4288      	cmp	r0, r1
    static void move(T* dest, T* p, T* end) {
 8083752:	b5f8      	push	{r3, r4, r5, r6, r7, lr}
 8083754:	4606      	mov	r6, r0
 8083756:	460c      	mov	r4, r1
 8083758:	4615      	mov	r5, r2
        if (dest > p && dest < end) {
 808375a:	d927      	bls.n	80837ac <_ZN5spark6VectorINS_6detail9LogFilter4NodeENS_16DefaultAllocatorEE4moveIS3_Li0EEEvPS3_S7_S7_+0x5c>
 808375c:	4290      	cmp	r0, r2
 808375e:	d226      	bcs.n	80837ae <_ZN5spark6VectorINS_6detail9LogFilter4NodeENS_16DefaultAllocatorEE4moveIS3_Li0EEEvPS3_S7_S7_+0x5e>
        capacity_(0) {
 8083760:	2600      	movs	r6, #0
            --end;
 8083762:	f1a2 0514 	sub.w	r5, r2, #20
            dest += end - p - 1;
 8083766:	1a6c      	subs	r4, r5, r1
 8083768:	f1a1 0714 	sub.w	r7, r1, #20
 808376c:	4404      	add	r4, r0
            for (; end != p; --end, --dest) {
 808376e:	42af      	cmp	r7, r5
 8083770:	d03d      	beq.n	80837ee <_ZN5spark6VectorINS_6detail9LogFilter4NodeENS_16DefaultAllocatorEE4moveIS3_Li0EEEvPS3_S7_S7_+0x9e>
                new(dest) T(std::move(*end));
 8083772:	b1a4      	cbz	r4, 808379e <_ZN5spark6VectorINS_6detail9LogFilter4NodeENS_16DefaultAllocatorEE4moveIS3_Li0EEEvPS3_S7_S7_+0x4e>
struct spark::detail::LogFilter::Node {
 8083774:	682b      	ldr	r3, [r5, #0]
 8083776:	6023      	str	r3, [r4, #0]
 8083778:	88ab      	ldrh	r3, [r5, #4]
 808377a:	80a3      	strh	r3, [r4, #4]
 808377c:	f9b5 3006 	ldrsh.w	r3, [r5, #6]
        capacity_(0) {
 8083780:	e9c4 6602 	strd	r6, r6, [r4, #8]
 8083784:	6126      	str	r6, [r4, #16]
 8083786:	80e3      	strh	r3, [r4, #6]
 8083788:	68ab      	ldr	r3, [r5, #8]
 808378a:	60a3      	str	r3, [r4, #8]
      __b = _GLIBCXX_MOVE(__tmp);
 808378c:	60ae      	str	r6, [r5, #8]
      _Tp __tmp = _GLIBCXX_MOVE(__a);
 808378e:	68e3      	ldr	r3, [r4, #12]
      __a = _GLIBCXX_MOVE(__b);
 8083790:	68ea      	ldr	r2, [r5, #12]
 8083792:	60e2      	str	r2, [r4, #12]
      __b = _GLIBCXX_MOVE(__tmp);
 8083794:	60eb      	str	r3, [r5, #12]
      _Tp __tmp = _GLIBCXX_MOVE(__a);
 8083796:	6923      	ldr	r3, [r4, #16]
      __a = _GLIBCXX_MOVE(__b);
 8083798:	692a      	ldr	r2, [r5, #16]
 808379a:	6122      	str	r2, [r4, #16]
      __b = _GLIBCXX_MOVE(__tmp);
 808379c:	612b      	str	r3, [r5, #16]
 808379e:	f105 0008 	add.w	r0, r5, #8
 80837a2:	f7ff fe29 	bl	80833f8 <_ZN5spark6VectorINS_6detail9LogFilter4NodeENS_16DefaultAllocatorEED1Ev>
            for (; end != p; --end, --dest) {
 80837a6:	3d14      	subs	r5, #20
 80837a8:	3c14      	subs	r4, #20
 80837aa:	e7e0      	b.n	808376e <_ZN5spark6VectorINS_6detail9LogFilter4NodeENS_16DefaultAllocatorEE4moveIS3_Li0EEEvPS3_S7_S7_+0x1e>
        } else if (dest != p) {
 80837ac:	d01f      	beq.n	80837ee <_ZN5spark6VectorINS_6detail9LogFilter4NodeENS_16DefaultAllocatorEE4moveIS3_Li0EEEvPS3_S7_S7_+0x9e>
        capacity_(0) {
 80837ae:	2700      	movs	r7, #0
            for (; p != end; ++p, ++dest) {
 80837b0:	42ac      	cmp	r4, r5
 80837b2:	d01c      	beq.n	80837ee <_ZN5spark6VectorINS_6detail9LogFilter4NodeENS_16DefaultAllocatorEE4moveIS3_Li0EEEvPS3_S7_S7_+0x9e>
                new(dest) T(std::move(*p));
 80837b4:	b1a6      	cbz	r6, 80837e0 <_ZN5spark6VectorINS_6detail9LogFilter4NodeENS_16DefaultAllocatorEE4moveIS3_Li0EEEvPS3_S7_S7_+0x90>
 80837b6:	6823      	ldr	r3, [r4, #0]
 80837b8:	6033      	str	r3, [r6, #0]
 80837ba:	88a3      	ldrh	r3, [r4, #4]
 80837bc:	80b3      	strh	r3, [r6, #4]
 80837be:	f9b4 3006 	ldrsh.w	r3, [r4, #6]
        capacity_(0) {
 80837c2:	e9c6 7702 	strd	r7, r7, [r6, #8]
 80837c6:	6137      	str	r7, [r6, #16]
 80837c8:	80f3      	strh	r3, [r6, #6]
      __a = _GLIBCXX_MOVE(__b);
 80837ca:	68a3      	ldr	r3, [r4, #8]
 80837cc:	60b3      	str	r3, [r6, #8]
      __b = _GLIBCXX_MOVE(__tmp);
 80837ce:	60a7      	str	r7, [r4, #8]
      _Tp __tmp = _GLIBCXX_MOVE(__a);
 80837d0:	68f3      	ldr	r3, [r6, #12]
      __a = _GLIBCXX_MOVE(__b);
 80837d2:	68e2      	ldr	r2, [r4, #12]
 80837d4:	60f2      	str	r2, [r6, #12]
      __b = _GLIBCXX_MOVE(__tmp);
 80837d6:	60e3      	str	r3, [r4, #12]
      _Tp __tmp = _GLIBCXX_MOVE(__a);
 80837d8:	6933      	ldr	r3, [r6, #16]
      __a = _GLIBCXX_MOVE(__b);
 80837da:	6922      	ldr	r2, [r4, #16]
 80837dc:	6132      	str	r2, [r6, #16]
      __b = _GLIBCXX_MOVE(__tmp);
 80837de:	6123      	str	r3, [r4, #16]
 80837e0:	f104 0008 	add.w	r0, r4, #8
 80837e4:	f7ff fe08 	bl	80833f8 <_ZN5spark6VectorINS_6detail9LogFilter4NodeENS_16DefaultAllocatorEED1Ev>
            for (; p != end; ++p, ++dest) {
 80837e8:	3414      	adds	r4, #20
 80837ea:	3614      	adds	r6, #20
 80837ec:	e7e0      	b.n	80837b0 <_ZN5spark6VectorINS_6detail9LogFilter4NodeENS_16DefaultAllocatorEE4moveIS3_Li0EEEvPS3_S7_S7_+0x60>
    }
 80837ee:	bdf8      	pop	{r3, r4, r5, r6, r7, pc}

080837f0 <_ZN5spark6VectorIPNS_10LogHandlerENS_16DefaultAllocatorEE6insertEiS2_>:
inline bool spark::Vector<T, AllocatorT>::insert(int i, T value) {
 80837f0:	b5f8      	push	{r3, r4, r5, r6, r7, lr}
    if (size_ + 1 > capacity_ && !realloc(size_ + 1)) {
 80837f2:	e9d0 5301 	ldrd	r5, r3, [r0, #4]
 80837f6:	429d      	cmp	r5, r3
inline bool spark::Vector<T, AllocatorT>::insert(int i, T value) {
 80837f8:	4604      	mov	r4, r0
 80837fa:	460e      	mov	r6, r1
 80837fc:	4617      	mov	r7, r2
    if (size_ + 1 > capacity_ && !realloc(size_ + 1)) {
 80837fe:	db0d      	blt.n	808381c <_ZN5spark6VectorIPNS_10LogHandlerENS_16DefaultAllocatorEE6insertEiS2_+0x2c>
 8083800:	3501      	adds	r5, #1
        if (n > 0) {
 8083802:	2d00      	cmp	r5, #0
 8083804:	6800      	ldr	r0, [r0, #0]
 8083806:	dd04      	ble.n	8083812 <_ZN5spark6VectorIPNS_10LogHandlerENS_16DefaultAllocatorEE6insertEiS2_+0x22>
    return ::realloc(ptr, size);
 8083808:	00a9      	lsls	r1, r5, #2
 808380a:	f7fe fbb1 	bl	8081f70 <realloc>
            if (!d) {
 808380e:	b918      	cbnz	r0, 8083818 <_ZN5spark6VectorIPNS_10LogHandlerENS_16DefaultAllocatorEE6insertEiS2_+0x28>
}
 8083810:	bdf8      	pop	{r3, r4, r5, r6, r7, pc}
    ::free(ptr);
 8083812:	f7fe fba5 	bl	8081f60 <free>
        T* d = nullptr;
 8083816:	2000      	movs	r0, #0
        data_ = d;
 8083818:	6020      	str	r0, [r4, #0]
        capacity_ = n;
 808381a:	60a5      	str	r5, [r4, #8]
    T* const p = data_ + i;
 808381c:	6825      	ldr	r5, [r4, #0]
    move(p + 1, p, data_ + size_);
 808381e:	6862      	ldr	r2, [r4, #4]
    T* const p = data_ + i;
 8083820:	eb05 0186 	add.w	r1, r5, r6, lsl #2
    move(p + 1, p, data_ + size_);
 8083824:	0092      	lsls	r2, r2, #2
        ::memmove(dest, p, (end - p) * sizeof(T));
 8083826:	eba2 0286 	sub.w	r2, r2, r6, lsl #2
 808382a:	1d08      	adds	r0, r1, #4
 808382c:	f002 f9df 	bl	8085bee <memmove>
    new(p) T(std::move(value));
 8083830:	f845 7026 	str.w	r7, [r5, r6, lsl #2]
    ++size_;
 8083834:	6863      	ldr	r3, [r4, #4]
    return true;
 8083836:	2001      	movs	r0, #1
    ++size_;
 8083838:	3301      	adds	r3, #1
 808383a:	6063      	str	r3, [r4, #4]
    return true;
 808383c:	e7e8      	b.n	8083810 <_ZN5spark6VectorIPNS_10LogHandlerENS_16DefaultAllocatorEE6insertEiS2_+0x20>

0808383e <_ZN5spark10LogManager10addHandlerEPNS_10LogHandlerE>:
bool spark::LogManager::addHandler(LogHandler *handler) {
 808383e:	b537      	push	{r0, r1, r2, r4, r5, lr}
 8083840:	4604      	mov	r4, r0
    LOG_WITH_LOCK(mutex_) {
 8083842:	f100 0324 	add.w	r3, r0, #36	; 0x24
    void lock() { os_mutex_recursive_lock(handle_); }
 8083846:	6a40      	ldr	r0, [r0, #36]	; 0x24
bool spark::LogManager::addHandler(LogHandler *handler) {
 8083848:	460d      	mov	r5, r1
 808384a:	9301      	str	r3, [sp, #4]
 808384c:	f7fe f898 	bl	8081980 <os_mutex_recursive_lock>
    return find(data_, data_ + size_, value);
 8083850:	e9d4 3100 	ldrd	r3, r1, [r4]
 8083854:	eb03 0081 	add.w	r0, r3, r1, lsl #2
        for (; p != end; ++p) {
 8083858:	4283      	cmp	r3, r0
 808385a:	461a      	mov	r2, r3
 808385c:	d00a      	beq.n	8083874 <_ZN5spark10LogManager10addHandlerEPNS_10LogHandlerE+0x36>
            if (*p == value) {
 808385e:	6812      	ldr	r2, [r2, #0]
 8083860:	3304      	adds	r3, #4
 8083862:	42aa      	cmp	r2, r5
 8083864:	d1f8      	bne.n	8083858 <_ZN5spark10LogManager10addHandlerEPNS_10LogHandlerE+0x1a>
    LOG_WITH_LOCK(mutex_) {
 8083866:	a801      	add	r0, sp, #4
 8083868:	f7ff fe2f 	bl	80834ca <_ZNSt10lock_guardI14RecursiveMutexED1Ev>
            return false;
 808386c:	2500      	movs	r5, #0
}
 808386e:	4628      	mov	r0, r5
 8083870:	b003      	add	sp, #12
 8083872:	bd30      	pop	{r4, r5, pc}
    return insert(size_, std::move(value));
 8083874:	462a      	mov	r2, r5
 8083876:	4620      	mov	r0, r4
 8083878:	f7ff ffba 	bl	80837f0 <_ZN5spark6VectorIPNS_10LogHandlerENS_16DefaultAllocatorEE6insertEiS2_>
        if (activeHandlers_.contains(handler) || !activeHandlers_.append(handler)) {
 808387c:	4605      	mov	r5, r0
 808387e:	2800      	cmp	r0, #0
 8083880:	d0f1      	beq.n	8083866 <_ZN5spark10LogManager10addHandlerEPNS_10LogHandlerE+0x28>
        if (activeHandlers_.size() == 1) {
 8083882:	6863      	ldr	r3, [r4, #4]
 8083884:	2b01      	cmp	r3, #1
 8083886:	d101      	bne.n	808388c <_ZN5spark10LogManager10addHandlerEPNS_10LogHandlerE+0x4e>
            setSystemCallbacks();
 8083888:	f7ff fcfa 	bl	8083280 <_ZN5spark10LogManager18setSystemCallbacksEv>
    LOG_WITH_LOCK(mutex_) {
 808388c:	a801      	add	r0, sp, #4
 808388e:	f7ff fe1c 	bl	80834ca <_ZNSt10lock_guardI14RecursiveMutexED1Ev>
 8083892:	e7ec      	b.n	808386e <_ZN5spark10LogManager10addHandlerEPNS_10LogHandlerE+0x30>

08083894 <_ZN5spark6VectorI6StringNS_16DefaultAllocatorEE4moveIS1_Li0EEEvPS1_S5_S5_>:
        if (dest > p && dest < end) {
 8083894:	4288      	cmp	r0, r1
    static void move(T* dest, T* p, T* end) {
 8083896:	b5f8      	push	{r3, r4, r5, r6, r7, lr}
 8083898:	4604      	mov	r4, r0
 808389a:	460d      	mov	r5, r1
 808389c:	4616      	mov	r6, r2
        if (dest > p && dest < end) {
 808389e:	d914      	bls.n	80838ca <_ZN5spark6VectorI6StringNS_16DefaultAllocatorEE4moveIS1_Li0EEEvPS1_S5_S5_+0x36>
 80838a0:	4290      	cmp	r0, r2
 80838a2:	d213      	bcs.n	80838cc <_ZN5spark6VectorI6StringNS_16DefaultAllocatorEE4moveIS1_Li0EEEvPS1_S5_S5_+0x38>
            --end;
 80838a4:	f1a2 0610 	sub.w	r6, r2, #16
            dest += end - p - 1;
 80838a8:	1a75      	subs	r5, r6, r1
 80838aa:	f1a1 0710 	sub.w	r7, r1, #16
 80838ae:	442c      	add	r4, r5
            for (; end != p; --end, --dest) {
 80838b0:	42b7      	cmp	r7, r6
 80838b2:	d018      	beq.n	80838e6 <_ZN5spark6VectorI6StringNS_16DefaultAllocatorEE4moveIS1_Li0EEEvPS1_S5_S5_+0x52>
                new(dest) T(std::move(*end));
 80838b4:	b11c      	cbz	r4, 80838be <_ZN5spark6VectorI6StringNS_16DefaultAllocatorEE4moveIS1_Li0EEEvPS1_S5_S5_+0x2a>
 80838b6:	4631      	mov	r1, r6
 80838b8:	4620      	mov	r0, r4
 80838ba:	f000 fce0 	bl	808427e <_ZN6StringC1EOS_>
                end->~T();
 80838be:	4630      	mov	r0, r6
 80838c0:	f000 fc63 	bl	808418a <_ZN6StringD1Ev>
            for (; end != p; --end, --dest) {
 80838c4:	3e10      	subs	r6, #16
 80838c6:	3c10      	subs	r4, #16
 80838c8:	e7f2      	b.n	80838b0 <_ZN5spark6VectorI6StringNS_16DefaultAllocatorEE4moveIS1_Li0EEEvPS1_S5_S5_+0x1c>
        } else if (dest != p) {
 80838ca:	d00c      	beq.n	80838e6 <_ZN5spark6VectorI6StringNS_16DefaultAllocatorEE4moveIS1_Li0EEEvPS1_S5_S5_+0x52>
            for (; p != end; ++p, ++dest) {
 80838cc:	42b5      	cmp	r5, r6
 80838ce:	d00a      	beq.n	80838e6 <_ZN5spark6VectorI6StringNS_16DefaultAllocatorEE4moveIS1_Li0EEEvPS1_S5_S5_+0x52>
                new(dest) T(std::move(*p));
 80838d0:	b11c      	cbz	r4, 80838da <_ZN5spark6VectorI6StringNS_16DefaultAllocatorEE4moveIS1_Li0EEEvPS1_S5_S5_+0x46>
 80838d2:	4629      	mov	r1, r5
 80838d4:	4620      	mov	r0, r4
 80838d6:	f000 fcd2 	bl	808427e <_ZN6StringC1EOS_>
                p->~T();
 80838da:	4628      	mov	r0, r5
 80838dc:	f000 fc55 	bl	808418a <_ZN6StringD1Ev>
            for (; p != end; ++p, ++dest) {
 80838e0:	3510      	adds	r5, #16
 80838e2:	3410      	adds	r4, #16
 80838e4:	e7f2      	b.n	80838cc <_ZN5spark6VectorI6StringNS_16DefaultAllocatorEE4moveIS1_Li0EEEvPS1_S5_S5_+0x38>
    }
 80838e6:	bdf8      	pop	{r3, r4, r5, r6, r7, pc}

080838e8 <_ZN5spark6VectorI6StringNS_16DefaultAllocatorEE7reallocIS1_Li0EEEbi>:
    bool realloc(int n) {
 80838e8:	b570      	push	{r4, r5, r6, lr}
        if (n > 0) {
 80838ea:	1e0e      	subs	r6, r1, #0
    bool realloc(int n) {
 80838ec:	4605      	mov	r5, r0
        if (n > 0) {
 80838ee:	dd11      	ble.n	8083914 <_ZN5spark6VectorI6StringNS_16DefaultAllocatorEE7reallocIS1_Li0EEEbi+0x2c>
    return ::malloc(size);
 80838f0:	0130      	lsls	r0, r6, #4
 80838f2:	f7fe fb2d 	bl	8081f50 <malloc>
            if (!d) {
 80838f6:	4604      	mov	r4, r0
 80838f8:	b158      	cbz	r0, 8083912 <_ZN5spark6VectorI6StringNS_16DefaultAllocatorEE7reallocIS1_Li0EEEbi+0x2a>
            move(d, data_, data_ + size_);
 80838fa:	e9d5 1200 	ldrd	r1, r2, [r5]
 80838fe:	eb01 1202 	add.w	r2, r1, r2, lsl #4
 8083902:	f7ff ffc7 	bl	8083894 <_ZN5spark6VectorI6StringNS_16DefaultAllocatorEE4moveIS1_Li0EEEvPS1_S5_S5_>
    ::free(ptr);
 8083906:	6828      	ldr	r0, [r5, #0]
 8083908:	f7fe fb2a 	bl	8081f60 <free>
        return true;
 808390c:	2001      	movs	r0, #1
        data_ = d;
 808390e:	602c      	str	r4, [r5, #0]
        capacity_ = n;
 8083910:	60ae      	str	r6, [r5, #8]
    }
 8083912:	bd70      	pop	{r4, r5, r6, pc}
        T* d = nullptr;
 8083914:	2400      	movs	r4, #0
 8083916:	e7f6      	b.n	8083906 <_ZN5spark6VectorI6StringNS_16DefaultAllocatorEE7reallocIS1_Li0EEEbi+0x1e>

08083918 <_ZN5spark6detail9LogFilterC1E8LogLevelNS_6VectorINS_17LogCategoryFilterENS_16DefaultAllocatorEEE>:
spark::detail::LogFilter::LogFilter(LogLevel level, LogCategoryFilters filters) :
 8083918:	e92d 4ff0 	stmdb	sp!, {r4, r5, r6, r7, r8, r9, sl, fp, lr}
 808391c:	4691      	mov	r9, r2
        capacity_(0) {
 808391e:	2300      	movs	r3, #0
        level_(LOG_LEVEL_NONE) { // Fallback level that will be used in case of construction errors
 8083920:	2246      	movs	r2, #70	; 0x46
spark::detail::LogFilter::LogFilter(LogLevel level, LogCategoryFilters filters) :
 8083922:	b097      	sub	sp, #92	; 0x5c
 8083924:	9103      	str	r1, [sp, #12]
    if (!cats.reserve(filters.size())) {
 8083926:	f8d9 1004 	ldr.w	r1, [r9, #4]
spark::detail::LogFilter::LogFilter(LogLevel level, LogCategoryFilters filters) :
 808392a:	4604      	mov	r4, r0
    if (n > capacity_ && !realloc(n)) {
 808392c:	4299      	cmp	r1, r3
        capacity_(0) {
 808392e:	e9c0 3300 	strd	r3, r3, [r0]
 8083932:	e9c0 3302 	strd	r3, r3, [r0, #8]
 8083936:	e9c0 3304 	strd	r3, r3, [r0, #16]
 808393a:	e9cd 330a 	strd	r3, r3, [sp, #40]	; 0x28
        level_(LOG_LEVEL_NONE) { // Fallback level that will be used in case of construction errors
 808393e:	7602      	strb	r2, [r0, #24]
 8083940:	930c      	str	r3, [sp, #48]	; 0x30
    if (n > capacity_ && !realloc(n)) {
 8083942:	dc23      	bgt.n	808398c <_ZN5spark6detail9LogFilterC1E8LogLevelNS_6VectorINS_17LogCategoryFilterENS_16DefaultAllocatorEEE+0x74>
    return data_ + size_;
 8083944:	e9d9 5700 	ldrd	r5, r7, [r9]
 8083948:	2314      	movs	r3, #20
 808394a:	fb03 5707 	mla	r7, r3, r7, r5
    for (LogCategoryFilter &filter: filters) {
 808394e:	42af      	cmp	r7, r5
 8083950:	d03b      	beq.n	80839ca <_ZN5spark6detail9LogFilterC1E8LogLevelNS_6VectorINS_17LogCategoryFilterENS_16DefaultAllocatorEEE+0xb2>
        cats.append(std::move(filter.cat_));
 8083952:	4629      	mov	r1, r5
 8083954:	a80d      	add	r0, sp, #52	; 0x34
 8083956:	f000 fc92 	bl	808427e <_ZN6StringC1EOS_>
    return insert(size_, std::move(value));
 808395a:	a90d      	add	r1, sp, #52	; 0x34
 808395c:	a811      	add	r0, sp, #68	; 0x44
 808395e:	9e0b      	ldr	r6, [sp, #44]	; 0x2c
 8083960:	f000 fc8d 	bl	808427e <_ZN6StringC1EOS_>
    if (size_ + 1 > capacity_ && !realloc(size_ + 1)) {
 8083964:	e9dd 130b 	ldrd	r1, r3, [sp, #44]	; 0x2c
 8083968:	4299      	cmp	r1, r3
 808396a:	da1b      	bge.n	80839a4 <_ZN5spark6detail9LogFilterC1E8LogLevelNS_6VectorINS_17LogCategoryFilterENS_16DefaultAllocatorEEE+0x8c>
    T* const p = data_ + i;
 808396c:	9b0a      	ldr	r3, [sp, #40]	; 0x28
    move(p + 1, p, data_ + size_);
 808396e:	9a0b      	ldr	r2, [sp, #44]	; 0x2c
    T* const p = data_ + i;
 8083970:	eb03 1606 	add.w	r6, r3, r6, lsl #4
    move(p + 1, p, data_ + size_);
 8083974:	4631      	mov	r1, r6
 8083976:	eb03 1202 	add.w	r2, r3, r2, lsl #4
 808397a:	f106 0010 	add.w	r0, r6, #16
 808397e:	f7ff ff89 	bl	8083894 <_ZN5spark6VectorI6StringNS_16DefaultAllocatorEE4moveIS1_Li0EEEvPS1_S5_S5_>
    new(p) T(std::move(value));
 8083982:	b9ee      	cbnz	r6, 80839c0 <_ZN5spark6detail9LogFilterC1E8LogLevelNS_6VectorINS_17LogCategoryFilterENS_16DefaultAllocatorEEE+0xa8>
    ++size_;
 8083984:	9b0b      	ldr	r3, [sp, #44]	; 0x2c
 8083986:	3301      	adds	r3, #1
 8083988:	930b      	str	r3, [sp, #44]	; 0x2c
    return true;
 808398a:	e011      	b.n	80839b0 <_ZN5spark6detail9LogFilterC1E8LogLevelNS_6VectorINS_17LogCategoryFilterENS_16DefaultAllocatorEEE+0x98>
    if (n > capacity_ && !realloc(n)) {
 808398c:	a80a      	add	r0, sp, #40	; 0x28
 808398e:	f7ff ffab 	bl	80838e8 <_ZN5spark6VectorI6StringNS_16DefaultAllocatorEE7reallocIS1_Li0EEEbi>
 8083992:	2800      	cmp	r0, #0
 8083994:	d1d6      	bne.n	8083944 <_ZN5spark6detail9LogFilterC1E8LogLevelNS_6VectorINS_17LogCategoryFilterENS_16DefaultAllocatorEEE+0x2c>
    Vector<String> cats;
 8083996:	a80a      	add	r0, sp, #40	; 0x28
 8083998:	f7ff fd42 	bl	8083420 <_ZN5spark6VectorI6StringNS_16DefaultAllocatorEED1Ev>
}
 808399c:	4620      	mov	r0, r4
 808399e:	b017      	add	sp, #92	; 0x5c
 80839a0:	e8bd 8ff0 	ldmia.w	sp!, {r4, r5, r6, r7, r8, r9, sl, fp, pc}
    if (size_ + 1 > capacity_ && !realloc(size_ + 1)) {
 80839a4:	3101      	adds	r1, #1
 80839a6:	a80a      	add	r0, sp, #40	; 0x28
 80839a8:	f7ff ff9e 	bl	80838e8 <_ZN5spark6VectorI6StringNS_16DefaultAllocatorEE7reallocIS1_Li0EEEbi>
 80839ac:	2800      	cmp	r0, #0
 80839ae:	d1dd      	bne.n	808396c <_ZN5spark6detail9LogFilterC1E8LogLevelNS_6VectorINS_17LogCategoryFilterENS_16DefaultAllocatorEEE+0x54>
    return insert(size_, std::move(value));
 80839b0:	a811      	add	r0, sp, #68	; 0x44
 80839b2:	f000 fbea 	bl	808418a <_ZN6StringD1Ev>
        cats.append(std::move(filter.cat_));
 80839b6:	a80d      	add	r0, sp, #52	; 0x34
 80839b8:	f000 fbe7 	bl	808418a <_ZN6StringD1Ev>
    for (LogCategoryFilter &filter: filters) {
 80839bc:	3514      	adds	r5, #20
 80839be:	e7c6      	b.n	808394e <_ZN5spark6detail9LogFilterC1E8LogLevelNS_6VectorINS_17LogCategoryFilterENS_16DefaultAllocatorEEE+0x36>
    new(p) T(std::move(value));
 80839c0:	4630      	mov	r0, r6
 80839c2:	a911      	add	r1, sp, #68	; 0x44
 80839c4:	f000 fc5b 	bl	808427e <_ZN6StringC1EOS_>
 80839c8:	e7dc      	b.n	8083984 <_ZN5spark6detail9LogFilterC1E8LogLevelNS_6VectorINS_17LogCategoryFilterENS_16DefaultAllocatorEEE+0x6c>
        capacity_(0) {
 80839ca:	2600      	movs	r6, #0
 80839cc:	f04f 0a14 	mov.w	sl, #20
        size_t size = 0; // Name length
 80839d0:	4637      	mov	r7, r6
 80839d2:	e9cd 660d 	strd	r6, r6, [sp, #52]	; 0x34
 80839d6:	960f      	str	r6, [sp, #60]	; 0x3c
    for (int i = 0; i < cats.size(); ++i) {
 80839d8:	e9dd 230a 	ldrd	r2, r3, [sp, #40]	; 0x28
 80839dc:	429e      	cmp	r6, r3
 80839de:	f280 8097 	bge.w	8083b10 <_ZN5spark6detail9LogFilterC1E8LogLevelNS_6VectorINS_17LogCategoryFilterENS_16DefaultAllocatorEEE+0x1f8>
        const char *category = cats.at(i).c_str();
 80839e2:	0133      	lsls	r3, r6, #4
 80839e4:	58d3      	ldr	r3, [r2, r3]
 80839e6:	9308      	str	r3, [sp, #32]
        if (!category) {
 80839e8:	b90b      	cbnz	r3, 80839ee <_ZN5spark6detail9LogFilterC1E8LogLevelNS_6VectorINS_17LogCategoryFilterENS_16DefaultAllocatorEEE+0xd6>
    for (int i = 0; i < cats.size(); ++i) {
 80839ea:	3601      	adds	r6, #1
 80839ec:	e7f4      	b.n	80839d8 <_ZN5spark6detail9LogFilterC1E8LogLevelNS_6VectorINS_17LogCategoryFilterENS_16DefaultAllocatorEEE+0xc0>
        size_t size = 0; // Name length
 80839ee:	fb0a f306 	mul.w	r3, sl, r6
 80839f2:	9709      	str	r7, [sp, #36]	; 0x24
 80839f4:	9302      	str	r3, [sp, #8]
        Vector<Node> *pNodes = &nodes; // Root nodes
 80839f6:	ad0d      	add	r5, sp, #52	; 0x34
        while ((name = nextSubcategoryName(category, size))) {
 80839f8:	a909      	add	r1, sp, #36	; 0x24
 80839fa:	a808      	add	r0, sp, #32
 80839fc:	f7ff fae7 	bl	8082fce <_ZN12_GLOBAL__N_119nextSubcategoryNameERPKcRj>
 8083a00:	4683      	mov	fp, r0
 8083a02:	2800      	cmp	r0, #0
 8083a04:	d0f1      	beq.n	80839ea <_ZN5spark6detail9LogFilterC1E8LogLevelNS_6VectorINS_17LogCategoryFilterENS_16DefaultAllocatorEEE+0xd2>
            const int index = nodeIndex(*pNodes, name, size, found);
 8083a06:	4601      	mov	r1, r0
 8083a08:	9a09      	ldr	r2, [sp, #36]	; 0x24
 8083a0a:	4628      	mov	r0, r5
 8083a0c:	f10d 031f 	add.w	r3, sp, #31
            bool found = false;
 8083a10:	f88d 701f 	strb.w	r7, [sp, #31]
            const int index = nodeIndex(*pNodes, name, size, found);
 8083a14:	f7ff fb66 	bl	80830e4 <_ZN5spark6detail9LogFilter9nodeIndexERKNS_6VectorINS1_4NodeENS_16DefaultAllocatorEEEPKcjRb>
            if (!found && !pNodes->insert(index, Node(name, size))) { // Add node
 8083a18:	f89d 801f 	ldrb.w	r8, [sp, #31]
            const int index = nodeIndex(*pNodes, name, size, found);
 8083a1c:	9001      	str	r0, [sp, #4]
            if (!found && !pNodes->insert(index, Node(name, size))) { // Add node
 8083a1e:	f1b8 0f00 	cmp.w	r8, #0
 8083a22:	d166      	bne.n	8083af2 <_ZN5spark6detail9LogFilterC1E8LogLevelNS_6VectorINS_17LogCategoryFilterENS_16DefaultAllocatorEEE+0x1da>
 8083a24:	f8bd 3024 	ldrh.w	r3, [sp, #36]	; 0x24
 8083a28:	e9cd 8813 	strd	r8, r8, [sp, #76]	; 0x4c
            level(-1) {
 8083a2c:	f8ad 3048 	strh.w	r3, [sp, #72]	; 0x48
 8083a30:	f64f 73ff 	movw	r3, #65535	; 0xffff
 8083a34:	f8cd b044 	str.w	fp, [sp, #68]	; 0x44
 8083a38:	f8ad 304a 	strh.w	r3, [sp, #74]	; 0x4a
 8083a3c:	f8cd 8054 	str.w	r8, [sp, #84]	; 0x54
    if (size_ + 1 > capacity_ && !realloc(size_ + 1)) {
 8083a40:	e9d5 3201 	ldrd	r3, r2, [r5, #4]
 8083a44:	4293      	cmp	r3, r2
 8083a46:	db1a      	blt.n	8083a7e <_ZN5spark6detail9LogFilterC1E8LogLevelNS_6VectorINS_17LogCategoryFilterENS_16DefaultAllocatorEEE+0x166>
 8083a48:	f103 0b01 	add.w	fp, r3, #1
        if (n > 0) {
 8083a4c:	f1bb 0f00 	cmp.w	fp, #0
 8083a50:	dd4a      	ble.n	8083ae8 <_ZN5spark6detail9LogFilterC1E8LogLevelNS_6VectorINS_17LogCategoryFilterENS_16DefaultAllocatorEEE+0x1d0>
    return ::malloc(size);
 8083a52:	fb0a f00b 	mul.w	r0, sl, fp
 8083a56:	f7fe fa7b 	bl	8081f50 <malloc>
            if (!d) {
 8083a5a:	9004      	str	r0, [sp, #16]
 8083a5c:	2800      	cmp	r0, #0
 8083a5e:	d045      	beq.n	8083aec <_ZN5spark6detail9LogFilterC1E8LogLevelNS_6VectorINS_17LogCategoryFilterENS_16DefaultAllocatorEEE+0x1d4>
            move(d, data_, data_ + size_);
 8083a60:	e9d5 1200 	ldrd	r1, r2, [r5]
 8083a64:	fb0a 1202 	mla	r2, sl, r2, r1
 8083a68:	f7ff fe72 	bl	8083750 <_ZN5spark6VectorINS_6detail9LogFilter4NodeENS_16DefaultAllocatorEE4moveIS3_Li0EEEvPS3_S7_S7_>
 8083a6c:	9b04      	ldr	r3, [sp, #16]
    ::free(ptr);
 8083a6e:	6828      	ldr	r0, [r5, #0]
 8083a70:	9304      	str	r3, [sp, #16]
 8083a72:	f7fe fa75 	bl	8081f60 <free>
        data_ = d;
 8083a76:	9b04      	ldr	r3, [sp, #16]
        capacity_ = n;
 8083a78:	f8c5 b008 	str.w	fp, [r5, #8]
        data_ = d;
 8083a7c:	602b      	str	r3, [r5, #0]
    T* const p = data_ + i;
 8083a7e:	9b01      	ldr	r3, [sp, #4]
 8083a80:	f8d5 b000 	ldr.w	fp, [r5]
 8083a84:	fb0a f303 	mul.w	r3, sl, r3
    move(p + 1, p, data_ + size_);
 8083a88:	686a      	ldr	r2, [r5, #4]
    T* const p = data_ + i;
 8083a8a:	eb0b 0103 	add.w	r1, fp, r3
    move(p + 1, p, data_ + size_);
 8083a8e:	f101 0014 	add.w	r0, r1, #20
 8083a92:	fb0a b202 	mla	r2, sl, r2, fp
 8083a96:	9104      	str	r1, [sp, #16]
    T* const p = data_ + i;
 8083a98:	9305      	str	r3, [sp, #20]
    move(p + 1, p, data_ + size_);
 8083a9a:	f7ff fe59 	bl	8083750 <_ZN5spark6VectorINS_6detail9LogFilter4NodeENS_16DefaultAllocatorEE4moveIS3_Li0EEEvPS3_S7_S7_>
    new(p) T(std::move(value));
 8083a9e:	9904      	ldr	r1, [sp, #16]
 8083aa0:	b1a9      	cbz	r1, 8083ace <_ZN5spark6detail9LogFilterC1E8LogLevelNS_6VectorINS_17LogCategoryFilterENS_16DefaultAllocatorEEE+0x1b6>
struct spark::detail::LogFilter::Node {
 8083aa2:	9a11      	ldr	r2, [sp, #68]	; 0x44
 8083aa4:	9b05      	ldr	r3, [sp, #20]
 8083aa6:	f84b 2003 	str.w	r2, [fp, r3]
 8083aaa:	f8bd 3048 	ldrh.w	r3, [sp, #72]	; 0x48
 8083aae:	808b      	strh	r3, [r1, #4]
 8083ab0:	f9bd 304a 	ldrsh.w	r3, [sp, #74]	; 0x4a
        capacity_(0) {
 8083ab4:	e9c1 7702 	strd	r7, r7, [r1, #8]
 8083ab8:	610f      	str	r7, [r1, #16]
 8083aba:	80cb      	strh	r3, [r1, #6]
      __a = _GLIBCXX_MOVE(__b);
 8083abc:	9b13      	ldr	r3, [sp, #76]	; 0x4c
 8083abe:	608b      	str	r3, [r1, #8]
 8083ac0:	9b14      	ldr	r3, [sp, #80]	; 0x50
      __b = _GLIBCXX_MOVE(__tmp);
 8083ac2:	9713      	str	r7, [sp, #76]	; 0x4c
      __a = _GLIBCXX_MOVE(__b);
 8083ac4:	60cb      	str	r3, [r1, #12]
 8083ac6:	9b15      	ldr	r3, [sp, #84]	; 0x54
      __b = _GLIBCXX_MOVE(__tmp);
 8083ac8:	9714      	str	r7, [sp, #80]	; 0x50
      __a = _GLIBCXX_MOVE(__b);
 8083aca:	610b      	str	r3, [r1, #16]
      __b = _GLIBCXX_MOVE(__tmp);
 8083acc:	9715      	str	r7, [sp, #84]	; 0x54
    ++size_;
 8083ace:	686b      	ldr	r3, [r5, #4]
 8083ad0:	3301      	adds	r3, #1
 8083ad2:	606b      	str	r3, [r5, #4]
 8083ad4:	a813      	add	r0, sp, #76	; 0x4c
 8083ad6:	f7ff fc8f 	bl	80833f8 <_ZN5spark6VectorINS_6detail9LogFilter4NodeENS_16DefaultAllocatorEED1Ev>
            if (!found && !pNodes->insert(index, Node(name, size))) { // Add node
 8083ada:	f1b8 0f00 	cmp.w	r8, #0
 8083ade:	d008      	beq.n	8083af2 <_ZN5spark6detail9LogFilterC1E8LogLevelNS_6VectorINS_17LogCategoryFilterENS_16DefaultAllocatorEEE+0x1da>
    Vector<Node> nodes;
 8083ae0:	a80d      	add	r0, sp, #52	; 0x34
 8083ae2:	f7ff fc89 	bl	80833f8 <_ZN5spark6VectorINS_6detail9LogFilter4NodeENS_16DefaultAllocatorEED1Ev>
 8083ae6:	e756      	b.n	8083996 <_ZN5spark6detail9LogFilterC1E8LogLevelNS_6VectorINS_17LogCategoryFilterENS_16DefaultAllocatorEEE+0x7e>
        T* d = nullptr;
 8083ae8:	4643      	mov	r3, r8
 8083aea:	e7c0      	b.n	8083a6e <_ZN5spark6detail9LogFilterC1E8LogLevelNS_6VectorINS_17LogCategoryFilterENS_16DefaultAllocatorEEE+0x156>
            if (!found && !pNodes->insert(index, Node(name, size))) { // Add node
 8083aec:	f04f 0801 	mov.w	r8, #1
 8083af0:	e7f0      	b.n	8083ad4 <_ZN5spark6detail9LogFilterC1E8LogLevelNS_6VectorINS_17LogCategoryFilterENS_16DefaultAllocatorEEE+0x1bc>
    return data_[i];
 8083af2:	9b01      	ldr	r3, [sp, #4]
 8083af4:	682d      	ldr	r5, [r5, #0]
 8083af6:	fb0a 5503 	mla	r5, sl, r3, r5
            if (!*category) { // Check if it's last subcategory
 8083afa:	9b08      	ldr	r3, [sp, #32]
 8083afc:	781b      	ldrb	r3, [r3, #0]
 8083afe:	b92b      	cbnz	r3, 8083b0c <_ZN5spark6detail9LogFilterC1E8LogLevelNS_6VectorINS_17LogCategoryFilterENS_16DefaultAllocatorEEE+0x1f4>
                node.level = filters.at(i).level_;
 8083b00:	f8d9 3000 	ldr.w	r3, [r9]
 8083b04:	9a02      	ldr	r2, [sp, #8]
 8083b06:	4413      	add	r3, r2
 8083b08:	7c1b      	ldrb	r3, [r3, #16]
 8083b0a:	80eb      	strh	r3, [r5, #6]
            pNodes = &node.nodes;
 8083b0c:	3508      	adds	r5, #8
        while ((name = nextSubcategoryName(category, size))) {
 8083b0e:	e773      	b.n	80839f8 <_ZN5spark6detail9LogFilterC1E8LogLevelNS_6VectorINS_17LogCategoryFilterENS_16DefaultAllocatorEEE+0xe0>
      _Tp __tmp = _GLIBCXX_MOVE(__a);
 8083b10:	6821      	ldr	r1, [r4, #0]
      __a = _GLIBCXX_MOVE(__b);
 8083b12:	6022      	str	r2, [r4, #0]
      _Tp __tmp = _GLIBCXX_MOVE(__a);
 8083b14:	6862      	ldr	r2, [r4, #4]
      __a = _GLIBCXX_MOVE(__b);
 8083b16:	6063      	str	r3, [r4, #4]
      _Tp __tmp = _GLIBCXX_MOVE(__a);
 8083b18:	68a3      	ldr	r3, [r4, #8]
      __b = _GLIBCXX_MOVE(__tmp);
 8083b1a:	920b      	str	r2, [sp, #44]	; 0x2c
      __a = _GLIBCXX_MOVE(__b);
 8083b1c:	9a0c      	ldr	r2, [sp, #48]	; 0x30
      __b = _GLIBCXX_MOVE(__tmp);
 8083b1e:	930c      	str	r3, [sp, #48]	; 0x30
      _Tp __tmp = _GLIBCXX_MOVE(__a);
 8083b20:	68e3      	ldr	r3, [r4, #12]
      __a = _GLIBCXX_MOVE(__b);
 8083b22:	60a2      	str	r2, [r4, #8]
 8083b24:	9a0d      	ldr	r2, [sp, #52]	; 0x34
      __b = _GLIBCXX_MOVE(__tmp);
 8083b26:	930d      	str	r3, [sp, #52]	; 0x34
      _Tp __tmp = _GLIBCXX_MOVE(__a);
 8083b28:	6923      	ldr	r3, [r4, #16]
      __a = _GLIBCXX_MOVE(__b);
 8083b2a:	60e2      	str	r2, [r4, #12]
 8083b2c:	9a0e      	ldr	r2, [sp, #56]	; 0x38
      __b = _GLIBCXX_MOVE(__tmp);
 8083b2e:	930e      	str	r3, [sp, #56]	; 0x38
      _Tp __tmp = _GLIBCXX_MOVE(__a);
 8083b30:	6963      	ldr	r3, [r4, #20]
      __a = _GLIBCXX_MOVE(__b);
 8083b32:	6122      	str	r2, [r4, #16]
 8083b34:	9a0f      	ldr	r2, [sp, #60]	; 0x3c
      __b = _GLIBCXX_MOVE(__tmp);
 8083b36:	930f      	str	r3, [sp, #60]	; 0x3c
    level_ = level;
 8083b38:	9b03      	ldr	r3, [sp, #12]
 8083b3a:	910a      	str	r1, [sp, #40]	; 0x28
      __a = _GLIBCXX_MOVE(__b);
 8083b3c:	6162      	str	r2, [r4, #20]
 8083b3e:	7623      	strb	r3, [r4, #24]
 8083b40:	e7ce      	b.n	8083ae0 <_ZN5spark6detail9LogFilterC1E8LogLevelNS_6VectorINS_17LogCategoryFilterENS_16DefaultAllocatorEEE+0x1c8>
	...

08083b44 <_ZN5spark10LogHandlerC1E8LogLevelNS_6VectorINS_17LogCategoryFilterENS_16DefaultAllocatorEEE>:
inline spark::LogHandler::LogHandler(LogLevel level, LogCategoryFilters filters) :
 8083b44:	b57f      	push	{r0, r1, r2, r3, r4, r5, r6, lr}
        filter_(level, filters) {
 8083b46:	4605      	mov	r5, r0
inline spark::LogHandler::LogHandler(LogLevel level, LogCategoryFilters filters) :
 8083b48:	460e      	mov	r6, r1
 8083b4a:	4604      	mov	r4, r0
        filter_(level, filters) {
 8083b4c:	4b08      	ldr	r3, [pc, #32]	; (8083b70 <_ZN5spark10LogHandlerC1E8LogLevelNS_6VectorINS_17LogCategoryFilterENS_16DefaultAllocatorEEE+0x2c>)
 8083b4e:	4611      	mov	r1, r2
 8083b50:	f845 3b04 	str.w	r3, [r5], #4
 8083b54:	a801      	add	r0, sp, #4
 8083b56:	f7fd fe49 	bl	80817ec <_ZN5spark6VectorINS_17LogCategoryFilterENS_16DefaultAllocatorEEC1ERKS3_>
 8083b5a:	4631      	mov	r1, r6
 8083b5c:	aa01      	add	r2, sp, #4
 8083b5e:	4628      	mov	r0, r5
 8083b60:	f7ff feda 	bl	8083918 <_ZN5spark6detail9LogFilterC1E8LogLevelNS_6VectorINS_17LogCategoryFilterENS_16DefaultAllocatorEEE>
 8083b64:	a801      	add	r0, sp, #4
 8083b66:	f7fd fc83 	bl	8081470 <_ZN5spark6VectorINS_17LogCategoryFilterENS_16DefaultAllocatorEED1Ev>
}
 8083b6a:	4620      	mov	r0, r4
 8083b6c:	b004      	add	sp, #16
 8083b6e:	bd70      	pop	{r4, r5, r6, pc}
 8083b70:	08086364 	.word	0x08086364

08083b74 <_ZN5spark24DefaultLogHandlerFactory13createHandlerEPKc8LogLevelNS_6VectorINS_17LogCategoryFilterENS_16DefaultAllocatorEEEP5PrintRKNS_9JSONValueE>:
            Print *stream, const JSONValue &params) {
 8083b74:	b5f0      	push	{r4, r5, r6, r7, lr}
 8083b76:	460f      	mov	r7, r1
 8083b78:	b087      	sub	sp, #28
    if (strcmp(type, "JSONStreamLogHandler") == 0) {
 8083b7a:	4638      	mov	r0, r7
 8083b7c:	4925      	ldr	r1, [pc, #148]	; (8083c14 <_ZN5spark24DefaultLogHandlerFactory13createHandlerEPKc8LogLevelNS_6VectorINS_17LogCategoryFilterENS_16DefaultAllocatorEEEP5PrintRKNS_9JSONValueE+0xa0>)
            Print *stream, const JSONValue &params) {
 8083b7e:	4616      	mov	r6, r2
 8083b80:	461d      	mov	r5, r3
 8083b82:	9c0c      	ldr	r4, [sp, #48]	; 0x30
    if (strcmp(type, "JSONStreamLogHandler") == 0) {
 8083b84:	f002 f8a0 	bl	8085cc8 <strcmp>
 8083b88:	bb00      	cbnz	r0, 8083bcc <_ZN5spark24DefaultLogHandlerFactory13createHandlerEPKc8LogLevelNS_6VectorINS_17LogCategoryFilterENS_16DefaultAllocatorEEEP5PrintRKNS_9JSONValueE+0x58>
        if (!stream) {
 8083b8a:	b1e4      	cbz	r4, 8083bc6 <_ZN5spark24DefaultLogHandlerFactory13createHandlerEPKc8LogLevelNS_6VectorINS_17LogCategoryFilterENS_16DefaultAllocatorEEEP5PrintRKNS_9JSONValueE+0x52>
        return new(std::nothrow) JSONStreamLogHandler(*stream, level, std::move(filters));
 8083b8c:	4629      	mov	r1, r5
 8083b8e:	4668      	mov	r0, sp
 8083b90:	f7ff fc8c 	bl	80834ac <_ZN5spark6VectorINS_17LogCategoryFilterENS_16DefaultAllocatorEEC1EOS3_>
 8083b94:	2024      	movs	r0, #36	; 0x24
 8083b96:	4920      	ldr	r1, [pc, #128]	; (8083c18 <_ZN5spark24DefaultLogHandlerFactory13createHandlerEPKc8LogLevelNS_6VectorINS_17LogCategoryFilterENS_16DefaultAllocatorEEEP5PrintRKNS_9JSONValueE+0xa4>)
 8083b98:	f001 f848 	bl	8084c2c <_ZnwjRKSt9nothrow_t>
 8083b9c:	4605      	mov	r5, r0
 8083b9e:	b170      	cbz	r0, 8083bbe <_ZN5spark24DefaultLogHandlerFactory13createHandlerEPKc8LogLevelNS_6VectorINS_17LogCategoryFilterENS_16DefaultAllocatorEEEP5PrintRKNS_9JSONValueE+0x4a>
        stream_(&stream) {
 8083ba0:	4669      	mov	r1, sp
 8083ba2:	a803      	add	r0, sp, #12
 8083ba4:	f7fd fe22 	bl	80817ec <_ZN5spark6VectorINS_17LogCategoryFilterENS_16DefaultAllocatorEEC1ERKS3_>
 8083ba8:	4631      	mov	r1, r6
 8083baa:	aa03      	add	r2, sp, #12
 8083bac:	4628      	mov	r0, r5
 8083bae:	f7ff ffc9 	bl	8083b44 <_ZN5spark10LogHandlerC1E8LogLevelNS_6VectorINS_17LogCategoryFilterENS_16DefaultAllocatorEEE>
 8083bb2:	a803      	add	r0, sp, #12
 8083bb4:	f7fd fc5c 	bl	8081470 <_ZN5spark6VectorINS_17LogCategoryFilterENS_16DefaultAllocatorEED1Ev>
    using StreamLogHandler::StreamLogHandler;
 8083bb8:	4b18      	ldr	r3, [pc, #96]	; (8083c1c <_ZN5spark24DefaultLogHandlerFactory13createHandlerEPKc8LogLevelNS_6VectorINS_17LogCategoryFilterENS_16DefaultAllocatorEEEP5PrintRKNS_9JSONValueE+0xa8>)
        stream_(&stream) {
 8083bba:	622c      	str	r4, [r5, #32]
    using StreamLogHandler::StreamLogHandler;
 8083bbc:	602b      	str	r3, [r5, #0]
        return new(std::nothrow) StreamLogHandler(*stream, level, std::move(filters));
 8083bbe:	4668      	mov	r0, sp
 8083bc0:	f7fd fc56 	bl	8081470 <_ZN5spark6VectorINS_17LogCategoryFilterENS_16DefaultAllocatorEED1Ev>
 8083bc4:	462c      	mov	r4, r5
}
 8083bc6:	4620      	mov	r0, r4
 8083bc8:	b007      	add	sp, #28
 8083bca:	bdf0      	pop	{r4, r5, r6, r7, pc}
    } else if (strcmp(type, "StreamLogHandler") == 0) {
 8083bcc:	4638      	mov	r0, r7
 8083bce:	4914      	ldr	r1, [pc, #80]	; (8083c20 <_ZN5spark24DefaultLogHandlerFactory13createHandlerEPKc8LogLevelNS_6VectorINS_17LogCategoryFilterENS_16DefaultAllocatorEEEP5PrintRKNS_9JSONValueE+0xac>)
 8083bd0:	f002 f87a 	bl	8085cc8 <strcmp>
 8083bd4:	b9e0      	cbnz	r0, 8083c10 <_ZN5spark24DefaultLogHandlerFactory13createHandlerEPKc8LogLevelNS_6VectorINS_17LogCategoryFilterENS_16DefaultAllocatorEEEP5PrintRKNS_9JSONValueE+0x9c>
        if (!stream) {
 8083bd6:	2c00      	cmp	r4, #0
 8083bd8:	d0f5      	beq.n	8083bc6 <_ZN5spark24DefaultLogHandlerFactory13createHandlerEPKc8LogLevelNS_6VectorINS_17LogCategoryFilterENS_16DefaultAllocatorEEEP5PrintRKNS_9JSONValueE+0x52>
        return new(std::nothrow) StreamLogHandler(*stream, level, std::move(filters));
 8083bda:	4629      	mov	r1, r5
 8083bdc:	4668      	mov	r0, sp
 8083bde:	f7ff fc65 	bl	80834ac <_ZN5spark6VectorINS_17LogCategoryFilterENS_16DefaultAllocatorEEC1EOS3_>
 8083be2:	2024      	movs	r0, #36	; 0x24
 8083be4:	490c      	ldr	r1, [pc, #48]	; (8083c18 <_ZN5spark24DefaultLogHandlerFactory13createHandlerEPKc8LogLevelNS_6VectorINS_17LogCategoryFilterENS_16DefaultAllocatorEEEP5PrintRKNS_9JSONValueE+0xa4>)
 8083be6:	f001 f821 	bl	8084c2c <_ZnwjRKSt9nothrow_t>
 8083bea:	4605      	mov	r5, r0
 8083bec:	2800      	cmp	r0, #0
 8083bee:	d0e6      	beq.n	8083bbe <_ZN5spark24DefaultLogHandlerFactory13createHandlerEPKc8LogLevelNS_6VectorINS_17LogCategoryFilterENS_16DefaultAllocatorEEEP5PrintRKNS_9JSONValueE+0x4a>
        stream_(&stream) {
 8083bf0:	4669      	mov	r1, sp
 8083bf2:	a803      	add	r0, sp, #12
 8083bf4:	f7fd fdfa 	bl	80817ec <_ZN5spark6VectorINS_17LogCategoryFilterENS_16DefaultAllocatorEEC1ERKS3_>
 8083bf8:	4631      	mov	r1, r6
 8083bfa:	aa03      	add	r2, sp, #12
 8083bfc:	4628      	mov	r0, r5
 8083bfe:	f7ff ffa1 	bl	8083b44 <_ZN5spark10LogHandlerC1E8LogLevelNS_6VectorINS_17LogCategoryFilterENS_16DefaultAllocatorEEE>
 8083c02:	a803      	add	r0, sp, #12
 8083c04:	f7fd fc34 	bl	8081470 <_ZN5spark6VectorINS_17LogCategoryFilterENS_16DefaultAllocatorEED1Ev>
 8083c08:	4b06      	ldr	r3, [pc, #24]	; (8083c24 <_ZN5spark24DefaultLogHandlerFactory13createHandlerEPKc8LogLevelNS_6VectorINS_17LogCategoryFilterENS_16DefaultAllocatorEEEP5PrintRKNS_9JSONValueE+0xb0>)
 8083c0a:	622c      	str	r4, [r5, #32]
 8083c0c:	602b      	str	r3, [r5, #0]
}
 8083c0e:	e7d6      	b.n	8083bbe <_ZN5spark24DefaultLogHandlerFactory13createHandlerEPKc8LogLevelNS_6VectorINS_17LogCategoryFilterENS_16DefaultAllocatorEEEP5PrintRKNS_9JSONValueE+0x4a>
            return nullptr; // Output stream is not specified
 8083c10:	2400      	movs	r4, #0
 8083c12:	e7d8      	b.n	8083bc6 <_ZN5spark24DefaultLogHandlerFactory13createHandlerEPKc8LogLevelNS_6VectorINS_17LogCategoryFilterENS_16DefaultAllocatorEEEP5PrintRKNS_9JSONValueE+0x52>
 8083c14:	080864a7 	.word	0x080864a7
 8083c18:	08086630 	.word	0x08086630
 8083c1c:	08086538 	.word	0x08086538
 8083c20:	080864ab 	.word	0x080864ab
 8083c24:	08086520 	.word	0x08086520

08083c28 <_GLOBAL__sub_I__ZN5spark3LogE>:
        name_(name) {
 8083c28:	4b01      	ldr	r3, [pc, #4]	; (8083c30 <_GLOBAL__sub_I__ZN5spark3LogE+0x8>)
 8083c2a:	4a02      	ldr	r2, [pc, #8]	; (8083c34 <_GLOBAL__sub_I__ZN5spark3LogE+0xc>)
 8083c2c:	601a      	str	r2, [r3, #0]
#if Wiring_LogConfig

// spark::
void spark::logProcessControlRequest(ctrl_request* req) {
    JSONRequestHandler::process(req);
}
 8083c2e:	4770      	bx	lr
 8083c30:	200001d8 	.word	0x200001d8
 8083c34:	080864bc 	.word	0x080864bc

08083c38 <_ZN5spark16StreamLogHandler10logMessageEPKc8LogLevelS2_RK13LogAttributes>:
void spark::StreamLogHandler::logMessage(const char *msg, LogLevel level, const char *category, const LogAttributes &attr) {
 8083c38:	e92d 47f0 	stmdb	sp!, {r4, r5, r6, r7, r8, r9, sl, lr}
 8083c3c:	9d08      	ldr	r5, [sp, #32]
    if (stream_ == &Serial && Network.listening()) {
 8083c3e:	f8d0 9020 	ldr.w	r9, [r0, #32]
void spark::StreamLogHandler::logMessage(const char *msg, LogLevel level, const char *category, const LogAttributes &attr) {
 8083c42:	4604      	mov	r4, r0
 8083c44:	460e      	mov	r6, r1
 8083c46:	4617      	mov	r7, r2
 8083c48:	4698      	mov	r8, r3
    if (stream_ == &Serial && Network.listening()) {
 8083c4a:	f000 fdcb 	bl	80847e4 <_Z16_fetch_usbserialv>
 8083c4e:	4581      	cmp	r9, r0
 8083c50:	d04d      	beq.n	8083cee <_ZN5spark16StreamLogHandler10logMessageEPKc8LogLevelS2_RK13LogAttributes+0xb6>
    if (attr.has_time) {
 8083c52:	792b      	ldrb	r3, [r5, #4]
 8083c54:	0719      	lsls	r1, r3, #28
 8083c56:	d504      	bpl.n	8083c62 <_ZN5spark16StreamLogHandler10logMessageEPKc8LogLevelS2_RK13LogAttributes+0x2a>
        printf("%010u ", (unsigned)attr.time);
 8083c58:	4620      	mov	r0, r4
 8083c5a:	696a      	ldr	r2, [r5, #20]
 8083c5c:	4954      	ldr	r1, [pc, #336]	; (8083db0 <_ZN5spark16StreamLogHandler10logMessageEPKc8LogLevelS2_RK13LogAttributes+0x178>)
 8083c5e:	f7ff fa31 	bl	80830c4 <_ZN5spark16StreamLogHandler6printfEPKcz>
    if (category) {
 8083c62:	f1b8 0f00 	cmp.w	r8, #0
 8083c66:	d00d      	beq.n	8083c84 <_ZN5spark16StreamLogHandler10logMessageEPKc8LogLevelS2_RK13LogAttributes+0x4c>
        write('[');
 8083c68:	215b      	movs	r1, #91	; 0x5b
 8083c6a:	4620      	mov	r0, r4
 8083c6c:	f7ff fa1e 	bl	80830ac <_ZN5spark16StreamLogHandler5writeEc>
        write(category);
 8083c70:	4641      	mov	r1, r8
 8083c72:	4620      	mov	r0, r4
 8083c74:	f7ff fa0c 	bl	8083090 <_ZN5spark16StreamLogHandler5writeEPKc>
        write("] ", 2);
 8083c78:	6823      	ldr	r3, [r4, #0]
 8083c7a:	2202      	movs	r2, #2
 8083c7c:	4620      	mov	r0, r4
 8083c7e:	68db      	ldr	r3, [r3, #12]
 8083c80:	494c      	ldr	r1, [pc, #304]	; (8083db4 <_ZN5spark16StreamLogHandler10logMessageEPKc8LogLevelS2_RK13LogAttributes+0x17c>)
 8083c82:	4798      	blx	r3
    if (attr.has_file) {
 8083c84:	792b      	ldrb	r3, [r5, #4]
 8083c86:	07da      	lsls	r2, r3, #31
 8083c88:	d524      	bpl.n	8083cd4 <_ZN5spark16StreamLogHandler10logMessageEPKc8LogLevelS2_RK13LogAttributes+0x9c>
        s = extractFileName(attr.file); // Strip directory path
 8083c8a:	f8d5 8008 	ldr.w	r8, [r5, #8]
    const char *s1 = strrchr(s, '/');
 8083c8e:	212f      	movs	r1, #47	; 0x2f
 8083c90:	4640      	mov	r0, r8
 8083c92:	f002 f873 	bl	8085d7c <strrchr>
    if (s1) {
 8083c96:	b108      	cbz	r0, 8083c9c <_ZN5spark16StreamLogHandler10logMessageEPKc8LogLevelS2_RK13LogAttributes+0x64>
        return s1 + 1;
 8083c98:	f100 0801 	add.w	r8, r0, #1
        write(s); // File name
 8083c9c:	4641      	mov	r1, r8
 8083c9e:	4620      	mov	r0, r4
 8083ca0:	f7ff f9f6 	bl	8083090 <_ZN5spark16StreamLogHandler5writeEPKc>
        if (attr.has_line) {
 8083ca4:	792b      	ldrb	r3, [r5, #4]
 8083ca6:	079b      	lsls	r3, r3, #30
 8083ca8:	d508      	bpl.n	8083cbc <_ZN5spark16StreamLogHandler10logMessageEPKc8LogLevelS2_RK13LogAttributes+0x84>
            write(':');
 8083caa:	213a      	movs	r1, #58	; 0x3a
 8083cac:	4620      	mov	r0, r4
 8083cae:	f7ff f9fd 	bl	80830ac <_ZN5spark16StreamLogHandler5writeEc>
            printf("%d", (int)attr.line); // Line number
 8083cb2:	4620      	mov	r0, r4
 8083cb4:	68ea      	ldr	r2, [r5, #12]
 8083cb6:	4940      	ldr	r1, [pc, #256]	; (8083db8 <_ZN5spark16StreamLogHandler10logMessageEPKc8LogLevelS2_RK13LogAttributes+0x180>)
 8083cb8:	f7ff fa04 	bl	80830c4 <_ZN5spark16StreamLogHandler6printfEPKcz>
        if (attr.has_function) {
 8083cbc:	792a      	ldrb	r2, [r5, #4]
 8083cbe:	6823      	ldr	r3, [r4, #0]
 8083cc0:	f012 0f04 	tst.w	r2, #4
            write(": ", 2);
 8083cc4:	4620      	mov	r0, r4
            write(", ", 2);
 8083cc6:	f04f 0202 	mov.w	r2, #2
 8083cca:	68db      	ldr	r3, [r3, #12]
 8083ccc:	bf14      	ite	ne
 8083cce:	493b      	ldrne	r1, [pc, #236]	; (8083dbc <_ZN5spark16StreamLogHandler10logMessageEPKc8LogLevelS2_RK13LogAttributes+0x184>)
            write(": ", 2);
 8083cd0:	493b      	ldreq	r1, [pc, #236]	; (8083dc0 <_ZN5spark16StreamLogHandler10logMessageEPKc8LogLevelS2_RK13LogAttributes+0x188>)
 8083cd2:	4798      	blx	r3
    if (attr.has_function) {
 8083cd4:	792b      	ldrb	r3, [r5, #4]
 8083cd6:	0758      	lsls	r0, r3, #29
 8083cd8:	d51d      	bpl.n	8083d16 <_ZN5spark16StreamLogHandler10logMessageEPKc8LogLevelS2_RK13LogAttributes+0xde>
        s = extractFuncName(attr.function, &n); // Strip argument and return types
 8083cda:	6929      	ldr	r1, [r5, #16]
const char* extractFuncName(const char *s, size_t *size) {
 8083cdc:	460b      	mov	r3, r1
 8083cde:	461a      	mov	r2, r3
    for (; *s; ++s) {
 8083ce0:	f813 0b01 	ldrb.w	r0, [r3], #1
 8083ce4:	b160      	cbz	r0, 8083d00 <_ZN5spark16StreamLogHandler10logMessageEPKc8LogLevelS2_RK13LogAttributes+0xc8>
        if (*s == ' ') {
 8083ce6:	2820      	cmp	r0, #32
 8083ce8:	d108      	bne.n	8083cfc <_ZN5spark16StreamLogHandler10logMessageEPKc8LogLevelS2_RK13LogAttributes+0xc4>
            s1 = s + 1; // Skip return type
 8083cea:	4619      	mov	r1, r3
 8083cec:	e7f7      	b.n	8083cde <_ZN5spark16StreamLogHandler10logMessageEPKc8LogLevelS2_RK13LogAttributes+0xa6>
    if (stream_ == &Serial && Network.listening()) {
 8083cee:	4835      	ldr	r0, [pc, #212]	; (8083dc4 <_ZN5spark16StreamLogHandler10logMessageEPKc8LogLevelS2_RK13LogAttributes+0x18c>)
 8083cf0:	f000 f967 	bl	8083fc2 <_ZN5spark12NetworkClass9listeningEv>
 8083cf4:	2800      	cmp	r0, #0
 8083cf6:	d0ac      	beq.n	8083c52 <_ZN5spark16StreamLogHandler10logMessageEPKc8LogLevelS2_RK13LogAttributes+0x1a>
}
 8083cf8:	e8bd 87f0 	ldmia.w	sp!, {r4, r5, r6, r7, r8, r9, sl, pc}
        } else if (*s == '(') {
 8083cfc:	2828      	cmp	r0, #40	; 0x28
 8083cfe:	d1ee      	bne.n	8083cde <_ZN5spark16StreamLogHandler10logMessageEPKc8LogLevelS2_RK13LogAttributes+0xa6>
        write(s, n);
 8083d00:	6823      	ldr	r3, [r4, #0]
 8083d02:	1a52      	subs	r2, r2, r1
 8083d04:	4620      	mov	r0, r4
 8083d06:	68db      	ldr	r3, [r3, #12]
 8083d08:	4798      	blx	r3
        write("(): ", 4);
 8083d0a:	6823      	ldr	r3, [r4, #0]
 8083d0c:	2204      	movs	r2, #4
 8083d0e:	4620      	mov	r0, r4
 8083d10:	68db      	ldr	r3, [r3, #12]
 8083d12:	492d      	ldr	r1, [pc, #180]	; (8083dc8 <_ZN5spark16StreamLogHandler10logMessageEPKc8LogLevelS2_RK13LogAttributes+0x190>)
 8083d14:	4798      	blx	r3
    return log_level_name(level, nullptr);
 8083d16:	2100      	movs	r1, #0
 8083d18:	4638      	mov	r0, r7
 8083d1a:	f7fd ffd9 	bl	8081cd0 <log_level_name>
 8083d1e:	4601      	mov	r1, r0
    write(s);
 8083d20:	4620      	mov	r0, r4
 8083d22:	f7ff f9b5 	bl	8083090 <_ZN5spark16StreamLogHandler5writeEPKc>
    write(": ", 2);
 8083d26:	6823      	ldr	r3, [r4, #0]
 8083d28:	2202      	movs	r2, #2
 8083d2a:	4620      	mov	r0, r4
 8083d2c:	68db      	ldr	r3, [r3, #12]
 8083d2e:	4924      	ldr	r1, [pc, #144]	; (8083dc0 <_ZN5spark16StreamLogHandler10logMessageEPKc8LogLevelS2_RK13LogAttributes+0x188>)
 8083d30:	4798      	blx	r3
    if (msg) {
 8083d32:	b11e      	cbz	r6, 8083d3c <_ZN5spark16StreamLogHandler10logMessageEPKc8LogLevelS2_RK13LogAttributes+0x104>
        write(msg);
 8083d34:	4631      	mov	r1, r6
 8083d36:	4620      	mov	r0, r4
 8083d38:	f7ff f9aa 	bl	8083090 <_ZN5spark16StreamLogHandler5writeEPKc>
    if (attr.has_code || attr.has_details) {
 8083d3c:	792b      	ldrb	r3, [r5, #4]
 8083d3e:	f013 0f30 	tst.w	r3, #48	; 0x30
 8083d42:	d02c      	beq.n	8083d9e <_ZN5spark16StreamLogHandler10logMessageEPKc8LogLevelS2_RK13LogAttributes+0x166>
        write(" [", 2);
 8083d44:	6823      	ldr	r3, [r4, #0]
 8083d46:	4921      	ldr	r1, [pc, #132]	; (8083dcc <_ZN5spark16StreamLogHandler10logMessageEPKc8LogLevelS2_RK13LogAttributes+0x194>)
 8083d48:	68db      	ldr	r3, [r3, #12]
 8083d4a:	2202      	movs	r2, #2
 8083d4c:	4620      	mov	r0, r4
 8083d4e:	4798      	blx	r3
        if (attr.has_code) {
 8083d50:	792b      	ldrb	r3, [r5, #4]
 8083d52:	06d9      	lsls	r1, r3, #27
 8083d54:	d50a      	bpl.n	8083d6c <_ZN5spark16StreamLogHandler10logMessageEPKc8LogLevelS2_RK13LogAttributes+0x134>
            write("code = ", 7);
 8083d56:	6823      	ldr	r3, [r4, #0]
 8083d58:	2207      	movs	r2, #7
 8083d5a:	4620      	mov	r0, r4
 8083d5c:	491c      	ldr	r1, [pc, #112]	; (8083dd0 <_ZN5spark16StreamLogHandler10logMessageEPKc8LogLevelS2_RK13LogAttributes+0x198>)
 8083d5e:	68db      	ldr	r3, [r3, #12]
 8083d60:	4798      	blx	r3
            printf("%" PRIiPTR, (intptr_t)attr.code);
 8083d62:	4620      	mov	r0, r4
 8083d64:	69aa      	ldr	r2, [r5, #24]
 8083d66:	491b      	ldr	r1, [pc, #108]	; (8083dd4 <_ZN5spark16StreamLogHandler10logMessageEPKc8LogLevelS2_RK13LogAttributes+0x19c>)
 8083d68:	f7ff f9ac 	bl	80830c4 <_ZN5spark16StreamLogHandler6printfEPKcz>
        if (attr.has_details) {
 8083d6c:	792b      	ldrb	r3, [r5, #4]
 8083d6e:	069a      	lsls	r2, r3, #26
 8083d70:	d511      	bpl.n	8083d96 <_ZN5spark16StreamLogHandler10logMessageEPKc8LogLevelS2_RK13LogAttributes+0x15e>
            if (attr.has_code) {
 8083d72:	06db      	lsls	r3, r3, #27
 8083d74:	d505      	bpl.n	8083d82 <_ZN5spark16StreamLogHandler10logMessageEPKc8LogLevelS2_RK13LogAttributes+0x14a>
                write(", ", 2);
 8083d76:	6823      	ldr	r3, [r4, #0]
 8083d78:	2202      	movs	r2, #2
 8083d7a:	4620      	mov	r0, r4
 8083d7c:	68db      	ldr	r3, [r3, #12]
 8083d7e:	490f      	ldr	r1, [pc, #60]	; (8083dbc <_ZN5spark16StreamLogHandler10logMessageEPKc8LogLevelS2_RK13LogAttributes+0x184>)
 8083d80:	4798      	blx	r3
            write("details = ", 10);
 8083d82:	6823      	ldr	r3, [r4, #0]
 8083d84:	4620      	mov	r0, r4
 8083d86:	4914      	ldr	r1, [pc, #80]	; (8083dd8 <_ZN5spark16StreamLogHandler10logMessageEPKc8LogLevelS2_RK13LogAttributes+0x1a0>)
 8083d88:	220a      	movs	r2, #10
 8083d8a:	68db      	ldr	r3, [r3, #12]
 8083d8c:	4798      	blx	r3
            write(attr.details);
 8083d8e:	4620      	mov	r0, r4
 8083d90:	69e9      	ldr	r1, [r5, #28]
 8083d92:	f7ff f97d 	bl	8083090 <_ZN5spark16StreamLogHandler5writeEPKc>
        write(']');
 8083d96:	215d      	movs	r1, #93	; 0x5d
 8083d98:	4620      	mov	r0, r4
 8083d9a:	f7ff f987 	bl	80830ac <_ZN5spark16StreamLogHandler5writeEc>
    write("\r\n", 2);
 8083d9e:	6823      	ldr	r3, [r4, #0]
 8083da0:	4620      	mov	r0, r4
}
 8083da2:	e8bd 47f0 	ldmia.w	sp!, {r4, r5, r6, r7, r8, r9, sl, lr}
    write("\r\n", 2);
 8083da6:	2202      	movs	r2, #2
 8083da8:	68db      	ldr	r3, [r3, #12]
 8083daa:	490c      	ldr	r1, [pc, #48]	; (8083ddc <_ZN5spark16StreamLogHandler10logMessageEPKc8LogLevelS2_RK13LogAttributes+0x1a4>)
 8083dac:	4718      	bx	r3
 8083dae:	bf00      	nop
 8083db0:	080864c0 	.word	0x080864c0
 8083db4:	080864c7 	.word	0x080864c7
 8083db8:	08086484 	.word	0x08086484
 8083dbc:	080864ca 	.word	0x080864ca
 8083dc0:	080864cf 	.word	0x080864cf
 8083dc4:	20000204 	.word	0x20000204
 8083dc8:	080864cd 	.word	0x080864cd
 8083dcc:	080864d2 	.word	0x080864d2
 8083dd0:	080864d5 	.word	0x080864d5
 8083dd4:	0808625a 	.word	0x0808625a
 8083dd8:	080864dd 	.word	0x080864dd
 8083ddc:	080864e8 	.word	0x080864e8

08083de0 <_ZN5spark20JSONStreamLogHandler10logMessageEPKc8LogLevelS2_RK13LogAttributes>:
void spark::JSONStreamLogHandler::logMessage(const char *msg, LogLevel level, const char *category, const LogAttributes &attr) {
 8083de0:	e92d 43f0 	stmdb	sp!, {r4, r5, r6, r7, r8, r9, lr}
 8083de4:	b085      	sub	sp, #20
    if (this->stream() == &Serial && Network.listening()) {
 8083de6:	f8d0 9020 	ldr.w	r9, [r0, #32]
void spark::JSONStreamLogHandler::logMessage(const char *msg, LogLevel level, const char *category, const LogAttributes &attr) {
 8083dea:	4605      	mov	r5, r0
 8083dec:	460f      	mov	r7, r1
 8083dee:	4690      	mov	r8, r2
 8083df0:	461e      	mov	r6, r3
 8083df2:	9c0c      	ldr	r4, [sp, #48]	; 0x30
    if (this->stream() == &Serial && Network.listening()) {
 8083df4:	f000 fcf6 	bl	80847e4 <_Z16_fetch_usbserialv>
 8083df8:	4581      	cmp	r9, r0
 8083dfa:	d105      	bne.n	8083e08 <_ZN5spark20JSONStreamLogHandler10logMessageEPKc8LogLevelS2_RK13LogAttributes+0x28>
 8083dfc:	4849      	ldr	r0, [pc, #292]	; (8083f24 <_ZN5spark20JSONStreamLogHandler10logMessageEPKc8LogLevelS2_RK13LogAttributes+0x144>)
 8083dfe:	f000 f8e0 	bl	8083fc2 <_ZN5spark12NetworkClass9listeningEv>
 8083e02:	2800      	cmp	r0, #0
 8083e04:	f040 808a 	bne.w	8083f1c <_ZN5spark20JSONStreamLogHandler10logMessageEPKc8LogLevelS2_RK13LogAttributes+0x13c>
        state_(BEGIN) {
 8083e08:	f04f 0900 	mov.w	r9, #0
    JSONStreamWriter json(*this->stream());
 8083e0c:	6a2b      	ldr	r3, [r5, #32]
        strm_(stream) {
 8083e0e:	4a46      	ldr	r2, [pc, #280]	; (8083f28 <_ZN5spark20JSONStreamLogHandler10logMessageEPKc8LogLevelS2_RK13LogAttributes+0x148>)
    json.beginObject();
 8083e10:	a801      	add	r0, sp, #4
 8083e12:	9201      	str	r2, [sp, #4]
 8083e14:	9303      	str	r3, [sp, #12]
        state_(BEGIN) {
 8083e16:	f88d 9008 	strb.w	r9, [sp, #8]
 8083e1a:	f7ff f822 	bl	8082e62 <_ZN5spark10JSONWriter11beginObjectEv>
 8083e1e:	4649      	mov	r1, r9
 8083e20:	4640      	mov	r0, r8
 8083e22:	f7fd ff55 	bl	8081cd0 <log_level_name>
 8083e26:	4680      	mov	r8, r0
    json.name("l", 1).value(s);
 8083e28:	4940      	ldr	r1, [pc, #256]	; (8083f2c <_ZN5spark20JSONStreamLogHandler10logMessageEPKc8LogLevelS2_RK13LogAttributes+0x14c>)
 8083e2a:	2201      	movs	r2, #1
 8083e2c:	a801      	add	r0, sp, #4
 8083e2e:	f7ff f8a1 	bl	8082f74 <_ZN5spark10JSONWriter4nameEPKcj>
 8083e32:	4641      	mov	r1, r8
 8083e34:	f7ff f91f 	bl	8083076 <_ZN5spark10JSONWriter5valueEPKc>
    if (msg) {
 8083e38:	b13f      	cbz	r7, 8083e4a <_ZN5spark20JSONStreamLogHandler10logMessageEPKc8LogLevelS2_RK13LogAttributes+0x6a>
        json.name("m", 1).value(msg);
 8083e3a:	493d      	ldr	r1, [pc, #244]	; (8083f30 <_ZN5spark20JSONStreamLogHandler10logMessageEPKc8LogLevelS2_RK13LogAttributes+0x150>)
 8083e3c:	2201      	movs	r2, #1
 8083e3e:	a801      	add	r0, sp, #4
 8083e40:	f7ff f898 	bl	8082f74 <_ZN5spark10JSONWriter4nameEPKcj>
 8083e44:	4639      	mov	r1, r7
 8083e46:	f7ff f916 	bl	8083076 <_ZN5spark10JSONWriter5valueEPKc>
    if (category) {
 8083e4a:	b13e      	cbz	r6, 8083e5c <_ZN5spark20JSONStreamLogHandler10logMessageEPKc8LogLevelS2_RK13LogAttributes+0x7c>
        json.name("c", 1).value(category);
 8083e4c:	4939      	ldr	r1, [pc, #228]	; (8083f34 <_ZN5spark20JSONStreamLogHandler10logMessageEPKc8LogLevelS2_RK13LogAttributes+0x154>)
 8083e4e:	2201      	movs	r2, #1
 8083e50:	a801      	add	r0, sp, #4
 8083e52:	f7ff f88f 	bl	8082f74 <_ZN5spark10JSONWriter4nameEPKcj>
 8083e56:	4631      	mov	r1, r6
 8083e58:	f7ff f90d 	bl	8083076 <_ZN5spark10JSONWriter5valueEPKc>
    if (attr.has_file) {
 8083e5c:	7923      	ldrb	r3, [r4, #4]
 8083e5e:	07df      	lsls	r7, r3, #31
 8083e60:	d50e      	bpl.n	8083e80 <_ZN5spark20JSONStreamLogHandler10logMessageEPKc8LogLevelS2_RK13LogAttributes+0xa0>
        s = extractFileName(attr.file); // Strip directory path
 8083e62:	68a6      	ldr	r6, [r4, #8]
    const char *s1 = strrchr(s, '/');
 8083e64:	212f      	movs	r1, #47	; 0x2f
 8083e66:	4630      	mov	r0, r6
 8083e68:	f001 ff88 	bl	8085d7c <strrchr>
    if (s1) {
 8083e6c:	b100      	cbz	r0, 8083e70 <_ZN5spark20JSONStreamLogHandler10logMessageEPKc8LogLevelS2_RK13LogAttributes+0x90>
        return s1 + 1;
 8083e6e:	1c46      	adds	r6, r0, #1
        json.name("f", 1).value(s);
 8083e70:	4931      	ldr	r1, [pc, #196]	; (8083f38 <_ZN5spark20JSONStreamLogHandler10logMessageEPKc8LogLevelS2_RK13LogAttributes+0x158>)
 8083e72:	2201      	movs	r2, #1
 8083e74:	a801      	add	r0, sp, #4
 8083e76:	f7ff f87d 	bl	8082f74 <_ZN5spark10JSONWriter4nameEPKcj>
 8083e7a:	4631      	mov	r1, r6
 8083e7c:	f7ff f8fb 	bl	8083076 <_ZN5spark10JSONWriter5valueEPKc>
    if (attr.has_line) {
 8083e80:	7923      	ldrb	r3, [r4, #4]
 8083e82:	079e      	lsls	r6, r3, #30
 8083e84:	d507      	bpl.n	8083e96 <_ZN5spark20JSONStreamLogHandler10logMessageEPKc8LogLevelS2_RK13LogAttributes+0xb6>
        json.name("ln", 2).value(attr.line);
 8083e86:	492d      	ldr	r1, [pc, #180]	; (8083f3c <_ZN5spark20JSONStreamLogHandler10logMessageEPKc8LogLevelS2_RK13LogAttributes+0x15c>)
 8083e88:	2202      	movs	r2, #2
 8083e8a:	a801      	add	r0, sp, #4
 8083e8c:	f7ff f872 	bl	8082f74 <_ZN5spark10JSONWriter4nameEPKcj>
 8083e90:	68e1      	ldr	r1, [r4, #12]
 8083e92:	f7fe fff3 	bl	8082e7c <_ZN5spark10JSONWriter5valueEi>
    if (attr.has_function) {
 8083e96:	7923      	ldrb	r3, [r4, #4]
 8083e98:	0758      	lsls	r0, r3, #29
 8083e9a:	d514      	bpl.n	8083ec6 <_ZN5spark20JSONStreamLogHandler10logMessageEPKc8LogLevelS2_RK13LogAttributes+0xe6>
        s = extractFuncName(attr.function, &n); // Strip argument and return types
 8083e9c:	6926      	ldr	r6, [r4, #16]
const char* extractFuncName(const char *s, size_t *size) {
 8083e9e:	4633      	mov	r3, r6
 8083ea0:	461f      	mov	r7, r3
    for (; *s; ++s) {
 8083ea2:	f813 2b01 	ldrb.w	r2, [r3], #1
 8083ea6:	b12a      	cbz	r2, 8083eb4 <_ZN5spark20JSONStreamLogHandler10logMessageEPKc8LogLevelS2_RK13LogAttributes+0xd4>
        if (*s == ' ') {
 8083ea8:	2a20      	cmp	r2, #32
 8083eaa:	d101      	bne.n	8083eb0 <_ZN5spark20JSONStreamLogHandler10logMessageEPKc8LogLevelS2_RK13LogAttributes+0xd0>
            s1 = s + 1; // Skip return type
 8083eac:	461e      	mov	r6, r3
 8083eae:	e7f7      	b.n	8083ea0 <_ZN5spark20JSONStreamLogHandler10logMessageEPKc8LogLevelS2_RK13LogAttributes+0xc0>
        } else if (*s == '(') {
 8083eb0:	2a28      	cmp	r2, #40	; 0x28
 8083eb2:	d1f5      	bne.n	8083ea0 <_ZN5spark20JSONStreamLogHandler10logMessageEPKc8LogLevelS2_RK13LogAttributes+0xc0>
        json.name("fn", 2).value(s, n);
 8083eb4:	2202      	movs	r2, #2
 8083eb6:	4922      	ldr	r1, [pc, #136]	; (8083f40 <_ZN5spark20JSONStreamLogHandler10logMessageEPKc8LogLevelS2_RK13LogAttributes+0x160>)
 8083eb8:	a801      	add	r0, sp, #4
 8083eba:	f7ff f85b 	bl	8082f74 <_ZN5spark10JSONWriter4nameEPKcj>
 8083ebe:	4631      	mov	r1, r6
 8083ec0:	1bba      	subs	r2, r7, r6
 8083ec2:	f7ff f866 	bl	8082f92 <_ZN5spark10JSONWriter5valueEPKcj>
    if (attr.has_time) {
 8083ec6:	7923      	ldrb	r3, [r4, #4]
 8083ec8:	0719      	lsls	r1, r3, #28
 8083eca:	d507      	bpl.n	8083edc <_ZN5spark20JSONStreamLogHandler10logMessageEPKc8LogLevelS2_RK13LogAttributes+0xfc>
        json.name("t", 1).value((unsigned)attr.time);
 8083ecc:	491d      	ldr	r1, [pc, #116]	; (8083f44 <_ZN5spark20JSONStreamLogHandler10logMessageEPKc8LogLevelS2_RK13LogAttributes+0x164>)
 8083ece:	2201      	movs	r2, #1
 8083ed0:	a801      	add	r0, sp, #4
 8083ed2:	f7ff f84f 	bl	8082f74 <_ZN5spark10JSONWriter4nameEPKcj>
 8083ed6:	6961      	ldr	r1, [r4, #20]
 8083ed8:	f7fe ffe2 	bl	8082ea0 <_ZN5spark10JSONWriter5valueEj>
    if (attr.has_code) {
 8083edc:	7923      	ldrb	r3, [r4, #4]
 8083ede:	06da      	lsls	r2, r3, #27
 8083ee0:	d508      	bpl.n	8083ef4 <_ZN5spark20JSONStreamLogHandler10logMessageEPKc8LogLevelS2_RK13LogAttributes+0x114>
        json.name("code", 4).value((int)attr.code);
 8083ee2:	2204      	movs	r2, #4
 8083ee4:	4918      	ldr	r1, [pc, #96]	; (8083f48 <_ZN5spark20JSONStreamLogHandler10logMessageEPKc8LogLevelS2_RK13LogAttributes+0x168>)
 8083ee6:	eb0d 0002 	add.w	r0, sp, r2
 8083eea:	f7ff f843 	bl	8082f74 <_ZN5spark10JSONWriter4nameEPKcj>
 8083eee:	69a1      	ldr	r1, [r4, #24]
 8083ef0:	f7fe ffc4 	bl	8082e7c <_ZN5spark10JSONWriter5valueEi>
    if (attr.has_details) {
 8083ef4:	7923      	ldrb	r3, [r4, #4]
 8083ef6:	069b      	lsls	r3, r3, #26
 8083ef8:	d507      	bpl.n	8083f0a <_ZN5spark20JSONStreamLogHandler10logMessageEPKc8LogLevelS2_RK13LogAttributes+0x12a>
        json.name("detail", 6).value(attr.details);
 8083efa:	4914      	ldr	r1, [pc, #80]	; (8083f4c <_ZN5spark20JSONStreamLogHandler10logMessageEPKc8LogLevelS2_RK13LogAttributes+0x16c>)
 8083efc:	2206      	movs	r2, #6
 8083efe:	a801      	add	r0, sp, #4
 8083f00:	f7ff f838 	bl	8082f74 <_ZN5spark10JSONWriter4nameEPKcj>
 8083f04:	69e1      	ldr	r1, [r4, #28]
 8083f06:	f7ff f8b6 	bl	8083076 <_ZN5spark10JSONWriter5valueEPKc>
    json.endObject();
 8083f0a:	a801      	add	r0, sp, #4
 8083f0c:	f7fe ff93 	bl	8082e36 <_ZN5spark10JSONWriter9endObjectEv>
    this->stream()->write((const uint8_t*)"\r\n", 2);
 8083f10:	6a28      	ldr	r0, [r5, #32]
 8083f12:	2202      	movs	r2, #2
 8083f14:	6803      	ldr	r3, [r0, #0]
 8083f16:	490e      	ldr	r1, [pc, #56]	; (8083f50 <_ZN5spark20JSONStreamLogHandler10logMessageEPKc8LogLevelS2_RK13LogAttributes+0x170>)
 8083f18:	68db      	ldr	r3, [r3, #12]
 8083f1a:	4798      	blx	r3
}
 8083f1c:	b005      	add	sp, #20
 8083f1e:	e8bd 83f0 	ldmia.w	sp!, {r4, r5, r6, r7, r8, r9, pc}
 8083f22:	bf00      	nop
 8083f24:	20000204 	.word	0x20000204
 8083f28:	08086508 	.word	0x08086508
 8083f2c:	0808649a 	.word	0x0808649a
 8083f30:	08085fe4 	.word	0x08085fe4
 8083f34:	080864eb 	.word	0x080864eb
 8083f38:	08086166 	.word	0x08086166
 8083f3c:	080864ed 	.word	0x080864ed
 8083f40:	080864f0 	.word	0x080864f0
 8083f44:	08085ff4 	.word	0x08085ff4
 8083f48:	080864f3 	.word	0x080864f3
 8083f4c:	080864f8 	.word	0x080864f8
 8083f50:	080864e8 	.word	0x080864e8

08083f54 <_ZN5spark12NetworkClass7connectEj>:
        return Network;
    }
}

void NetworkClass::connect(unsigned flags) {
    network_connect(*this, flags, 0, nullptr);
 8083f54:	2300      	movs	r3, #0
 8083f56:	6840      	ldr	r0, [r0, #4]
 8083f58:	461a      	mov	r2, r3
 8083f5a:	f7fd bf99 	b.w	8081e90 <network_connect>

08083f5e <_ZN5spark12NetworkClass10disconnectEv>:
}

void NetworkClass::disconnect() {
    network_disconnect(*this, NETWORK_DISCONNECT_REASON_USER, nullptr);
 8083f5e:	2200      	movs	r2, #0
 8083f60:	2102      	movs	r1, #2
 8083f62:	6840      	ldr	r0, [r0, #4]
 8083f64:	f7fd bfa4 	b.w	8081eb0 <network_disconnect>

08083f68 <_ZN5spark12NetworkClass10connectingEv>:
}

bool NetworkClass::connecting() {
    return network_connecting(*this, 0, nullptr);
 8083f68:	2200      	movs	r2, #0
 8083f6a:	6840      	ldr	r0, [r0, #4]
 8083f6c:	4611      	mov	r1, r2
 8083f6e:	f7fd bf97 	b.w	8081ea0 <network_connecting>

08083f72 <_ZN5spark12NetworkClass5readyEv>:
}

bool NetworkClass::ready() {
    return network_ready(*this, 0, nullptr);
 8083f72:	2200      	movs	r2, #0
 8083f74:	6840      	ldr	r0, [r0, #4]
 8083f76:	4611      	mov	r1, r2
 8083f78:	f7fd bfa2 	b.w	8081ec0 <network_ready>

08083f7c <_ZN5spark12NetworkClass2onEv>:
}

void NetworkClass::on() {
    network_on(*this, 0, 0, nullptr);
 8083f7c:	2300      	movs	r3, #0
 8083f7e:	6840      	ldr	r0, [r0, #4]
 8083f80:	461a      	mov	r2, r3
 8083f82:	4619      	mov	r1, r3
 8083f84:	f7fd bfa4 	b.w	8081ed0 <network_on>

08083f88 <_ZN5spark12NetworkClass3offEv>:
}

void NetworkClass::off() {
    network_off(*this, 0, 0, nullptr);
 8083f88:	2300      	movs	r3, #0
 8083f8a:	6840      	ldr	r0, [r0, #4]
 8083f8c:	461a      	mov	r2, r3
 8083f8e:	4619      	mov	r1, r3
 8083f90:	f7fd bfa6 	b.w	8081ee0 <network_off>

08083f94 <_ZN5spark12NetworkClass4isOnEv>:
}

bool NetworkClass::isOn() {
    return network_is_on(*this, nullptr);
 8083f94:	2100      	movs	r1, #0
 8083f96:	6840      	ldr	r0, [r0, #4]
 8083f98:	f7fd bfca 	b.w	8081f30 <network_is_on>

08083f9c <_ZN5spark12NetworkClass5isOffEv>:
}

bool NetworkClass::isOff() {
    return network_is_off(*this, nullptr);
 8083f9c:	2100      	movs	r1, #0
 8083f9e:	6840      	ldr	r0, [r0, #4]
 8083fa0:	f7fd bfce 	b.w	8081f40 <network_is_off>

08083fa4 <_ZN5spark12NetworkClass6listenEb>:
}

void NetworkClass::listen(bool begin) {
    network_listen(*this, begin ? 0 : 1, nullptr);
 8083fa4:	2200      	movs	r2, #0
 8083fa6:	6840      	ldr	r0, [r0, #4]
 8083fa8:	f081 0101 	eor.w	r1, r1, #1
 8083fac:	f7fd bfa0 	b.w	8081ef0 <network_listen>

08083fb0 <_ZN5spark12NetworkClass16setListenTimeoutEt>:
}

void NetworkClass::setListenTimeout(uint16_t timeout) {
    network_set_listen_timeout(*this, timeout, nullptr);
 8083fb0:	2200      	movs	r2, #0
 8083fb2:	6840      	ldr	r0, [r0, #4]
 8083fb4:	f7fd bfac 	b.w	8081f10 <network_set_listen_timeout>

08083fb8 <_ZN5spark12NetworkClass16getListenTimeoutEv>:
}

uint16_t NetworkClass::getListenTimeout() {
    return network_get_listen_timeout(*this, 0, nullptr);
 8083fb8:	2200      	movs	r2, #0
 8083fba:	6840      	ldr	r0, [r0, #4]
 8083fbc:	4611      	mov	r1, r2
 8083fbe:	f7fd bfaf 	b.w	8081f20 <network_get_listen_timeout>

08083fc2 <_ZN5spark12NetworkClass9listeningEv>:
}

bool NetworkClass::listening() {
    return network_listening(*this, 0, nullptr);
 8083fc2:	2200      	movs	r2, #0
 8083fc4:	6840      	ldr	r0, [r0, #4]
 8083fc6:	4611      	mov	r1, r2
 8083fc8:	f7fd bf9a 	b.w	8081f00 <network_listening>

08083fcc <_ZN5spark12NetworkClass7resolveEPKc>:
}

IPAddress NetworkClass::resolve(const char* name) {
 8083fcc:	b570      	push	{r4, r5, r6, lr}
 8083fce:	4615      	mov	r5, r2
        HAL_IPAddress ip = {0};
 8083fd0:	2600      	movs	r6, #0
 8083fd2:	b086      	sub	sp, #24
 8083fd4:	4604      	mov	r4, r0
    IPAddress addr;
 8083fd6:	a804      	add	r0, sp, #16
 8083fd8:	f7fe fdd4 	bl	8082b84 <_ZN9IPAddressC1Ev>
        return (inet_gethostbyname(name, strlen(name), &ip, *this, NULL) != 0) ?
 8083fdc:	4628      	mov	r0, r5
        HAL_IPAddress ip = {0};
 8083fde:	9603      	str	r6, [sp, #12]
        return (inet_gethostbyname(name, strlen(name), &ip, *this, NULL) != 0) ?
 8083fe0:	f001 fe9f 	bl	8085d22 <strlen>
 8083fe4:	4b0a      	ldr	r3, [pc, #40]	; (8084010 <_ZN5spark12NetworkClass7resolveEPKc+0x44>)
 8083fe6:	9600      	str	r6, [sp, #0]
 8083fe8:	b281      	uxth	r1, r0
 8083fea:	685b      	ldr	r3, [r3, #4]
 8083fec:	4628      	mov	r0, r5
 8083fee:	aa03      	add	r2, sp, #12
 8083ff0:	f7fd fca6 	bl	8081940 <inet_gethostbyname>
                IPAddress(uint32_t(0)) : IPAddress(ip);
 8083ff4:	b130      	cbz	r0, 8084004 <_ZN5spark12NetworkClass7resolveEPKc+0x38>
 8083ff6:	4631      	mov	r1, r6
 8083ff8:	4620      	mov	r0, r4
 8083ffa:	f7fe fdd3 	bl	8082ba4 <_ZN9IPAddressC1Em>
    return Cellular.resolve(name);
#endif // Wiring_Cellular

#endif // HAL_USE_INET_HAL_POSIX
    return addr;
}
 8083ffe:	4620      	mov	r0, r4
 8084000:	b006      	add	sp, #24
 8084002:	bd70      	pop	{r4, r5, r6, pc}
 8084004:	4620      	mov	r0, r4
 8084006:	a903      	add	r1, sp, #12
 8084008:	f7fe fdc4 	bl	8082b94 <_ZN9IPAddressC1ERK16_HAL_IPAddress_t>
    virtual ~IPAddress() {}
 808400c:	e7f7      	b.n	8083ffe <_ZN5spark12NetworkClass7resolveEPKc+0x32>
 808400e:	bf00      	nop
 8084010:	2000019c 	.word	0x2000019c

08084014 <_GLOBAL__sub_I__ZN5spark7NetworkE>:
 8084014:	4b02      	ldr	r3, [pc, #8]	; (8084020 <_GLOBAL__sub_I__ZN5spark7NetworkE+0xc>)
 8084016:	4a03      	ldr	r2, [pc, #12]	; (8084024 <_GLOBAL__sub_I__ZN5spark7NetworkE+0x10>)
 8084018:	601a      	str	r2, [r3, #0]
 808401a:	2200      	movs	r2, #0
 808401c:	605a      	str	r2, [r3, #4]

} // spark
 808401e:	4770      	bx	lr
 8084020:	20000204 	.word	0x20000204
 8084024:	08086580 	.word	0x08086580

08084028 <_ZN4PMIC4lockEv.constprop.0>:
    pmicWireInstance()->write(address);
    pmicWireInstance()->write(DATA);
    pmicWireInstance()->endTransmission(true);
}

bool PMIC::lock() {
 8084028:	b508      	push	{r3, lr}
            return &Wire3;
 808402a:	f000 fdcb 	bl	8084bc4 <_Z20__fetch_global_Wire3v>
    return pmicWireInstance()->lock();
}
 808402e:	e8bd 4008 	ldmia.w	sp!, {r3, lr}
    return pmicWireInstance()->lock();
 8084032:	f7fe bd47 	b.w	8082ac4 <_ZN7TwoWire4lockEv>

08084036 <_ZN4PMICC1Eb>:
PMIC::PMIC(bool _lock) :
 8084036:	b510      	push	{r4, lr}
 8084038:	4604      	mov	r4, r0
    lock_(_lock)
 808403a:	7001      	strb	r1, [r0, #0]
    if (lock_) {
 808403c:	b109      	cbz	r1, 8084042 <_ZN4PMICC1Eb+0xc>
        lock();
 808403e:	f7ff fff3 	bl	8084028 <_ZN4PMIC4lockEv.constprop.0>
}
 8084042:	4620      	mov	r0, r4
 8084044:	bd10      	pop	{r4, pc}

08084046 <_ZN5Print5writeEPKhj>:

// Public Methods //////////////////////////////////////////////////////////////

/* default implementation: may be overridden */
size_t Print::write(const uint8_t *buffer, size_t size)
{
 8084046:	b5f8      	push	{r3, r4, r5, r6, r7, lr}
 8084048:	4606      	mov	r6, r0
 808404a:	460d      	mov	r5, r1
  size_t n = 0;
 808404c:	2400      	movs	r4, #0
 808404e:	188f      	adds	r7, r1, r2
  while (size--) {
 8084050:	42bd      	cmp	r5, r7
 8084052:	d00c      	beq.n	808406e <_ZN5Print5writeEPKhj+0x28>
     int chunk = write(*buffer++);
 8084054:	6833      	ldr	r3, [r6, #0]
 8084056:	4630      	mov	r0, r6
 8084058:	689b      	ldr	r3, [r3, #8]
 808405a:	f815 1b01 	ldrb.w	r1, [r5], #1
 808405e:	4798      	blx	r3
     if (chunk>=0)
 8084060:	1e03      	subs	r3, r0, #0
 8084062:	db01      	blt.n	8084068 <_ZN5Print5writeEPKhj+0x22>
         n += chunk;
 8084064:	441c      	add	r4, r3
  while (size--) {
 8084066:	e7f3      	b.n	8084050 <_ZN5Print5writeEPKhj+0xa>
     int chunk = write(*buffer++);
 8084068:	2c00      	cmp	r4, #0
 808406a:	bf08      	it	eq
 808406c:	461c      	moveq	r4, r3
             n = chunk;
         break;
     }
  }
  return n;
}
 808406e:	4620      	mov	r0, r4
 8084070:	bdf8      	pop	{r3, r4, r5, r6, r7, pc}

08084072 <_ZN5Print5writeEPKc>:
    size_t write(const char *str) {
 8084072:	b570      	push	{r4, r5, r6, lr}
 8084074:	4605      	mov	r5, r0
      if (str == NULL) return 0;
 8084076:	460c      	mov	r4, r1
    }
 8084078:	4608      	mov	r0, r1
      if (str == NULL) return 0;
 808407a:	b149      	cbz	r1, 8084090 <_ZN5Print5writeEPKc+0x1e>
      return write((const uint8_t *)str, strlen(str));
 808407c:	f001 fe51 	bl	8085d22 <strlen>
 8084080:	682b      	ldr	r3, [r5, #0]
 8084082:	4602      	mov	r2, r0
 8084084:	4621      	mov	r1, r4
 8084086:	4628      	mov	r0, r5
    }
 8084088:	e8bd 4070 	ldmia.w	sp!, {r4, r5, r6, lr}
      return write((const uint8_t *)str, strlen(str));
 808408c:	68db      	ldr	r3, [r3, #12]
 808408e:	4718      	bx	r3
    }
 8084090:	bd70      	pop	{r4, r5, r6, pc}

08084092 <_ZN5Print5printEc>:
  return write(str);
}

size_t Print::print(char c)
{
  return write(c);
 8084092:	6803      	ldr	r3, [r0, #0]
 8084094:	689b      	ldr	r3, [r3, #8]
 8084096:	4718      	bx	r3

08084098 <_ZN5Print7printlnEv>:
{
  return print(reinterpret_cast<const char*>(str));
}

size_t Print::println(void)
{
 8084098:	b538      	push	{r3, r4, r5, lr}
  size_t n = print('\r');
 808409a:	210d      	movs	r1, #13
{
 808409c:	4605      	mov	r5, r0
  size_t n = print('\r');
 808409e:	f7ff fff8 	bl	8084092 <_ZN5Print5printEc>
  n += print('\n');
 80840a2:	210a      	movs	r1, #10
  size_t n = print('\r');
 80840a4:	4604      	mov	r4, r0
  n += print('\n');
 80840a6:	4628      	mov	r0, r5
 80840a8:	f7ff fff3 	bl	8084092 <_ZN5Print5printEc>
  return n;
}
 80840ac:	4420      	add	r0, r4
 80840ae:	bd38      	pop	{r3, r4, r5, pc}

080840b0 <_ZN5Print7printlnEPKc>:

size_t Print::println(const char c[])
{
 80840b0:	b538      	push	{r3, r4, r5, lr}
 80840b2:	4605      	mov	r5, r0
  return write(str);
 80840b4:	f7ff ffdd 	bl	8084072 <_ZN5Print5writeEPKc>
 80840b8:	4604      	mov	r4, r0
  size_t n = print(c);
  n += println();
 80840ba:	4628      	mov	r0, r5
 80840bc:	f7ff ffec 	bl	8084098 <_ZN5Print7printlnEv>
  return n;
}
 80840c0:	4420      	add	r0, r4
 80840c2:	bd38      	pop	{r3, r4, r5, pc}

080840c4 <_ZN5Print11printNumberEmh>:

size_t Print::printNumber(unsigned long n, uint8_t base) {
  char buf[8 * sizeof(n) + 1]; // Assumes 8-bit chars plus zero byte.
  char *str = &buf[sizeof(buf) - 1];

  *str = '\0';
 80840c4:	2300      	movs	r3, #0

  // prevent crash if called with base == 1
  if (base < 2) base = 10;
 80840c6:	2a01      	cmp	r2, #1
 80840c8:	bf98      	it	ls
 80840ca:	220a      	movls	r2, #10
size_t Print::printNumber(unsigned long n, uint8_t base) {
 80840cc:	b530      	push	{r4, r5, lr}
 80840ce:	b08b      	sub	sp, #44	; 0x2c
 80840d0:	460c      	mov	r4, r1
  *str = '\0';
 80840d2:	f88d 3024 	strb.w	r3, [sp, #36]	; 0x24
  if (base < 2) base = 10;
 80840d6:	a909      	add	r1, sp, #36	; 0x24

  do {
   decltype(n) m = n;
   n /= base;
 80840d8:	4625      	mov	r5, r4
 80840da:	fbb4 f4f2 	udiv	r4, r4, r2
   char c = m - base * n;
 80840de:	fb04 5312 	mls	r3, r4, r2, r5
 80840e2:	b2db      	uxtb	r3, r3
   *--str = c < 10 ? c + '0' : c + 'A' - 10;
 80840e4:	2b09      	cmp	r3, #9
 80840e6:	bf94      	ite	ls
 80840e8:	3330      	addls	r3, #48	; 0x30
 80840ea:	3337      	addhi	r3, #55	; 0x37
 80840ec:	b2db      	uxtb	r3, r3
  } while(n);
 80840ee:	42aa      	cmp	r2, r5
   *--str = c < 10 ? c + '0' : c + 'A' - 10;
 80840f0:	f801 3d01 	strb.w	r3, [r1, #-1]!
  } while(n);
 80840f4:	d9f0      	bls.n	80840d8 <_ZN5Print11printNumberEmh+0x14>

  return write(str);
 80840f6:	f7ff ffbc 	bl	8084072 <_ZN5Print5writeEPKc>
}
 80840fa:	b00b      	add	sp, #44	; 0x2c
 80840fc:	bd30      	pop	{r4, r5, pc}

080840fe <_ZN5Print7vprintfEbPKcSt9__va_list>:

  return n;
}

size_t Print::vprintf(bool newline, const char* format, va_list args)
{
 80840fe:	e92d 41f0 	stmdb	sp!, {r4, r5, r6, r7, r8, lr}
 8084102:	b086      	sub	sp, #24
 8084104:	af00      	add	r7, sp, #0
 8084106:	4605      	mov	r5, r0
 8084108:	460e      	mov	r6, r1
    const int bufsize = 20;
    char test[bufsize];
    va_list args2;
    va_copy(args2, args);
    size_t n = vsnprintf(test, bufsize, format, args);
 808410a:	1d38      	adds	r0, r7, #4
 808410c:	2114      	movs	r1, #20
{
 808410e:	4614      	mov	r4, r2
    va_copy(args2, args);
 8084110:	603b      	str	r3, [r7, #0]
    size_t n = vsnprintf(test, bufsize, format, args);
 8084112:	f7fd ff45 	bl	8081fa0 <vsnprintf>

    if (n<bufsize)
 8084116:	2813      	cmp	r0, #19
 8084118:	d80e      	bhi.n	8084138 <_ZN5Print7vprintfEbPKcSt9__va_list+0x3a>
  return write(str);
 808411a:	4628      	mov	r0, r5
 808411c:	1d39      	adds	r1, r7, #4
 808411e:	f7ff ffa8 	bl	8084072 <_ZN5Print5writeEPKc>
 8084122:	4604      	mov	r4, r0
    {
        char bigger[n+1];
        n = vsnprintf(bigger, n+1, format, args2);
        n = print(bigger);
    }
    if (newline)
 8084124:	b11e      	cbz	r6, 808412e <_ZN5Print7vprintfEbPKcSt9__va_list+0x30>
        n += println();
 8084126:	4628      	mov	r0, r5
 8084128:	f7ff ffb6 	bl	8084098 <_ZN5Print7printlnEv>
 808412c:	4404      	add	r4, r0

    va_end(args2);
    return n;
}
 808412e:	4620      	mov	r0, r4
 8084130:	3718      	adds	r7, #24
 8084132:	46bd      	mov	sp, r7
 8084134:	e8bd 81f0 	ldmia.w	sp!, {r4, r5, r6, r7, r8, pc}
        char bigger[n+1];
 8084138:	f100 0308 	add.w	r3, r0, #8
 808413c:	f023 0307 	bic.w	r3, r3, #7
        n = print(bigger);
 8084140:	46e8      	mov	r8, sp
        char bigger[n+1];
 8084142:	ebad 0d03 	sub.w	sp, sp, r3
        n = vsnprintf(bigger, n+1, format, args2);
 8084146:	4622      	mov	r2, r4
 8084148:	1c41      	adds	r1, r0, #1
 808414a:	683b      	ldr	r3, [r7, #0]
 808414c:	4668      	mov	r0, sp
 808414e:	f7fd ff27 	bl	8081fa0 <vsnprintf>
  return write(str);
 8084152:	4669      	mov	r1, sp
 8084154:	4628      	mov	r0, r5
 8084156:	f7ff ff8c 	bl	8084072 <_ZN5Print5writeEPKc>
 808415a:	4604      	mov	r4, r0
 808415c:	46c5      	mov	sp, r8
 808415e:	e7e1      	b.n	8084124 <_ZN5Print7vprintfEbPKcSt9__va_list+0x26>

08084160 <_GLOBAL__sub_I_RGB>:
    _Function_base() : _M_manager(nullptr) { }
 8084160:	2200      	movs	r2, #0
 8084162:	4b01      	ldr	r3, [pc, #4]	; (8084168 <_GLOBAL__sub_I_RGB+0x8>)
 8084164:	609a      	str	r2, [r3, #8]
{
    RGBClass* const d = static_cast<RGBClass*>(data);
    if (d->changeHandler_) {
        d->changeHandler_(r, g, b);
    }
}
 8084166:	4770      	bx	lr
 8084168:	2000020c 	.word	0x2000020c

0808416c <_ZN8SPIClassC1E19hal_spi_interface_t>:
    }
    return particle::SPISettings(info->clock, info->bit_order, info->data_mode);
}
} // namespace

SPIClass::SPIClass(hal_spi_interface_t spi)
 808416c:	b570      	push	{r4, r5, r6, lr}
    RecursiveMutex() : handle_(nullptr)
 808416e:	2600      	movs	r6, #0
 8084170:	4604      	mov	r4, r0
 8084172:	460d      	mov	r5, r1
 8084174:	f840 6f08 	str.w	r6, [r0, #8]!
        os_mutex_recursive_create(&handle_);
 8084178:	f7fd fbf2 	bl	8081960 <os_mutex_recursive_create>
{
    _spi = spi;
    hal_spi_init(_spi);
 808417c:	4628      	mov	r0, r5
    _spi = spi;
 808417e:	7025      	strb	r5, [r4, #0]
    hal_spi_init(_spi);
 8084180:	f7fd fcf6 	bl	8081b70 <hal_spi_init>
    _dividerReference = SPI_CLK_SYSTEM; // 0 indicates the system clock
}
 8084184:	4620      	mov	r0, r4
    _dividerReference = SPI_CLK_SYSTEM; // 0 indicates the system clock
 8084186:	6066      	str	r6, [r4, #4]
}
 8084188:	bd70      	pop	{r4, r5, r6, pc}

0808418a <_ZN6StringD1Ev>:
	init();
	char buf[33];
	dtoa(value, decimalPlaces, buf);
        *this = buf;
}
String::~String()
 808418a:	b510      	push	{r4, lr}
 808418c:	4604      	mov	r4, r0
{
	free(buffer);
 808418e:	6800      	ldr	r0, [r0, #0]
 8084190:	f7fd fee6 	bl	8081f60 <free>
}
 8084194:	4620      	mov	r0, r4
 8084196:	bd10      	pop	{r4, pc}

08084198 <_ZN6String10invalidateEv>:
	len = 0;
	flags = 0;
}

void String::invalidate(void)
{
 8084198:	b510      	push	{r4, lr}
 808419a:	4604      	mov	r4, r0
	if (buffer) free(buffer);
 808419c:	6800      	ldr	r0, [r0, #0]
 808419e:	b108      	cbz	r0, 80841a4 <_ZN6String10invalidateEv+0xc>
 80841a0:	f7fd fede 	bl	8081f60 <free>
	buffer = NULL;
 80841a4:	2300      	movs	r3, #0
	capacity = len = 0;
 80841a6:	e9c4 3301 	strd	r3, r3, [r4, #4]
	buffer = NULL;
 80841aa:	6023      	str	r3, [r4, #0]
}
 80841ac:	bd10      	pop	{r4, pc}

080841ae <_ZN6String12changeBufferEj>:
	}
	return 0;
}

unsigned char String::changeBuffer(unsigned int maxStrLen)
{
 80841ae:	b538      	push	{r3, r4, r5, lr}
 80841b0:	4604      	mov	r4, r0
 80841b2:	460d      	mov	r5, r1
	char *newbuffer = (char *)realloc(buffer, maxStrLen + 1);
 80841b4:	6800      	ldr	r0, [r0, #0]
 80841b6:	3101      	adds	r1, #1
 80841b8:	f7fd feda 	bl	8081f70 <realloc>
	if (newbuffer) {
 80841bc:	b110      	cbz	r0, 80841c4 <_ZN6String12changeBufferEj+0x16>
		buffer = newbuffer;
		capacity = maxStrLen;
 80841be:	e9c4 0500 	strd	r0, r5, [r4]
		return 1;
 80841c2:	2001      	movs	r0, #1
	}
	return 0;
}
 80841c4:	bd38      	pop	{r3, r4, r5, pc}

080841c6 <_ZN6String7reserveEj>:
{
 80841c6:	b510      	push	{r4, lr}
	if (buffer && capacity >= size) return 1;
 80841c8:	6803      	ldr	r3, [r0, #0]
{
 80841ca:	4604      	mov	r4, r0
	if (buffer && capacity >= size) return 1;
 80841cc:	b123      	cbz	r3, 80841d8 <_ZN6String7reserveEj+0x12>
 80841ce:	6843      	ldr	r3, [r0, #4]
 80841d0:	428b      	cmp	r3, r1
 80841d2:	d301      	bcc.n	80841d8 <_ZN6String7reserveEj+0x12>
 80841d4:	2001      	movs	r0, #1
}
 80841d6:	bd10      	pop	{r4, pc}
	if (changeBuffer(size)) {
 80841d8:	4620      	mov	r0, r4
 80841da:	f7ff ffe8 	bl	80841ae <_ZN6String12changeBufferEj>
 80841de:	2800      	cmp	r0, #0
 80841e0:	d0f9      	beq.n	80841d6 <_ZN6String7reserveEj+0x10>
		if (len == 0) buffer[0] = 0;
 80841e2:	68a3      	ldr	r3, [r4, #8]
 80841e4:	2b00      	cmp	r3, #0
 80841e6:	d1f5      	bne.n	80841d4 <_ZN6String7reserveEj+0xe>
 80841e8:	6822      	ldr	r2, [r4, #0]
 80841ea:	7013      	strb	r3, [r2, #0]
 80841ec:	e7f2      	b.n	80841d4 <_ZN6String7reserveEj+0xe>

080841ee <_ZN6String4copyEPKcj>:
/*********************************************/
/*  Copy and Move                            */
/*********************************************/

String & String::copy(const char *cstr, unsigned int length)
{
 80841ee:	b570      	push	{r4, r5, r6, lr}
 80841f0:	460e      	mov	r6, r1
	if (!reserve(length)) {
 80841f2:	4611      	mov	r1, r2
{
 80841f4:	4604      	mov	r4, r0
 80841f6:	4615      	mov	r5, r2
	if (!reserve(length)) {
 80841f8:	f7ff ffe5 	bl	80841c6 <_ZN6String7reserveEj>
 80841fc:	b920      	cbnz	r0, 8084208 <_ZN6String4copyEPKcj+0x1a>
		invalidate();
 80841fe:	4620      	mov	r0, r4
 8084200:	f7ff ffca 	bl	8084198 <_ZN6String10invalidateEv>
	}
	len = length;
	memcpy(buffer, cstr, length);
	buffer[len] = 0;
	return *this;
}
 8084204:	4620      	mov	r0, r4
 8084206:	bd70      	pop	{r4, r5, r6, pc}
	memcpy(buffer, cstr, length);
 8084208:	462a      	mov	r2, r5
 808420a:	4631      	mov	r1, r6
 808420c:	6820      	ldr	r0, [r4, #0]
	len = length;
 808420e:	60a5      	str	r5, [r4, #8]
	memcpy(buffer, cstr, length);
 8084210:	f001 fcdf 	bl	8085bd2 <memcpy>
	buffer[len] = 0;
 8084214:	2100      	movs	r1, #0
 8084216:	6822      	ldr	r2, [r4, #0]
 8084218:	68a3      	ldr	r3, [r4, #8]
 808421a:	54d1      	strb	r1, [r2, r3]
	return *this;
 808421c:	e7f2      	b.n	8084204 <_ZN6String4copyEPKcj+0x16>

0808421e <_ZN6StringC1EPKc>:
String::String(const char *cstr)
 808421e:	b538      	push	{r3, r4, r5, lr}
	buffer = NULL;
 8084220:	2300      	movs	r3, #0
String::String(const char *cstr)
 8084222:	4604      	mov	r4, r0
	if (cstr) copy(cstr, strlen(cstr));
 8084224:	460d      	mov	r5, r1
	capacity = 0;
 8084226:	e9c0 3300 	strd	r3, r3, [r0]
	len = 0;
 808422a:	6083      	str	r3, [r0, #8]
	flags = 0;
 808422c:	7303      	strb	r3, [r0, #12]
	if (cstr) copy(cstr, strlen(cstr));
 808422e:	b139      	cbz	r1, 8084240 <_ZN6StringC1EPKc+0x22>
 8084230:	4608      	mov	r0, r1
 8084232:	f001 fd76 	bl	8085d22 <strlen>
 8084236:	4629      	mov	r1, r5
 8084238:	4602      	mov	r2, r0
 808423a:	4620      	mov	r0, r4
 808423c:	f7ff ffd7 	bl	80841ee <_ZN6String4copyEPKcj>
}
 8084240:	4620      	mov	r0, r4
 8084242:	bd38      	pop	{r3, r4, r5, pc}

08084244 <_ZN6String4moveERS_>:
    return copy(reinterpret_cast<const char*>(pstr), length);
}

#ifdef __GXX_EXPERIMENTAL_CXX0X__
void String::move(String &rhs)
{
 8084244:	b538      	push	{r3, r4, r5, lr}
 8084246:	4605      	mov	r5, r0
	if (buffer) {
 8084248:	6800      	ldr	r0, [r0, #0]
{
 808424a:	460c      	mov	r4, r1
	if (buffer) {
 808424c:	b168      	cbz	r0, 808426a <_ZN6String4moveERS_+0x26>
		if (capacity >= rhs.len) {
 808424e:	686a      	ldr	r2, [r5, #4]
 8084250:	688b      	ldr	r3, [r1, #8]
 8084252:	429a      	cmp	r2, r3
 8084254:	d307      	bcc.n	8084266 <_ZN6String4moveERS_+0x22>
			strcpy(buffer, rhs.buffer);
 8084256:	6809      	ldr	r1, [r1, #0]
 8084258:	f001 fd40 	bl	8085cdc <strcpy>
			len = rhs.len;
 808425c:	68a3      	ldr	r3, [r4, #8]
 808425e:	60ab      	str	r3, [r5, #8]
			rhs.len = 0;
 8084260:	2300      	movs	r3, #0
	buffer = rhs.buffer;
	capacity = rhs.capacity;
	len = rhs.len;
	rhs.buffer = NULL;
	rhs.capacity = 0;
	rhs.len = 0;
 8084262:	60a3      	str	r3, [r4, #8]
}
 8084264:	bd38      	pop	{r3, r4, r5, pc}
			free(buffer);
 8084266:	f7fd fe7b 	bl	8081f60 <free>
	buffer = rhs.buffer;
 808426a:	6823      	ldr	r3, [r4, #0]
 808426c:	602b      	str	r3, [r5, #0]
	capacity = rhs.capacity;
 808426e:	6863      	ldr	r3, [r4, #4]
 8084270:	606b      	str	r3, [r5, #4]
	len = rhs.len;
 8084272:	68a3      	ldr	r3, [r4, #8]
 8084274:	60ab      	str	r3, [r5, #8]
	rhs.buffer = NULL;
 8084276:	2300      	movs	r3, #0
	rhs.capacity = 0;
 8084278:	e9c4 3300 	strd	r3, r3, [r4]
 808427c:	e7f1      	b.n	8084262 <_ZN6String4moveERS_+0x1e>

0808427e <_ZN6StringC1EOS_>:
	buffer = NULL;
 808427e:	2300      	movs	r3, #0
String::String(String &&rval)
 8084280:	b510      	push	{r4, lr}
 8084282:	4604      	mov	r4, r0
	capacity = 0;
 8084284:	e9c0 3300 	strd	r3, r3, [r0]
	len = 0;
 8084288:	6083      	str	r3, [r0, #8]
	flags = 0;
 808428a:	7303      	strb	r3, [r0, #12]
	move(rval);
 808428c:	f7ff ffda 	bl	8084244 <_ZN6String4moveERS_>
}
 8084290:	4620      	mov	r0, r4
 8084292:	bd10      	pop	{r4, pc}

08084294 <_ZN6StringaSERKS_>:
#endif

String & String::operator = (const String &rhs)
{
	if (this == &rhs) return *this;
 8084294:	4288      	cmp	r0, r1
{
 8084296:	b510      	push	{r4, lr}
 8084298:	460b      	mov	r3, r1
 808429a:	4604      	mov	r4, r0
	if (this == &rhs) return *this;
 808429c:	d004      	beq.n	80842a8 <_ZN6StringaSERKS_+0x14>

	if (rhs.buffer) copy(rhs.buffer, rhs.len);
 808429e:	6809      	ldr	r1, [r1, #0]
 80842a0:	b121      	cbz	r1, 80842ac <_ZN6StringaSERKS_+0x18>
 80842a2:	689a      	ldr	r2, [r3, #8]
 80842a4:	f7ff ffa3 	bl	80841ee <_ZN6String4copyEPKcj>
	else invalidate();

	return *this;
}
 80842a8:	4620      	mov	r0, r4
 80842aa:	bd10      	pop	{r4, pc}
	else invalidate();
 80842ac:	f7ff ff74 	bl	8084198 <_ZN6String10invalidateEv>
 80842b0:	e7fa      	b.n	80842a8 <_ZN6StringaSERKS_+0x14>

080842b2 <_ZN6StringC1ERKS_>:
	buffer = NULL;
 80842b2:	2300      	movs	r3, #0
String::String(const String &value)
 80842b4:	b510      	push	{r4, lr}
 80842b6:	4604      	mov	r4, r0
	capacity = 0;
 80842b8:	e9c0 3300 	strd	r3, r3, [r0]
	len = 0;
 80842bc:	6083      	str	r3, [r0, #8]
	flags = 0;
 80842be:	7303      	strb	r3, [r0, #12]
	*this = value;
 80842c0:	f7ff ffe8 	bl	8084294 <_ZN6StringaSERKS_>
}
 80842c4:	4620      	mov	r0, r4
 80842c6:	bd10      	pop	{r4, pc}

080842c8 <_ZNK6String6equalsEPKc>:
{
	return (len == s2.len && compareTo(s2) == 0);
}

unsigned char String::equals(const char *cstr) const
{
 80842c8:	b508      	push	{r3, lr}
	if (len == 0) return (cstr == NULL || *cstr == 0);
 80842ca:	6882      	ldr	r2, [r0, #8]
 80842cc:	b93a      	cbnz	r2, 80842de <_ZNK6String6equalsEPKc+0x16>
 80842ce:	b121      	cbz	r1, 80842da <_ZNK6String6equalsEPKc+0x12>
 80842d0:	7808      	ldrb	r0, [r1, #0]
	if (cstr == NULL) return buffer[0] == 0;
	return strcmp(buffer, cstr) == 0;
 80842d2:	fab0 f080 	clz	r0, r0
 80842d6:	0940      	lsrs	r0, r0, #5
 80842d8:	e000      	b.n	80842dc <_ZNK6String6equalsEPKc+0x14>
	if (len == 0) return (cstr == NULL || *cstr == 0);
 80842da:	2001      	movs	r0, #1
}
 80842dc:	bd08      	pop	{r3, pc}
	if (cstr == NULL) return buffer[0] == 0;
 80842de:	6800      	ldr	r0, [r0, #0]
 80842e0:	b909      	cbnz	r1, 80842e6 <_ZNK6String6equalsEPKc+0x1e>
 80842e2:	7800      	ldrb	r0, [r0, #0]
 80842e4:	e7f5      	b.n	80842d2 <_ZNK6String6equalsEPKc+0xa>
	return strcmp(buffer, cstr) == 0;
 80842e6:	f001 fcef 	bl	8085cc8 <strcmp>
 80842ea:	e7f2      	b.n	80842d2 <_ZNK6String6equalsEPKc+0xa>

080842ec <_ZNK6String8getBytesEPhjj>:
	if (index >= len || !buffer) return 0;
	return buffer[index];
}

void String::getBytes(unsigned char *buf, unsigned int bufsize, unsigned int index) const
{
 80842ec:	b558      	push	{r3, r4, r6, lr}
 80842ee:	460e      	mov	r6, r1
	if (!bufsize || !buf) return;
 80842f0:	b12a      	cbz	r2, 80842fe <_ZNK6String8getBytesEPhjj+0x12>
 80842f2:	b121      	cbz	r1, 80842fe <_ZNK6String8getBytesEPhjj+0x12>
	if (index >= len) {
 80842f4:	6884      	ldr	r4, [r0, #8]
 80842f6:	42a3      	cmp	r3, r4
 80842f8:	d302      	bcc.n	8084300 <_ZNK6String8getBytesEPhjj+0x14>
		buf[0] = 0;
 80842fa:	2300      	movs	r3, #0
 80842fc:	700b      	strb	r3, [r1, #0]
	}
	unsigned int n = bufsize - 1;
	if (n > len - index) n = len - index;
	strncpy((char *)buf, buffer + index, n);
	buf[n] = 0;
}
 80842fe:	bd58      	pop	{r3, r4, r6, pc}
	if (n > len - index) n = len - index;
 8084300:	1ae4      	subs	r4, r4, r3
	unsigned int n = bufsize - 1;
 8084302:	3a01      	subs	r2, #1
	if (n > len - index) n = len - index;
 8084304:	4294      	cmp	r4, r2
 8084306:	bf28      	it	cs
 8084308:	4614      	movcs	r4, r2
	strncpy((char *)buf, buffer + index, n);
 808430a:	6801      	ldr	r1, [r0, #0]
 808430c:	4622      	mov	r2, r4
 808430e:	4419      	add	r1, r3
 8084310:	4630      	mov	r0, r6
 8084312:	f001 fd20 	bl	8085d56 <strncpy>
	buf[n] = 0;
 8084316:	2300      	movs	r3, #0
 8084318:	5533      	strb	r3, [r6, r4]
 808431a:	e7f0      	b.n	80842fe <_ZNK6String8getBytesEPhjj+0x12>

0808431c <_ZN17SystemSleepResult22freeWakeupSourceMemoryEv.isra.0>:
    operator SleepResult() {
        return toSleepResult();
    }

private:
    void freeWakeupSourceMemory() {
 808431c:	b510      	push	{r4, lr}
 808431e:	4604      	mov	r4, r0
        if (wakeupSource_) {
 8084320:	6800      	ldr	r0, [r0, #0]
 8084322:	b118      	cbz	r0, 808432c <_ZN17SystemSleepResult22freeWakeupSourceMemoryEv.isra.0+0x10>
            free(wakeupSource_);
 8084324:	f7fd fe1c 	bl	8081f60 <free>
            wakeupSource_ = nullptr;
 8084328:	2300      	movs	r3, #0
 808432a:	6023      	str	r3, [r4, #0]
        }
    }
 808432c:	bd10      	pop	{r4, pc}

0808432e <_ZN17SystemSleepResultaSEOS_>:
    SystemSleepResult& operator=(SystemSleepResult&& result) {
 808432e:	b538      	push	{r3, r4, r5, lr}
        error_ = result.error_;
 8084330:	f9b1 3004 	ldrsh.w	r3, [r1, #4]
    SystemSleepResult& operator=(SystemSleepResult&& result) {
 8084334:	460d      	mov	r5, r1
        error_ = result.error_;
 8084336:	8083      	strh	r3, [r0, #4]
        compatResult_ = result.compatResult_;
 8084338:	460b      	mov	r3, r1
 808433a:	f853 2f06 	ldr.w	r2, [r3, #6]!
    SystemSleepResult& operator=(SystemSleepResult&& result) {
 808433e:	4604      	mov	r4, r0
        compatResult_ = result.compatResult_;
 8084340:	f8c0 2006 	str.w	r2, [r0, #6]
 8084344:	889b      	ldrh	r3, [r3, #4]
 8084346:	8143      	strh	r3, [r0, #10]
        freeWakeupSourceMemory();
 8084348:	f7ff ffe8 	bl	808431c <_ZN17SystemSleepResult22freeWakeupSourceMemoryEv.isra.0>
        if (result.wakeupSource_) {
 808434c:	682b      	ldr	r3, [r5, #0]
 808434e:	b113      	cbz	r3, 8084356 <_ZN17SystemSleepResultaSEOS_+0x28>
            wakeupSource_ = result.wakeupSource_;
 8084350:	6023      	str	r3, [r4, #0]
            result.wakeupSource_ = nullptr;
 8084352:	2300      	movs	r3, #0
 8084354:	602b      	str	r3, [r5, #0]
    }
 8084356:	4620      	mov	r0, r4
 8084358:	bd38      	pop	{r3, r4, r5, pc}

0808435a <_ZN17SystemSleepResult13toSleepResultEv>:
        if (error_ || wakeupSource_) {
 808435a:	f9b1 3004 	ldrsh.w	r3, [r1, #4]
    SleepResult toSleepResult() {
 808435e:	b510      	push	{r4, lr}
 8084360:	680a      	ldr	r2, [r1, #0]
        if (error_ || wakeupSource_) {
 8084362:	b933      	cbnz	r3, 8084372 <_ZN17SystemSleepResult13toSleepResultEv+0x18>
 8084364:	b932      	cbnz	r2, 8084374 <_ZN17SystemSleepResult13toSleepResultEv+0x1a>
        return compatResult_;
 8084366:	f851 3f06 	ldr.w	r3, [r1, #6]!
 808436a:	6003      	str	r3, [r0, #0]
 808436c:	888b      	ldrh	r3, [r1, #4]
 808436e:	8083      	strh	r3, [r0, #4]
    }
 8084370:	bd10      	pop	{r4, pc}
        if (wakeupSource_) {
 8084372:	b122      	cbz	r2, 808437e <_ZN17SystemSleepResult13toSleepResultEv+0x24>
            return static_cast<SystemSleepWakeupReason>(wakeupSource_->type);
 8084374:	8894      	ldrh	r4, [r2, #4]
            switch (wakeupReason()) {
 8084376:	2c01      	cmp	r4, #1
 8084378:	d003      	beq.n	8084382 <_ZN17SystemSleepResult13toSleepResultEv+0x28>
 808437a:	2c04      	cmp	r4, #4
 808437c:	d006      	beq.n	808438c <_ZN17SystemSleepResult13toSleepResultEv+0x32>
                    compatResult_ = SleepResult(WAKEUP_REASON_UNKNOWN, error());
 808437e:	2204      	movs	r2, #4
 8084380:	e005      	b.n	808438e <_ZN17SystemSleepResult13toSleepResultEv+0x34>
            return reinterpret_cast<hal_wakeup_source_gpio_t*>(wakeupSource_)->pin;
 8084382:	8992      	ldrh	r2, [r2, #12]
                    compatResult_ = SleepResult(WAKEUP_REASON_PIN, error(), wakeupPin());
 8084384:	718c      	strb	r4, [r1, #6]
 8084386:	810b      	strh	r3, [r1, #8]
 8084388:	814a      	strh	r2, [r1, #10]
                    break;
 808438a:	e7ec      	b.n	8084366 <_ZN17SystemSleepResult13toSleepResultEv+0xc>
                    compatResult_ = SleepResult(WAKEUP_REASON_RTC, error());
 808438c:	2202      	movs	r2, #2
                    compatResult_ = SleepResult(WAKEUP_REASON_UNKNOWN, error());
 808438e:	810b      	strh	r3, [r1, #8]
 8084390:	f64f 73ff 	movw	r3, #65535	; 0xffff
 8084394:	718a      	strb	r2, [r1, #6]
 8084396:	814b      	strh	r3, [r1, #10]
                    break;
 8084398:	e7e5      	b.n	8084366 <_ZN17SystemSleepResult13toSleepResultEv+0xc>

0808439a <_ZN11SystemClass5resetEmN8particle5FlagsI19SystemResetFlagTypemEE>:
{
    reset(0, flags);
}

void SystemClass::reset(uint32_t data, SystemResetFlags flags)
{
 808439a:	b507      	push	{r0, r1, r2, lr}
 808439c:	460b      	mov	r3, r1
    system_reset(SYSTEM_RESET_MODE_NORMAL, RESET_REASON_USER, data, flags.value(), nullptr);
 808439e:	2100      	movs	r1, #0
{
 80843a0:	4602      	mov	r2, r0
    system_reset(SYSTEM_RESET_MODE_NORMAL, RESET_REASON_USER, data, flags.value(), nullptr);
 80843a2:	9100      	str	r1, [sp, #0]
 80843a4:	2001      	movs	r0, #1
 80843a6:	218c      	movs	r1, #140	; 0x8c
 80843a8:	f7fd fd00 	bl	8081dac <system_reset>
}
 80843ac:	b003      	add	sp, #12
 80843ae:	f85d fb04 	ldr.w	pc, [sp], #4

080843b2 <_ZN11SystemClass5resetEN8particle5FlagsI19SystemResetFlagTypemEE>:
{
 80843b2:	4601      	mov	r1, r0
    reset(0, flags);
 80843b4:	2000      	movs	r0, #0
 80843b6:	f7ff bff0 	b.w	808439a <_ZN11SystemClass5resetEmN8particle5FlagsI19SystemResetFlagTypemEE>

080843ba <_ZN11SystemClass5resetEv>:
    reset(SystemResetFlags());
 80843ba:	2000      	movs	r0, #0
 80843bc:	f7ff bff9 	b.w	80843b2 <_ZN11SystemClass5resetEN8particle5FlagsI19SystemResetFlagTypemEE>

080843c0 <_ZN11SystemClass5sleepE19Spark_Sleep_TypeDeflN8particle5FlagsI19SleepOptionFlagTypemEE>:
    }
    return System.systemSleepResult_;
}

SleepResult SystemClass::sleep(Spark_Sleep_TypeDef sleepMode, long seconds, SleepOptionFlags flags)
{
 80843c0:	b530      	push	{r4, r5, lr}
 80843c2:	4604      	mov	r4, r0
 80843c4:	b085      	sub	sp, #20
 80843c6:	4608      	mov	r0, r1
 80843c8:	4611      	mov	r1, r2
 80843ca:	461a      	mov	r2, r3
    int ret = system_sleep(sleepMode, seconds, flags.value(), NULL);
 80843cc:	2300      	movs	r3, #0
 80843ce:	f7fd fcb1 	bl	8081d34 <system_sleep>
              compatResult_(r) {
 80843d2:	2300      	movs	r3, #0
 80843d4:	9301      	str	r3, [sp, #4]
 80843d6:	f8ad 3008 	strh.w	r3, [sp, #8]
 80843da:	f88d 300a 	strb.w	r3, [sp, #10]
 80843de:	f64f 73ff 	movw	r3, #65535	; 0xffff
    System.systemSleepResult_ = SystemSleepResult(SleepResult(WAKEUP_REASON_NONE, static_cast<system_error_t>(ret)));
 80843e2:	4d09      	ldr	r5, [pc, #36]	; (8084408 <_ZN11SystemClass5sleepE19Spark_Sleep_TypeDeflN8particle5FlagsI19SleepOptionFlagTypemEE+0x48>)
 80843e4:	a901      	add	r1, sp, #4
 80843e6:	f8ad 000c 	strh.w	r0, [sp, #12]
 80843ea:	4628      	mov	r0, r5
 80843ec:	f8ad 300e 	strh.w	r3, [sp, #14]
 80843f0:	f7ff ff9d 	bl	808432e <_ZN17SystemSleepResultaSEOS_>
        freeWakeupSourceMemory();
 80843f4:	a801      	add	r0, sp, #4
 80843f6:	f7ff ff91 	bl	808431c <_ZN17SystemSleepResult22freeWakeupSourceMemoryEv.isra.0>
        return toSleepResult();
 80843fa:	4620      	mov	r0, r4
 80843fc:	4629      	mov	r1, r5
 80843fe:	f7ff ffac 	bl	808435a <_ZN17SystemSleepResult13toSleepResultEv>
    return System.systemSleepResult_;
}
 8084402:	4620      	mov	r0, r4
 8084404:	b005      	add	sp, #20
 8084406:	bd30      	pop	{r4, r5, pc}
 8084408:	2000021c 	.word	0x2000021c

0808440c <_GLOBAL__sub_I_System>:
} // namespace particle

// particle::Flag<TagT, ValueT>
template<typename TagT, typename ValueT>
inline particle::Flag<TagT, ValueT>::Flag(ValueT val) :
        val_(val) {
 808440c:	2202      	movs	r2, #2
              error_(SYSTEM_ERROR_NONE) {
 808440e:	2000      	movs	r0, #0
 8084410:	4b04      	ldr	r3, [pc, #16]	; (8084424 <_GLOBAL__sub_I_System+0x18>)
 8084412:	601a      	str	r2, [r3, #0]
 8084414:	4b04      	ldr	r3, [pc, #16]	; (8084428 <_GLOBAL__sub_I_System+0x1c>)
    SleepResult() {}
 8084416:	4a05      	ldr	r2, [pc, #20]	; (808442c <_GLOBAL__sub_I_System+0x20>)
              error_(SYSTEM_ERROR_NONE) {
 8084418:	6018      	str	r0, [r3, #0]
 808441a:	8098      	strh	r0, [r3, #4]
    SleepResult() {}
 808441c:	7198      	strb	r0, [r3, #6]
 808441e:	609a      	str	r2, [r3, #8]

class SystemClass {
public:

    SystemClass(System_Mode_TypeDef mode = DEFAULT) {
        set_system_mode(mode);
 8084420:	f7fd bc78 	b.w	8081d14 <set_system_mode>
 8084424:	20000228 	.word	0x20000228
 8084428:	2000021c 	.word	0x2000021c
 808442c:	ffff0000 	.word	0xffff0000

08084430 <_ZL22Refresh_UnixTime_Cachex>:
	return calendar_time;
}

/* Refresh Unix/RTC time cache */
static void Refresh_UnixTime_Cache(time_t unix_time)
{
 8084430:	e92d 41f0 	stmdb	sp!, {r4, r5, r6, r7, r8, lr}
    unix_time += time_zone_cache;
 8084434:	4a15      	ldr	r2, [pc, #84]	; (808448c <_ZL22Refresh_UnixTime_Cachex+0x5c>)
    unix_time += dst_current_cache;
    if(unix_time != unix_time_cache)
 8084436:	f8df 8060 	ldr.w	r8, [pc, #96]	; 8084498 <_ZL22Refresh_UnixTime_Cachex+0x68>
    unix_time += time_zone_cache;
 808443a:	e9d2 3200 	ldrd	r3, r2, [r2]
 808443e:	18c0      	adds	r0, r0, r3
 8084440:	eb42 0101 	adc.w	r1, r2, r1
    unix_time += dst_current_cache;
 8084444:	4a12      	ldr	r2, [pc, #72]	; (8084490 <_ZL22Refresh_UnixTime_Cachex+0x60>)
{
 8084446:	b08c      	sub	sp, #48	; 0x30
    unix_time += dst_current_cache;
 8084448:	e9d2 3200 	ldrd	r3, r2, [r2]
 808444c:	18c6      	adds	r6, r0, r3
 808444e:	eb41 0702 	adc.w	r7, r1, r2
    if(unix_time != unix_time_cache)
 8084452:	e9d8 2300 	ldrd	r2, r3, [r8]
 8084456:	42bb      	cmp	r3, r7
 8084458:	bf08      	it	eq
 808445a:	42b2      	cmpeq	r2, r6
 808445c:	d013      	beq.n	8084486 <_ZL22Refresh_UnixTime_Cachex+0x56>
	localtime_r(&unix_time, &calendar_time);
 808445e:	a903      	add	r1, sp, #12
 8084460:	4668      	mov	r0, sp
 8084462:	e9cd 6700 	strd	r6, r7, [sp]
 8084466:	f7fb fddb 	bl	8080020 <localtime_r>
	calendar_time.tm_year += 1900;
 808446a:	9b08      	ldr	r3, [sp, #32]
    {
            calendar_time_cache = Convert_UnixTime_To_CalendarTime(unix_time);
 808446c:	4d09      	ldr	r5, [pc, #36]	; (8084494 <_ZL22Refresh_UnixTime_Cachex+0x64>)
	calendar_time.tm_year += 1900;
 808446e:	f203 736c 	addw	r3, r3, #1900	; 0x76c
            calendar_time_cache = Convert_UnixTime_To_CalendarTime(unix_time);
 8084472:	ac03      	add	r4, sp, #12
	calendar_time.tm_year += 1900;
 8084474:	9308      	str	r3, [sp, #32]
            calendar_time_cache = Convert_UnixTime_To_CalendarTime(unix_time);
 8084476:	cc0f      	ldmia	r4!, {r0, r1, r2, r3}
 8084478:	c50f      	stmia	r5!, {r0, r1, r2, r3}
 808447a:	cc0f      	ldmia	r4!, {r0, r1, r2, r3}
 808447c:	c50f      	stmia	r5!, {r0, r1, r2, r3}
            unix_time_cache = unix_time;
 808447e:	e9c8 6700 	strd	r6, r7, [r8]
            calendar_time_cache = Convert_UnixTime_To_CalendarTime(unix_time);
 8084482:	6823      	ldr	r3, [r4, #0]
 8084484:	602b      	str	r3, [r5, #0]
    }
}
 8084486:	b00c      	add	sp, #48	; 0x30
 8084488:	e8bd 81f0 	ldmia.w	sp!, {r4, r5, r6, r7, r8, pc}
 808448c:	20000260 	.word	0x20000260
 8084490:	20000258 	.word	0x20000258
 8084494:	20000230 	.word	0x20000230
 8084498:	20000268 	.word	0x20000268

0808449c <_ZN10CloudClass12syncTimeDoneEv.isra.0>:
    bool syncTimeDone(void)
 808449c:	b508      	push	{r3, lr}
        return !spark_sync_time_pending(nullptr) || disconnected();
 808449e:	2000      	movs	r0, #0
 80844a0:	f7fd fcd6 	bl	8081e50 <spark_sync_time_pending>
 80844a4:	b128      	cbz	r0, 80844b2 <_ZN10CloudClass12syncTimeDoneEv.isra.0+0x16>
    static bool connected(void) { return spark_cloud_flag_connected(); }
 80844a6:	f7fd fcab 	bl	8081e00 <spark_cloud_flag_connected>
        return !spark_sync_time_pending(nullptr) || disconnected();
 80844aa:	f080 0001 	eor.w	r0, r0, #1
 80844ae:	b2c0      	uxtb	r0, r0
    }
 80844b0:	bd08      	pop	{r3, pc}
        return !spark_sync_time_pending(nullptr) || disconnected();
 80844b2:	2001      	movs	r0, #1
 80844b4:	e7fc      	b.n	80844b0 <_ZN10CloudClass12syncTimeDoneEv.isra.0+0x14>
	...

080844b8 <_ZN9TimeClass4zoneEf>:
	return now() + time_zone_cache + dst_current_cache;
}

/* set the time zone (+/-) offset from GMT */
void TimeClass::zone(float GMT_Offset)
{
 80844b8:	b510      	push	{r4, lr}
	if(GMT_Offset < -12 || GMT_Offset > 14)
 80844ba:	490a      	ldr	r1, [pc, #40]	; (80844e4 <_ZN9TimeClass4zoneEf+0x2c>)
{
 80844bc:	4604      	mov	r4, r0
	if(GMT_Offset < -12 || GMT_Offset > 14)
 80844be:	f001 facf 	bl	8085a60 <__aeabi_fcmplt>
 80844c2:	b968      	cbnz	r0, 80844e0 <_ZN9TimeClass4zoneEf+0x28>
 80844c4:	4620      	mov	r0, r4
 80844c6:	4908      	ldr	r1, [pc, #32]	; (80844e8 <_ZN9TimeClass4zoneEf+0x30>)
 80844c8:	f001 fae8 	bl	8085a9c <__aeabi_fcmpgt>
 80844cc:	b940      	cbnz	r0, 80844e0 <_ZN9TimeClass4zoneEf+0x28>
	{
		return;
	}
	time_zone_cache = GMT_Offset * 3600;
 80844ce:	4907      	ldr	r1, [pc, #28]	; (80844ec <_ZN9TimeClass4zoneEf+0x34>)
 80844d0:	4620      	mov	r0, r4
 80844d2:	f001 f927 	bl	8085724 <__aeabi_fmul>
 80844d6:	f001 fb11 	bl	8085afc <__aeabi_f2lz>
 80844da:	4b05      	ldr	r3, [pc, #20]	; (80844f0 <_ZN9TimeClass4zoneEf+0x38>)
 80844dc:	e9c3 0100 	strd	r0, r1, [r3]
}
 80844e0:	bd10      	pop	{r4, pc}
 80844e2:	bf00      	nop
 80844e4:	c1400000 	.word	0xc1400000
 80844e8:	41600000 	.word	0x41600000
 80844ec:	45610000 	.word	0x45610000
 80844f0:	20000260 	.word	0x20000260

080844f4 <_ZN9TimeClass7timeStrEx>:
    }
}

/* return string representation for the given time */
String TimeClass::timeStr(time_t t)
{
 80844f4:	b530      	push	{r4, r5, lr}
 80844f6:	4604      	mov	r4, r0
    t += time_zone_cache;
 80844f8:	4818      	ldr	r0, [pc, #96]	; (808455c <_ZN9TimeClass7timeStrEx+0x68>)
{
 80844fa:	b093      	sub	sp, #76	; 0x4c
    t += time_zone_cache;
 80844fc:	e9d0 1000 	ldrd	r1, r0, [r0]
 8084500:	1852      	adds	r2, r2, r1
 8084502:	eb40 0303 	adc.w	r3, r0, r3
    t += dst_current_cache;
 8084506:	4816      	ldr	r0, [pc, #88]	; (8084560 <_ZN9TimeClass7timeStrEx+0x6c>)
    struct tm calendar_time = {};
    localtime_r(&t, &calendar_time);
    char ascstr[26] = {};
 8084508:	2500      	movs	r5, #0
    t += dst_current_cache;
 808450a:	e9d0 1000 	ldrd	r1, r0, [r0]
 808450e:	1852      	adds	r2, r2, r1
 8084510:	eb40 0303 	adc.w	r3, r0, r3
 8084514:	e9cd 2300 	strd	r2, r3, [sp]
    struct tm calendar_time = {};
 8084518:	2224      	movs	r2, #36	; 0x24
 808451a:	2100      	movs	r1, #0
 808451c:	eb0d 0002 	add.w	r0, sp, r2
 8084520:	f001 fb7f 	bl	8085c22 <memset>
    localtime_r(&t, &calendar_time);
 8084524:	a909      	add	r1, sp, #36	; 0x24
 8084526:	4668      	mov	r0, sp
 8084528:	f7fb fd7a 	bl	8080020 <localtime_r>
    char ascstr[26] = {};
 808452c:	2216      	movs	r2, #22
 808452e:	4629      	mov	r1, r5
 8084530:	a803      	add	r0, sp, #12
 8084532:	9502      	str	r5, [sp, #8]
 8084534:	f001 fb75 	bl	8085c22 <memset>
    asctime_r(&calendar_time, ascstr);
 8084538:	a902      	add	r1, sp, #8
 808453a:	a809      	add	r0, sp, #36	; 0x24
 808453c:	f001 fb12 	bl	8085b64 <asctime_r>
    int len = strlen(ascstr);
 8084540:	a802      	add	r0, sp, #8
 8084542:	f001 fbee 	bl	8085d22 <strlen>
    ascstr[len-1] = 0; // remove final newline
 8084546:	ab12      	add	r3, sp, #72	; 0x48
 8084548:	4418      	add	r0, r3
 808454a:	f800 5c41 	strb.w	r5, [r0, #-65]
    return String(ascstr);
 808454e:	a902      	add	r1, sp, #8
 8084550:	4620      	mov	r0, r4
 8084552:	f7ff fe64 	bl	808421e <_ZN6StringC1EPKc>
}
 8084556:	4620      	mov	r0, r4
 8084558:	b013      	add	sp, #76	; 0x4c
 808455a:	bd30      	pop	{r4, r5, pc}
 808455c:	20000260 	.word	0x20000260
 8084560:	20000258 	.word	0x20000258

08084564 <_ZN9TimeClass7isValidEv>:
    strftime(buf, sizeof(buf), format_str, calendar_time);
    return String(buf);
}

bool TimeClass::isValid()
{
 8084564:	b510      	push	{r4, lr}
    bool rtcstate = hal_rtc_time_is_valid(nullptr);
 8084566:	2000      	movs	r0, #0
 8084568:	f7fd fa42 	bl	80819f0 <hal_rtc_time_is_valid>
    if (rtcstate)
 808456c:	4604      	mov	r4, r0
 808456e:	b9a0      	cbnz	r0, 808459a <_ZN9TimeClass7isValidEv+0x36>
    }

    static System_Mode_TypeDef mode(void) {
        return system_mode();
 8084570:	f7fd fbc8 	bl	8081d04 <system_mode>
        return rtcstate;
    if (System.mode() == AUTOMATIC && system_thread_get_state(nullptr) == spark::feature::DISABLED)
 8084574:	2801      	cmp	r0, #1
 8084576:	d110      	bne.n	808459a <_ZN9TimeClass7isValidEv+0x36>
 8084578:	4620      	mov	r0, r4
 808457a:	f7fd fbfb 	bl	8081d74 <system_thread_get_state>
 808457e:	b960      	cbnz	r0, 808459a <_ZN9TimeClass7isValidEv+0x36>
    {
        waitUntil(Particle.syncTimeDone);
 8084580:	f7ff ff8c 	bl	808449c <_ZN10CloudClass12syncTimeDoneEv.isra.0>


    static uint32_t freeMemory();

    template<typename Condition, typename While> static bool waitConditionWhile(Condition _condition, While _while) {
        while (_while() && !_condition()) {
 8084584:	b910      	cbnz	r0, 808458c <_ZN9TimeClass7isValidEv+0x28>
            spark_process();
 8084586:	f7fd fc2b 	bl	8081de0 <spark_process>
        while (_while() && !_condition()) {
 808458a:	e7f9      	b.n	8084580 <_ZN9TimeClass7isValidEv+0x1c>
 808458c:	f7ff ff86 	bl	808449c <_ZN10CloudClass12syncTimeDoneEv.isra.0>
        return hal_rtc_time_is_valid(nullptr);
    }
    return rtcstate;
}
 8084590:	e8bd 4010 	ldmia.w	sp!, {r4, lr}
        return hal_rtc_time_is_valid(nullptr);
 8084594:	2000      	movs	r0, #0
 8084596:	f7fd ba2b 	b.w	80819f0 <hal_rtc_time_is_valid>
}
 808459a:	4620      	mov	r0, r4
 808459c:	bd10      	pop	{r4, pc}

0808459e <_ZN9TimeClass3nowEv>:
{
 808459e:	b51f      	push	{r0, r1, r2, r3, r4, lr}
    (void)isValid();
 80845a0:	f7ff ffe0 	bl	8084564 <_ZN9TimeClass7isValidEv>
    struct timeval tv = {};
 80845a4:	2210      	movs	r2, #16
 80845a6:	2100      	movs	r1, #0
 80845a8:	4668      	mov	r0, sp
 80845aa:	f001 fb3a 	bl	8085c22 <memset>
    hal_rtc_get_time(&tv, nullptr);
 80845ae:	2100      	movs	r1, #0
 80845b0:	4668      	mov	r0, sp
 80845b2:	f7fd fa2d 	bl	8081a10 <hal_rtc_get_time>
}
 80845b6:	9800      	ldr	r0, [sp, #0]
 80845b8:	b005      	add	sp, #20
 80845ba:	f85d fb04 	ldr.w	pc, [sp], #4
	...

080845c0 <_ZN9TimeClass4hourEv>:
{
 80845c0:	b508      	push	{r3, lr}
	return hour(now());
 80845c2:	f7ff ffec 	bl	808459e <_ZN9TimeClass3nowEv>
	Refresh_UnixTime_Cache(t);
 80845c6:	17c1      	asrs	r1, r0, #31
 80845c8:	f7ff ff32 	bl	8084430 <_ZL22Refresh_UnixTime_Cachex>
}
 80845cc:	4b01      	ldr	r3, [pc, #4]	; (80845d4 <_ZN9TimeClass4hourEv+0x14>)
 80845ce:	6898      	ldr	r0, [r3, #8]
 80845d0:	bd08      	pop	{r3, pc}
 80845d2:	bf00      	nop
 80845d4:	20000230 	.word	0x20000230

080845d8 <_ZN9TimeClass6minuteEv>:
{
 80845d8:	b508      	push	{r3, lr}
	return minute(now());
 80845da:	f7ff ffe0 	bl	808459e <_ZN9TimeClass3nowEv>
	Refresh_UnixTime_Cache(t);
 80845de:	17c1      	asrs	r1, r0, #31
 80845e0:	f7ff ff26 	bl	8084430 <_ZL22Refresh_UnixTime_Cachex>
}
 80845e4:	4b01      	ldr	r3, [pc, #4]	; (80845ec <_ZN9TimeClass6minuteEv+0x14>)
 80845e6:	6858      	ldr	r0, [r3, #4]
 80845e8:	bd08      	pop	{r3, pc}
 80845ea:	bf00      	nop
 80845ec:	20000230 	.word	0x20000230

080845f0 <_GLOBAL__sub_I_TIME_FORMAT_DEFAULT>:
const char* TimeClass::format_spec = TIME_FORMAT_DEFAULT;
 80845f0:	4b02      	ldr	r3, [pc, #8]	; (80845fc <_GLOBAL__sub_I_TIME_FORMAT_DEFAULT+0xc>)
 80845f2:	681a      	ldr	r2, [r3, #0]
 80845f4:	4b02      	ldr	r3, [pc, #8]	; (8084600 <_GLOBAL__sub_I_TIME_FORMAT_DEFAULT+0x10>)
 80845f6:	601a      	str	r2, [r3, #0]
{
  return isValid();
}


TimeClass Time;
 80845f8:	4770      	bx	lr
 80845fa:	bf00      	nop
 80845fc:	20000094 	.word	0x20000094
 8084600:	2000022c 	.word	0x2000022c

08084604 <_ZN11USARTSerialD1Ev>:
private:
  hal_usart_interface_t _serial;
  bool _blocking;
public:
  USARTSerial(hal_usart_interface_t serial, hal_usart_ring_buffer_t *rx_buffer, hal_usart_ring_buffer_t *tx_buffer);
  virtual ~USARTSerial() {};
 8084604:	4770      	bx	lr

08084606 <_ZN11USARTSerial14blockOnOverrunEb>:
    hal_usart_half_duplex(_serial, Enable);
}

void USARTSerial::blockOnOverrun(bool block)
{
  _blocking = block;
 8084606:	7441      	strb	r1, [r0, #17]
}
 8084608:	4770      	bx	lr

0808460a <__tcf_0>:
#endif

USARTSerial& __fetch_global_Serial1()
{
#if ((MODULE_FUNCTION == MOD_FUNC_USER_PART) || (MODULE_FUNCTION == MOD_FUNC_MONO_FIRMWARE))
	static USARTSerial serial1(HAL_USART_SERIAL1, &serial1_rx_buffer, &serial1_tx_buffer);
 808460a:	4770      	bx	lr

0808460c <_ZN11USARTSerial17availableForWriteEv>:
{
 808460c:	b508      	push	{r3, lr}
  return std::max(0, (int)hal_usart_available_data_for_write(_serial));
 808460e:	7c00      	ldrb	r0, [r0, #16]
 8084610:	f7fd fafe 	bl	8081c10 <hal_usart_available_data_for_write>
}
 8084614:	ea20 70e0 	bic.w	r0, r0, r0, asr #31
 8084618:	bd08      	pop	{r3, pc}

0808461a <_ZN11USARTSerial9availableEv>:
{
 808461a:	b508      	push	{r3, lr}
  return std::max(0, (int)hal_usart_available(_serial));
 808461c:	7c00      	ldrb	r0, [r0, #16]
 808461e:	f7fd facf 	bl	8081bc0 <hal_usart_available>
}
 8084622:	ea20 70e0 	bic.w	r0, r0, r0, asr #31
 8084626:	bd08      	pop	{r3, pc}

08084628 <_ZN11USARTSerial4peekEv>:
{
 8084628:	b508      	push	{r3, lr}
  return std::max(-1, (int)hal_usart_peek(_serial));
 808462a:	7c00      	ldrb	r0, [r0, #16]
 808462c:	f7fd fad8 	bl	8081be0 <hal_usart_peek>
}
 8084630:	ea40 70e0 	orr.w	r0, r0, r0, asr #31
 8084634:	bd08      	pop	{r3, pc}

08084636 <_ZN11USARTSerial4readEv>:
{
 8084636:	b508      	push	{r3, lr}
  return std::max(-1, (int)hal_usart_read(_serial));
 8084638:	7c00      	ldrb	r0, [r0, #16]
 808463a:	f7fd fac9 	bl	8081bd0 <hal_usart_read>
}
 808463e:	ea40 70e0 	orr.w	r0, r0, r0, asr #31
 8084642:	bd08      	pop	{r3, pc}

08084644 <_ZN11USARTSerial5flushEv>:
  hal_usart_flush(_serial);
 8084644:	7c00      	ldrb	r0, [r0, #16]
 8084646:	f7fd bad3 	b.w	8081bf0 <hal_usart_flush>

0808464a <_ZN11USARTSerial5writeEh>:
{
 808464a:	b570      	push	{r4, r5, r6, lr}
  if (_blocking || hal_usart_available_data_for_write(_serial) > 0) {
 808464c:	7c46      	ldrb	r6, [r0, #17]
{
 808464e:	4604      	mov	r4, r0
 8084650:	460d      	mov	r5, r1
  if (_blocking || hal_usart_available_data_for_write(_serial) > 0) {
 8084652:	b12e      	cbz	r6, 8084660 <_ZN11USARTSerial5writeEh+0x16>
	  return hal_usart_write(_serial, c);
 8084654:	4629      	mov	r1, r5
 8084656:	7c20      	ldrb	r0, [r4, #16]
}
 8084658:	e8bd 4070 	ldmia.w	sp!, {r4, r5, r6, lr}
	  return hal_usart_write(_serial, c);
 808465c:	f7fd baa8 	b.w	8081bb0 <hal_usart_write>
  if (_blocking || hal_usart_available_data_for_write(_serial) > 0) {
 8084660:	7c00      	ldrb	r0, [r0, #16]
 8084662:	f7fd fad5 	bl	8081c10 <hal_usart_available_data_for_write>
 8084666:	2800      	cmp	r0, #0
 8084668:	dcf4      	bgt.n	8084654 <_ZN11USARTSerial5writeEh+0xa>
}
 808466a:	4630      	mov	r0, r6
 808466c:	bd70      	pop	{r4, r5, r6, pc}

0808466e <_ZN11USARTSerialD0Ev>:
 808466e:	b510      	push	{r4, lr}
 8084670:	4604      	mov	r4, r0
 8084672:	2114      	movs	r1, #20
 8084674:	f000 fad8 	bl	8084c28 <_ZdlPvj>
 8084678:	4620      	mov	r0, r4
 808467a:	bd10      	pop	{r4, pc}

0808467c <_ZN11USARTSerialC1E21hal_usart_interface_tP23hal_usart_ring_buffer_tS2_>:
 808467c:	f04f 0c00 	mov.w	ip, #0
USARTSerial::USARTSerial(hal_usart_interface_t serial, hal_usart_ring_buffer_t *rx_buffer, hal_usart_ring_buffer_t *tx_buffer)
 8084680:	b510      	push	{r4, lr}
 8084682:	4604      	mov	r4, r0
 8084684:	4608      	mov	r0, r1
 8084686:	4611      	mov	r1, r2
 8084688:	f44f 727a 	mov.w	r2, #1000	; 0x3e8
 808468c:	e9c4 c201 	strd	ip, r2, [r4, #4]
 8084690:	4a04      	ldr	r2, [pc, #16]	; (80846a4 <_ZN11USARTSerialC1E21hal_usart_interface_tP23hal_usart_ring_buffer_tS2_+0x28>)
  _serial = serial;
 8084692:	7420      	strb	r0, [r4, #16]
USARTSerial::USARTSerial(hal_usart_interface_t serial, hal_usart_ring_buffer_t *rx_buffer, hal_usart_ring_buffer_t *tx_buffer)
 8084694:	6022      	str	r2, [r4, #0]
  _blocking = true;
 8084696:	2201      	movs	r2, #1
 8084698:	7462      	strb	r2, [r4, #17]
  hal_usart_init(serial, rx_buffer, tx_buffer);
 808469a:	461a      	mov	r2, r3
 808469c:	f7fd fa78 	bl	8081b90 <hal_usart_init>
}
 80846a0:	4620      	mov	r0, r4
 80846a2:	bd10      	pop	{r4, pc}
 80846a4:	080865d8 	.word	0x080865d8

080846a8 <_ZN11USARTSerial5beginEmm>:
  hal_usart_begin_config(_serial, baud, config, nullptr);
 80846a8:	2300      	movs	r3, #0
 80846aa:	7c00      	ldrb	r0, [r0, #16]
 80846ac:	f7fd bab8 	b.w	8081c20 <hal_usart_begin_config>

080846b0 <_ZN11USARTSerial5beginEm>:
  begin(baud, SERIAL_8N1);
 80846b0:	2200      	movs	r2, #0
 80846b2:	f7ff bff9 	b.w	80846a8 <_ZN11USARTSerial5beginEmm>

080846b6 <_ZN11USARTSerial3endEv>:
  hal_usart_end(_serial);
 80846b6:	7c00      	ldrb	r0, [r0, #16]
 80846b8:	f7fd ba72 	b.w	8081ba0 <hal_usart_end>

080846bc <_Z22__fetch_global_Serial1v>:
{
 80846bc:	b538      	push	{r3, r4, r5, lr}
	static USARTSerial serial1(HAL_USART_SERIAL1, &serial1_rx_buffer, &serial1_tx_buffer);
 80846be:	4d0c      	ldr	r5, [pc, #48]	; (80846f0 <_Z22__fetch_global_Serial1v+0x34>)
 80846c0:	7829      	ldrb	r1, [r5, #0]
 80846c2:	f3bf 8f5b 	dmb	ish
 80846c6:	f011 0401 	ands.w	r4, r1, #1
 80846ca:	d10f      	bne.n	80846ec <_Z22__fetch_global_Serial1v+0x30>
 80846cc:	4628      	mov	r0, r5
 80846ce:	f7fb fcfd 	bl	80800cc <__cxa_guard_acquire>
 80846d2:	b158      	cbz	r0, 80846ec <_Z22__fetch_global_Serial1v+0x30>
 80846d4:	4621      	mov	r1, r4
 80846d6:	4b07      	ldr	r3, [pc, #28]	; (80846f4 <_Z22__fetch_global_Serial1v+0x38>)
 80846d8:	4a07      	ldr	r2, [pc, #28]	; (80846f8 <_Z22__fetch_global_Serial1v+0x3c>)
 80846da:	4808      	ldr	r0, [pc, #32]	; (80846fc <_Z22__fetch_global_Serial1v+0x40>)
 80846dc:	f7ff ffce 	bl	808467c <_ZN11USARTSerialC1E21hal_usart_interface_tP23hal_usart_ring_buffer_tS2_>
 80846e0:	4628      	mov	r0, r5
 80846e2:	f7fb fcf8 	bl	80800d6 <__cxa_guard_release>
 80846e6:	4806      	ldr	r0, [pc, #24]	; (8084700 <_Z22__fetch_global_Serial1v+0x44>)
 80846e8:	f001 fa62 	bl	8085bb0 <atexit>
    serial1_tx_buffer = new hal_usart_ring_buffer_t();
  }
  static USARTSerial serial1(HAL_USART_SERIAL1, serial1_rx_buffer, serial1_tx_buffer);
#endif
	return serial1;
}
 80846ec:	4803      	ldr	r0, [pc, #12]	; (80846fc <_Z22__fetch_global_Serial1v+0x40>)
 80846ee:	bd38      	pop	{r3, r4, r5, pc}
 80846f0:	20000270 	.word	0x20000270
 80846f4:	200002f8 	.word	0x200002f8
 80846f8:	20000274 	.word	0x20000274
 80846fc:	2000037c 	.word	0x2000037c
 8084700:	0808460b 	.word	0x0808460b

08084704 <_ZN9USBSerial14blockOnOverrunEb>:
  HAL_USB_USART_Flush_Data(_serial);
}

void USBSerial::blockOnOverrun(bool block)
{
  _blocking = block;
 8084704:	7441      	strb	r1, [r0, #17]
}
 8084706:	4770      	bx	lr

08084708 <__tcf_0>:
}

USBSerial& _fetch_usbserial()
{
  HAL_USB_USART_Config conf = acquireSerialBuffer();
	static USBSerial _usbserial(HAL_USB_USART_SERIAL, conf);
 8084708:	4770      	bx	lr

0808470a <_ZN9USBSerialD1Ev>:
#include "usb_hal.h"
#include "system_task.h"
#include "spark_wiring_startup.h"
#include "concurrent_hal.h"

class USBSerial : public Stream
 808470a:	4770      	bx	lr

0808470c <_ZN9USBSerial4readEv>:
{
 808470c:	b508      	push	{r3, lr}
	return std::max(-1, (int)HAL_USB_USART_Receive_Data(_serial, false));
 808470e:	2100      	movs	r1, #0
 8084710:	7c00      	ldrb	r0, [r0, #16]
 8084712:	f7fd fab5 	bl	8081c80 <HAL_USB_USART_Receive_Data>
}
 8084716:	ea40 70e0 	orr.w	r0, r0, r0, asr #31
 808471a:	bd08      	pop	{r3, pc}

0808471c <_ZN9USBSerial4peekEv>:
{
 808471c:	b508      	push	{r3, lr}
	return std::max(-1, (int)HAL_USB_USART_Receive_Data(_serial, true));
 808471e:	2101      	movs	r1, #1
 8084720:	7c00      	ldrb	r0, [r0, #16]
 8084722:	f7fd faad 	bl	8081c80 <HAL_USB_USART_Receive_Data>
}
 8084726:	ea40 70e0 	orr.w	r0, r0, r0, asr #31
 808472a:	bd08      	pop	{r3, pc}

0808472c <_ZN9USBSerial17availableForWriteEv>:
{
 808472c:	b508      	push	{r3, lr}
  return std::max(0, (int)HAL_USB_USART_Available_Data_For_Write(_serial));
 808472e:	7c00      	ldrb	r0, [r0, #16]
 8084730:	f7fd fa9e 	bl	8081c70 <HAL_USB_USART_Available_Data_For_Write>
}
 8084734:	ea20 70e0 	bic.w	r0, r0, r0, asr #31
 8084738:	bd08      	pop	{r3, pc}

0808473a <_ZN9USBSerial9availableEv>:
{
 808473a:	b508      	push	{r3, lr}
	return std::max(0, (int)HAL_USB_USART_Available_Data(_serial));
 808473c:	7c00      	ldrb	r0, [r0, #16]
 808473e:	f7fd fa8f 	bl	8081c60 <HAL_USB_USART_Available_Data>
}
 8084742:	ea20 70e0 	bic.w	r0, r0, r0, asr #31
 8084746:	bd08      	pop	{r3, pc}

08084748 <_ZN9USBSerial5writeEh>:
{
 8084748:	b538      	push	{r3, r4, r5, lr}
 808474a:	4604      	mov	r4, r0
  if (HAL_USB_USART_Available_Data_For_Write(_serial) > 0 || _blocking) {
 808474c:	7c00      	ldrb	r0, [r0, #16]
{
 808474e:	460d      	mov	r5, r1
  if (HAL_USB_USART_Available_Data_For_Write(_serial) > 0 || _blocking) {
 8084750:	f7fd fa8e 	bl	8081c70 <HAL_USB_USART_Available_Data_For_Write>
 8084754:	2800      	cmp	r0, #0
 8084756:	dc01      	bgt.n	808475c <_ZN9USBSerial5writeEh+0x14>
 8084758:	7c60      	ldrb	r0, [r4, #17]
 808475a:	b128      	cbz	r0, 8084768 <_ZN9USBSerial5writeEh+0x20>
    return std::max(0, (int)HAL_USB_USART_Send_Data(_serial, byte));
 808475c:	4629      	mov	r1, r5
 808475e:	7c20      	ldrb	r0, [r4, #16]
 8084760:	f7fd fa96 	bl	8081c90 <HAL_USB_USART_Send_Data>
 8084764:	ea20 70e0 	bic.w	r0, r0, r0, asr #31
}
 8084768:	bd38      	pop	{r3, r4, r5, pc}

0808476a <_ZN9USBSerial5flushEv>:
  HAL_USB_USART_Flush_Data(_serial);
 808476a:	7c00      	ldrb	r0, [r0, #16]
 808476c:	f7fd ba98 	b.w	8081ca0 <HAL_USB_USART_Flush_Data>

08084770 <_ZN9USBSerialD0Ev>:
 8084770:	b510      	push	{r4, lr}
 8084772:	4604      	mov	r4, r0
 8084774:	2114      	movs	r1, #20
 8084776:	f000 fa57 	bl	8084c28 <_ZdlPvj>
 808477a:	4620      	mov	r0, r4
 808477c:	bd10      	pop	{r4, pc}

0808477e <__tcf_1>:
 808477e:	4770      	bx	lr

08084780 <_ZN9USBSerialC1E20HAL_USB_USART_SerialRK20HAL_USB_USART_Config>:
USBSerial::USBSerial(HAL_USB_USART_Serial serial, const HAL_USB_USART_Config& conf)
 8084780:	b510      	push	{r4, lr}
 8084782:	f44f 737a 	mov.w	r3, #1000	; 0x3e8
 8084786:	4604      	mov	r4, r0
 8084788:	4608      	mov	r0, r1
 808478a:	2100      	movs	r1, #0
 808478c:	e9c4 1301 	strd	r1, r3, [r4, #4]
 8084790:	4b04      	ldr	r3, [pc, #16]	; (80847a4 <_ZN9USBSerialC1E20HAL_USB_USART_SerialRK20HAL_USB_USART_Config+0x24>)
  _serial = serial;
 8084792:	7420      	strb	r0, [r4, #16]
USBSerial::USBSerial(HAL_USB_USART_Serial serial, const HAL_USB_USART_Config& conf)
 8084794:	6023      	str	r3, [r4, #0]
  _blocking = true;
 8084796:	2301      	movs	r3, #1
  HAL_USB_USART_Init(_serial, &conf);
 8084798:	4611      	mov	r1, r2
  _blocking = true;
 808479a:	7463      	strb	r3, [r4, #17]
  HAL_USB_USART_Init(_serial, &conf);
 808479c:	f7fd fa48 	bl	8081c30 <HAL_USB_USART_Init>
}
 80847a0:	4620      	mov	r0, r4
 80847a2:	bd10      	pop	{r4, pc}
 80847a4:	08086608 	.word	0x08086608

080847a8 <_ZN9USBSerial5beginEl>:
    HAL_USB_USART_Begin(_serial, speed, NULL);
 80847a8:	2200      	movs	r2, #0
 80847aa:	7c00      	ldrb	r0, [r0, #16]
 80847ac:	f7fd ba48 	b.w	8081c40 <HAL_USB_USART_Begin>

080847b0 <_ZN9USBSerial3endEv>:
    HAL_USB_USART_End(_serial);
 80847b0:	7c00      	ldrb	r0, [r0, #16]
 80847b2:	f7fd ba4d 	b.w	8081c50 <HAL_USB_USART_End>
	...

080847b8 <_Z19acquireSerialBufferv>:
{
 80847b8:	b510      	push	{r4, lr}
 80847ba:	4604      	mov	r4, r0
  HAL_USB_USART_Config conf = {0};
 80847bc:	2214      	movs	r2, #20
 80847be:	2100      	movs	r1, #0
 80847c0:	f001 fa2f 	bl	8085c22 <memset>
  conf.rx_buffer = serial_rx_buffer;
 80847c4:	4b05      	ldr	r3, [pc, #20]	; (80847dc <_Z19acquireSerialBufferv+0x24>)
}
 80847c6:	4620      	mov	r0, r4
  conf.rx_buffer = serial_rx_buffer;
 80847c8:	6063      	str	r3, [r4, #4]
  conf.tx_buffer = serial_tx_buffer;
 80847ca:	4b05      	ldr	r3, [pc, #20]	; (80847e0 <_Z19acquireSerialBufferv+0x28>)
 80847cc:	60e3      	str	r3, [r4, #12]
  conf.rx_buffer_size = USB_RX_BUFFER_SIZE;
 80847ce:	f240 1301 	movw	r3, #257	; 0x101
 80847d2:	8123      	strh	r3, [r4, #8]
  conf.tx_buffer_size = USB_TX_BUFFER_SIZE;
 80847d4:	2381      	movs	r3, #129	; 0x81
 80847d6:	8223      	strh	r3, [r4, #16]
}
 80847d8:	bd10      	pop	{r4, pc}
 80847da:	bf00      	nop
 80847dc:	200003c0 	.word	0x200003c0
 80847e0:	200004c1 	.word	0x200004c1

080847e4 <_Z16_fetch_usbserialv>:
{
 80847e4:	b530      	push	{r4, r5, lr}
	static USBSerial _usbserial(HAL_USB_USART_SERIAL, conf);
 80847e6:	4d0e      	ldr	r5, [pc, #56]	; (8084820 <_Z16_fetch_usbserialv+0x3c>)
{
 80847e8:	b087      	sub	sp, #28
  HAL_USB_USART_Config conf = acquireSerialBuffer();
 80847ea:	a801      	add	r0, sp, #4
 80847ec:	f7ff ffe4 	bl	80847b8 <_Z19acquireSerialBufferv>
	static USBSerial _usbserial(HAL_USB_USART_SERIAL, conf);
 80847f0:	7829      	ldrb	r1, [r5, #0]
 80847f2:	f3bf 8f5b 	dmb	ish
 80847f6:	f011 0401 	ands.w	r4, r1, #1
 80847fa:	d10e      	bne.n	808481a <_Z16_fetch_usbserialv+0x36>
 80847fc:	4628      	mov	r0, r5
 80847fe:	f7fb fc65 	bl	80800cc <__cxa_guard_acquire>
 8084802:	b150      	cbz	r0, 808481a <_Z16_fetch_usbserialv+0x36>
 8084804:	4621      	mov	r1, r4
 8084806:	aa01      	add	r2, sp, #4
 8084808:	4806      	ldr	r0, [pc, #24]	; (8084824 <_Z16_fetch_usbserialv+0x40>)
 808480a:	f7ff ffb9 	bl	8084780 <_ZN9USBSerialC1E20HAL_USB_USART_SerialRK20HAL_USB_USART_Config>
 808480e:	4628      	mov	r0, r5
 8084810:	f7fb fc61 	bl	80800d6 <__cxa_guard_release>
 8084814:	4804      	ldr	r0, [pc, #16]	; (8084828 <_Z16_fetch_usbserialv+0x44>)
 8084816:	f001 f9cb 	bl	8085bb0 <atexit>
	return _usbserial;
}
 808481a:	4802      	ldr	r0, [pc, #8]	; (8084824 <_Z16_fetch_usbserialv+0x40>)
 808481c:	b007      	add	sp, #28
 808481e:	bd30      	pop	{r4, r5, pc}
 8084820:	20000390 	.word	0x20000390
 8084824:	20000398 	.word	0x20000398
 8084828:	08084709 	.word	0x08084709

0808482c <_Z23acquireUSBSerial1Bufferv>:

#if Wiring_USBSerial1

HAL_USB_USART_Config __attribute__((weak)) acquireUSBSerial1Buffer()
{
 808482c:	b510      	push	{r4, lr}
 808482e:	4604      	mov	r4, r0
  HAL_USB_USART_Config conf = {0};
 8084830:	2214      	movs	r2, #20
 8084832:	2100      	movs	r1, #0
 8084834:	f001 f9f5 	bl	8085c22 <memset>

#if defined(USB_SERIAL_USERSPACE_BUFFERS) && ((MODULE_FUNCTION == MOD_FUNC_USER_PART) || (MODULE_FUNCTION == MOD_FUNC_MONO_FIRMWARE))
  static uint8_t usbserial1_rx_buffer[USB_RX_BUFFER_SIZE];
  static uint8_t usbserial1_tx_buffer[USB_TX_BUFFER_SIZE];

  conf.rx_buffer = usbserial1_rx_buffer;
 8084838:	4b05      	ldr	r3, [pc, #20]	; (8084850 <_Z23acquireUSBSerial1Bufferv+0x24>)
  conf.rx_buffer_size = USB_RX_BUFFER_SIZE;
  conf.tx_buffer_size = USB_TX_BUFFER_SIZE;
#endif

  return conf;
}
 808483a:	4620      	mov	r0, r4
  conf.rx_buffer = usbserial1_rx_buffer;
 808483c:	6063      	str	r3, [r4, #4]
  conf.tx_buffer = usbserial1_tx_buffer;
 808483e:	4b05      	ldr	r3, [pc, #20]	; (8084854 <_Z23acquireUSBSerial1Bufferv+0x28>)
 8084840:	60e3      	str	r3, [r4, #12]
  conf.rx_buffer_size = USB_RX_BUFFER_SIZE;
 8084842:	f240 1301 	movw	r3, #257	; 0x101
 8084846:	8123      	strh	r3, [r4, #8]
  conf.tx_buffer_size = USB_TX_BUFFER_SIZE;
 8084848:	2381      	movs	r3, #129	; 0x81
 808484a:	8223      	strh	r3, [r4, #16]
}
 808484c:	bd10      	pop	{r4, pc}
 808484e:	bf00      	nop
 8084850:	20000542 	.word	0x20000542
 8084854:	20000643 	.word	0x20000643

08084858 <_Z17_fetch_usbserial1v>:

USBSerial& _fetch_usbserial1()
{
 8084858:	b510      	push	{r4, lr}
  HAL_USB_USART_Config conf = acquireUSBSerial1Buffer();
  static USBSerial _usbserial1(HAL_USB_USART_SERIAL1, conf);
 808485a:	4c0e      	ldr	r4, [pc, #56]	; (8084894 <_Z17_fetch_usbserial1v+0x3c>)
{
 808485c:	b086      	sub	sp, #24
  HAL_USB_USART_Config conf = acquireUSBSerial1Buffer();
 808485e:	a801      	add	r0, sp, #4
 8084860:	f7ff ffe4 	bl	808482c <_Z23acquireUSBSerial1Bufferv>
  static USBSerial _usbserial1(HAL_USB_USART_SERIAL1, conf);
 8084864:	7823      	ldrb	r3, [r4, #0]
 8084866:	f3bf 8f5b 	dmb	ish
 808486a:	07db      	lsls	r3, r3, #31
 808486c:	d40e      	bmi.n	808488c <_Z17_fetch_usbserial1v+0x34>
 808486e:	4620      	mov	r0, r4
 8084870:	f7fb fc2c 	bl	80800cc <__cxa_guard_acquire>
 8084874:	b150      	cbz	r0, 808488c <_Z17_fetch_usbserial1v+0x34>
 8084876:	2101      	movs	r1, #1
 8084878:	aa01      	add	r2, sp, #4
 808487a:	4807      	ldr	r0, [pc, #28]	; (8084898 <_Z17_fetch_usbserial1v+0x40>)
 808487c:	f7ff ff80 	bl	8084780 <_ZN9USBSerialC1E20HAL_USB_USART_SerialRK20HAL_USB_USART_Config>
 8084880:	4620      	mov	r0, r4
 8084882:	f7fb fc28 	bl	80800d6 <__cxa_guard_release>
 8084886:	4805      	ldr	r0, [pc, #20]	; (808489c <_Z17_fetch_usbserial1v+0x44>)
 8084888:	f001 f992 	bl	8085bb0 <atexit>
  return _usbserial1;
}
 808488c:	4802      	ldr	r0, [pc, #8]	; (8084898 <_Z17_fetch_usbserial1v+0x40>)
 808488e:	b006      	add	sp, #24
 8084890:	bd10      	pop	{r4, pc}
 8084892:	bf00      	nop
 8084894:	20000394 	.word	0x20000394
 8084898:	200003ac 	.word	0x200003ac
 808489c:	0808477f 	.word	0x0808477f

080848a0 <_ZZ21module_user_init_hookENUlP6_reentjmPvE_4_FUNES0_jmS1_>:

void module_user_init_hook()
{
#if HAL_PLATFORM_NEWLIB
    newlib_impure_ptr_callback([](struct _reent* r, size_t size, uint32_t version, void* ctx) -> void {
        _impure_ptr = r;
 80848a0:	4b01      	ldr	r3, [pc, #4]	; (80848a8 <_ZZ21module_user_init_hookENUlP6_reentjmPvE_4_FUNES0_jmS1_+0x8>)
 80848a2:	6018      	str	r0, [r3, #0]
    }, nullptr);
 80848a4:	4770      	bx	lr
 80848a6:	bf00      	nop
 80848a8:	20000098 	.word	0x20000098

080848ac <serialEventRun>:
{
 80848ac:	b508      	push	{r3, lr}
    if (serialEvent && Serial.available()>0)
 80848ae:	4b17      	ldr	r3, [pc, #92]	; (808490c <serialEventRun+0x60>)
 80848b0:	b143      	cbz	r3, 80848c4 <serialEventRun+0x18>
 80848b2:	f7ff ff97 	bl	80847e4 <_Z16_fetch_usbserialv>
 80848b6:	6803      	ldr	r3, [r0, #0]
 80848b8:	691b      	ldr	r3, [r3, #16]
 80848ba:	4798      	blx	r3
 80848bc:	2800      	cmp	r0, #0
 80848be:	dd01      	ble.n	80848c4 <serialEventRun+0x18>
        serialEvent();
 80848c0:	f3af 8000 	nop.w
    if (serialEvent1 && Serial1.available()>0)
 80848c4:	4b12      	ldr	r3, [pc, #72]	; (8084910 <serialEventRun+0x64>)
 80848c6:	b143      	cbz	r3, 80848da <serialEventRun+0x2e>
 80848c8:	f7ff fef8 	bl	80846bc <_Z22__fetch_global_Serial1v>
 80848cc:	6803      	ldr	r3, [r0, #0]
 80848ce:	691b      	ldr	r3, [r3, #16]
 80848d0:	4798      	blx	r3
 80848d2:	2800      	cmp	r0, #0
 80848d4:	dd01      	ble.n	80848da <serialEventRun+0x2e>
        serialEvent1();
 80848d6:	f3af 8000 	nop.w
    if (serialEventRun2) serialEventRun2();
 80848da:	4b0e      	ldr	r3, [pc, #56]	; (8084914 <serialEventRun+0x68>)
 80848dc:	b10b      	cbz	r3, 80848e2 <serialEventRun+0x36>
 80848de:	f3af 8000 	nop.w
    if (serialEventRun4) serialEventRun4();
 80848e2:	4b0d      	ldr	r3, [pc, #52]	; (8084918 <serialEventRun+0x6c>)
 80848e4:	b10b      	cbz	r3, 80848ea <serialEventRun+0x3e>
 80848e6:	f3af 8000 	nop.w
    if (serialEventRun5) serialEventRun5();
 80848ea:	4b0c      	ldr	r3, [pc, #48]	; (808491c <serialEventRun+0x70>)
 80848ec:	b10b      	cbz	r3, 80848f2 <serialEventRun+0x46>
 80848ee:	f3af 8000 	nop.w
    if (usbSerialEvent1 && USBSerial1.available()>0)
 80848f2:	4b0b      	ldr	r3, [pc, #44]	; (8084920 <serialEventRun+0x74>)
 80848f4:	b143      	cbz	r3, 8084908 <serialEventRun+0x5c>
 80848f6:	f7ff ffaf 	bl	8084858 <_Z17_fetch_usbserial1v>
 80848fa:	6803      	ldr	r3, [r0, #0]
 80848fc:	691b      	ldr	r3, [r3, #16]
 80848fe:	4798      	blx	r3
 8084900:	2800      	cmp	r0, #0
 8084902:	dd01      	ble.n	8084908 <serialEventRun+0x5c>
        usbSerialEvent1();
 8084904:	f3af 8000 	nop.w
}
 8084908:	bd08      	pop	{r3, pc}
 808490a:	bf00      	nop
	...

08084924 <_post_loop>:
{
 8084924:	b508      	push	{r3, lr}
	serialEventRun();
 8084926:	f7ff ffc1 	bl	80848ac <serialEventRun>
		return !timeout_fn;
	}

	static inline system_tick_t current_time()
	{
		return HAL_Timer_Get_Milli_Seconds();
 808492a:	f7fd f859 	bl	80819e0 <HAL_Timer_Get_Milli_Seconds>
	/**
	 * Lifesign that the application is still working normally.
	 */
	static void checkin()
	{
		last_checkin = current_time();
 808492e:	4b01      	ldr	r3, [pc, #4]	; (8084934 <_post_loop+0x10>)
 8084930:	6018      	str	r0, [r3, #0]
}
 8084932:	bd08      	pop	{r3, pc}
 8084934:	200006dc 	.word	0x200006dc

08084938 <_Z33system_initialize_user_backup_ramv>:
    memcpy(&link_global_retained_start, &link_global_retained_initial_values, len);
 8084938:	4805      	ldr	r0, [pc, #20]	; (8084950 <_Z33system_initialize_user_backup_ramv+0x18>)
 808493a:	4a06      	ldr	r2, [pc, #24]	; (8084954 <_Z33system_initialize_user_backup_ramv+0x1c>)
{
 808493c:	b508      	push	{r3, lr}
    memcpy(&link_global_retained_start, &link_global_retained_initial_values, len);
 808493e:	1a12      	subs	r2, r2, r0
 8084940:	4905      	ldr	r1, [pc, #20]	; (8084958 <_Z33system_initialize_user_backup_ramv+0x20>)
 8084942:	f001 f946 	bl	8085bd2 <memcpy>
    __backup_sram_signature = signature;
 8084946:	4b05      	ldr	r3, [pc, #20]	; (808495c <_Z33system_initialize_user_backup_ramv+0x24>)
 8084948:	4a05      	ldr	r2, [pc, #20]	; (8084960 <_Z33system_initialize_user_backup_ramv+0x28>)
 808494a:	601a      	str	r2, [r3, #0]
}
 808494c:	bd08      	pop	{r3, pc}
 808494e:	bf00      	nop
 8084950:	40024000 	.word	0x40024000
 8084954:	40024018 	.word	0x40024018
 8084958:	080867b0 	.word	0x080867b0
 808495c:	40024014 	.word	0x40024014
 8084960:	9a271c1e 	.word	0x9a271c1e

08084964 <_Z27ctrl_request_custom_handlerP12ctrl_request>:
    system_ctrl_set_result(req, SYSTEM_ERROR_NOT_SUPPORTED, nullptr, nullptr, nullptr);
 8084964:	2300      	movs	r3, #0
void __attribute((weak)) ctrl_request_custom_handler(ctrl_request* req) {
 8084966:	b507      	push	{r0, r1, r2, lr}
    system_ctrl_set_result(req, SYSTEM_ERROR_NOT_SUPPORTED, nullptr, nullptr, nullptr);
 8084968:	461a      	mov	r2, r3
 808496a:	f06f 0177 	mvn.w	r1, #119	; 0x77
 808496e:	9300      	str	r3, [sp, #0]
 8084970:	f7fd fa12 	bl	8081d98 <system_ctrl_set_result>
}
 8084974:	b003      	add	sp, #12
 8084976:	f85d fb04 	ldr.w	pc, [sp], #4
	...

0808497c <_ZL20ctrl_request_handlerP12ctrl_request>:
static void ctrl_request_handler(ctrl_request* req) {
 808497c:	b507      	push	{r0, r1, r2, lr}
    switch (req->type) {
 808497e:	8843      	ldrh	r3, [r0, #2]
 8084980:	2b0a      	cmp	r3, #10
 8084982:	d008      	beq.n	8084996 <_ZL20ctrl_request_handlerP12ctrl_request+0x1a>
 8084984:	2b50      	cmp	r3, #80	; 0x50
 8084986:	d10b      	bne.n	80849a0 <_ZL20ctrl_request_handlerP12ctrl_request+0x24>
        if (log_process_ctrl_request_callback) {
 8084988:	4b09      	ldr	r3, [pc, #36]	; (80849b0 <_ZL20ctrl_request_handlerP12ctrl_request+0x34>)
 808498a:	681b      	ldr	r3, [r3, #0]
 808498c:	b14b      	cbz	r3, 80849a2 <_ZL20ctrl_request_handlerP12ctrl_request+0x26>
}
 808498e:	b003      	add	sp, #12
 8084990:	f85d eb04 	ldr.w	lr, [sp], #4
            log_process_ctrl_request_callback(req);
 8084994:	4718      	bx	r3
        ctrl_request_custom_handler(req);
 8084996:	f7ff ffe5 	bl	8084964 <_Z27ctrl_request_custom_handlerP12ctrl_request>
}
 808499a:	b003      	add	sp, #12
 808499c:	f85d fb04 	ldr.w	pc, [sp], #4
        system_ctrl_set_result(req, SYSTEM_ERROR_NOT_SUPPORTED, nullptr, nullptr, nullptr);
 80849a0:	2300      	movs	r3, #0
 80849a2:	461a      	mov	r2, r3
 80849a4:	f06f 0177 	mvn.w	r1, #119	; 0x77
 80849a8:	9300      	str	r3, [sp, #0]
 80849aa:	f7fd f9f5 	bl	8081d98 <system_ctrl_set_result>
}
 80849ae:	e7f4      	b.n	808499a <_ZL20ctrl_request_handlerP12ctrl_request+0x1e>
 80849b0:	200006c8 	.word	0x200006c8

080849b4 <module_user_init_hook>:
    newlib_impure_ptr_callback([](struct _reent* r, size_t size, uint32_t version, void* ctx) -> void {
 80849b4:	2100      	movs	r1, #0
{
 80849b6:	b510      	push	{r4, lr}
    newlib_impure_ptr_callback([](struct _reent* r, size_t size, uint32_t version, void* ctx) -> void {
 80849b8:	4811      	ldr	r0, [pc, #68]	; (8084a00 <module_user_init_hook+0x4c>)
 80849ba:	f7fd fb09 	bl	8081fd0 <newlib_impure_ptr_callback>
#endif // HAL_PLATFORM_NEWLIB

#if HAL_PLATFORM_BACKUP_RAM
    backup_ram_was_valid_ = __backup_sram_signature == signature;
 80849be:	4b11      	ldr	r3, [pc, #68]	; (8084a04 <module_user_init_hook+0x50>)
 80849c0:	681a      	ldr	r2, [r3, #0]
 80849c2:	4b11      	ldr	r3, [pc, #68]	; (8084a08 <module_user_init_hook+0x54>)
 80849c4:	429a      	cmp	r2, r3
 80849c6:	bf0c      	ite	eq
 80849c8:	2201      	moveq	r2, #1
 80849ca:	2200      	movne	r2, #0
 80849cc:	4b0f      	ldr	r3, [pc, #60]	; (8084a0c <module_user_init_hook+0x58>)
 80849ce:	701a      	strb	r2, [r3, #0]
    if (!backup_ram_was_valid_) {
 80849d0:	d001      	beq.n	80849d6 <module_user_init_hook+0x22>
        system_initialize_user_backup_ram();
 80849d2:	f7ff ffb1 	bl	8084938 <_Z33system_initialize_user_backup_ramv>
    }
#endif

#if HAL_PLATFORM_RNG
    // Initialize the default stdlib PRNG using hardware RNG as a seed
    const uint32_t seed = HAL_RNG_GetRandomNumber();
 80849d6:	f7fc fff3 	bl	80819c0 <HAL_RNG_GetRandomNumber>
 80849da:	4604      	mov	r4, r0
    srand(seed);
 80849dc:	f001 f92a 	bl	8085c34 <srand>

    // If the user defines random_seed_from_cloud, call it with a seed value
    // generated by a hardware RNG as well.
    if (random_seed_from_cloud) {
 80849e0:	4b0b      	ldr	r3, [pc, #44]	; (8084a10 <module_user_init_hook+0x5c>)
 80849e2:	b113      	cbz	r3, 80849ea <module_user_init_hook+0x36>
        random_seed_from_cloud(seed);
 80849e4:	4620      	mov	r0, r4
 80849e6:	f3af 8000 	nop.w
    }
#endif
    // Register the random_seed_from_cloud handler
    spark_set_random_seed_from_cloud_handler(&random_seed_from_cloud, nullptr);
 80849ea:	2100      	movs	r1, #0
 80849ec:	4808      	ldr	r0, [pc, #32]	; (8084a10 <module_user_init_hook+0x5c>)
 80849ee:	f7fd fa3f 	bl	8081e70 <spark_set_random_seed_from_cloud_handler>

    // Register application handler for the control requests
    system_ctrl_set_app_request_handler(ctrl_request_handler, nullptr);
}
 80849f2:	e8bd 4010 	ldmia.w	sp!, {r4, lr}
    system_ctrl_set_app_request_handler(ctrl_request_handler, nullptr);
 80849f6:	2100      	movs	r1, #0
 80849f8:	4806      	ldr	r0, [pc, #24]	; (8084a14 <module_user_init_hook+0x60>)
 80849fa:	f7fd b9c3 	b.w	8081d84 <system_ctrl_set_app_request_handler>
 80849fe:	bf00      	nop
 8084a00:	080848a1 	.word	0x080848a1
 8084a04:	40024014 	.word	0x40024014
 8084a08:	9a271c1e 	.word	0x9a271c1e
 8084a0c:	200006c4 	.word	0x200006c4
 8084a10:	00000000 	.word	0x00000000
 8084a14:	0808497d 	.word	0x0808497d

08084a18 <__tcf_0>:
        dispose();
    }

    void dispose()
    {
        if (handle_) {
 8084a18:	4b02      	ldr	r3, [pc, #8]	; (8084a24 <__tcf_0+0xc>)
 8084a1a:	6898      	ldr	r0, [r3, #8]
 8084a1c:	b108      	cbz	r0, 8084a22 <__tcf_0+0xa>
            os_mutex_recursive_destroy(handle_);
 8084a1e:	f7fc bfa7 	b.w	8081970 <os_mutex_recursive_destroy>

template <hal_spi_interface_t Interface>
class SpiProxy {
public:
    static SPIClass& instance() {
        static SPIClass instance(Interface);
 8084a22:	4770      	bx	lr
 8084a24:	200006d0 	.word	0x200006d0

08084a28 <pinAvailable>:
/*
 * @brief Perform safety check on desired pin to see if it's already
 * being used.  Return 0 if used, otherwise return 1 if available.
 */
bool pinAvailable(uint16_t pin) {
  if (pin >= TOTAL_PINS) {
 8084a28:	282e      	cmp	r0, #46	; 0x2e
bool pinAvailable(uint16_t pin) {
 8084a2a:	b570      	push	{r4, r5, r6, lr}
 8084a2c:	4604      	mov	r4, r0
  if (pin >= TOTAL_PINS) {
 8084a2e:	d901      	bls.n	8084a34 <pinAvailable+0xc>
    return false;
 8084a30:	2000      	movs	r0, #0
    return false; // 'pin' is used
  }
#endif

  return true; // 'pin' is available
}
 8084a32:	bd70      	pop	{r4, r5, r6, pc}
  if((pin == SCK || pin == MOSI || pin == MISO) && hal_spi_is_enabled(SPI.interface()) == true)
 8084a34:	f1a0 030d 	sub.w	r3, r0, #13
 8084a38:	2b02      	cmp	r3, #2
 8084a3a:	d90b      	bls.n	8084a54 <pinAvailable+0x2c>
  if((pin == SCL || pin == SDA) && hal_i2c_is_enabled(Wire.interface(), nullptr) == true)
 8084a3c:	2801      	cmp	r0, #1
 8084a3e:	d824      	bhi.n	8084a8a <pinAvailable+0x62>
 8084a40:	f000 f89c 	bl	8084b7c <_Z19__fetch_global_Wirev>
 8084a44:	2100      	movs	r1, #0
 8084a46:	7c00      	ldrb	r0, [r0, #16]
 8084a48:	f7fd f86a 	bl	8081b20 <hal_i2c_is_enabled>
  if((pin == RX || pin == TX) && hal_usart_is_enabled(Serial1.interface()) == true)
 8084a4c:	f080 0001 	eor.w	r0, r0, #1
 8084a50:	b2c0      	uxtb	r0, r0
 8084a52:	e7ee      	b.n	8084a32 <pinAvailable+0xa>
 8084a54:	4e12      	ldr	r6, [pc, #72]	; (8084aa0 <pinAvailable+0x78>)
 8084a56:	7831      	ldrb	r1, [r6, #0]
 8084a58:	f3bf 8f5b 	dmb	ish
 8084a5c:	f011 0501 	ands.w	r5, r1, #1
 8084a60:	d10d      	bne.n	8084a7e <pinAvailable+0x56>
 8084a62:	4630      	mov	r0, r6
 8084a64:	f7fb fb32 	bl	80800cc <__cxa_guard_acquire>
 8084a68:	b148      	cbz	r0, 8084a7e <pinAvailable+0x56>
 8084a6a:	4629      	mov	r1, r5
 8084a6c:	480d      	ldr	r0, [pc, #52]	; (8084aa4 <pinAvailable+0x7c>)
 8084a6e:	f7ff fb7d 	bl	808416c <_ZN8SPIClassC1E19hal_spi_interface_t>
 8084a72:	4630      	mov	r0, r6
 8084a74:	f7fb fb2f 	bl	80800d6 <__cxa_guard_release>
 8084a78:	480b      	ldr	r0, [pc, #44]	; (8084aa8 <pinAvailable+0x80>)
 8084a7a:	f001 f899 	bl	8085bb0 <atexit>
  if((pin == SCK || pin == MOSI || pin == MISO) && hal_spi_is_enabled(SPI.interface()) == true)
 8084a7e:	4b09      	ldr	r3, [pc, #36]	; (8084aa4 <pinAvailable+0x7c>)
 8084a80:	7818      	ldrb	r0, [r3, #0]
 8084a82:	f7fd f87d 	bl	8081b80 <hal_spi_is_enabled>
 8084a86:	2800      	cmp	r0, #0
 8084a88:	d1d2      	bne.n	8084a30 <pinAvailable+0x8>
  if((pin == RX || pin == TX) && hal_usart_is_enabled(Serial1.interface()) == true)
 8084a8a:	3c12      	subs	r4, #18
 8084a8c:	2c01      	cmp	r4, #1
 8084a8e:	d805      	bhi.n	8084a9c <pinAvailable+0x74>
 8084a90:	f7ff fe14 	bl	80846bc <_Z22__fetch_global_Serial1v>
 8084a94:	7c00      	ldrb	r0, [r0, #16]
 8084a96:	f7fd f8b3 	bl	8081c00 <hal_usart_is_enabled>
 8084a9a:	e7d7      	b.n	8084a4c <pinAvailable+0x24>
  return true; // 'pin' is available
 8084a9c:	2001      	movs	r0, #1
 8084a9e:	e7c8      	b.n	8084a32 <pinAvailable+0xa>
 8084aa0:	200006cc 	.word	0x200006cc
 8084aa4:	200006d0 	.word	0x200006d0
 8084aa8:	08084a19 	.word	0x08084a19

08084aac <pinMode>:
  if(pin >= TOTAL_PINS || setMode == PIN_MODE_NONE )
 8084aac:	282e      	cmp	r0, #46	; 0x2e
{
 8084aae:	b538      	push	{r3, r4, r5, lr}
 8084ab0:	4604      	mov	r4, r0
 8084ab2:	460d      	mov	r5, r1
  if(pin >= TOTAL_PINS || setMode == PIN_MODE_NONE )
 8084ab4:	d80a      	bhi.n	8084acc <pinMode+0x20>
 8084ab6:	29ff      	cmp	r1, #255	; 0xff
 8084ab8:	d008      	beq.n	8084acc <pinMode+0x20>
  if( !pinAvailable(pin) ) {
 8084aba:	f7ff ffb5 	bl	8084a28 <pinAvailable>
 8084abe:	b128      	cbz	r0, 8084acc <pinMode+0x20>
  HAL_Pin_Mode(pin, setMode);
 8084ac0:	4629      	mov	r1, r5
 8084ac2:	4620      	mov	r0, r4
}
 8084ac4:	e8bd 4038 	ldmia.w	sp!, {r3, r4, r5, lr}
  HAL_Pin_Mode(pin, setMode);
 8084ac8:	f7fc bfba 	b.w	8081a40 <HAL_Pin_Mode>
}
 8084acc:	bd38      	pop	{r3, r4, r5, pc}

08084ace <digitalWrite>:

/*
 * @brief Sets a GPIO pin to HIGH or LOW.
 */
void digitalWrite(pin_t pin, uint8_t value)
{
 8084ace:	b538      	push	{r3, r4, r5, lr}
 8084ad0:	4604      	mov	r4, r0
 8084ad2:	460d      	mov	r5, r1
    PinMode mode = HAL_Get_Pin_Mode(pin);
 8084ad4:	f7fc ffbc 	bl	8081a50 <HAL_Get_Pin_Mode>
    if (mode==PIN_MODE_NONE || is_input_mode(mode))
 8084ad8:	28ff      	cmp	r0, #255	; 0xff
 8084ada:	d010      	beq.n	8084afe <digitalWrite+0x30>
            mode == INPUT_PULLDOWN ||
 8084adc:	2806      	cmp	r0, #6
 8084ade:	d804      	bhi.n	8084aea <digitalWrite+0x1c>
 8084ae0:	234d      	movs	r3, #77	; 0x4d
 8084ae2:	fa23 f000 	lsr.w	r0, r3, r0
 8084ae6:	07c3      	lsls	r3, r0, #31
 8084ae8:	d409      	bmi.n	8084afe <digitalWrite+0x30>
        return;
  // Safety check
  if( !pinAvailable(pin) ) {
 8084aea:	4620      	mov	r0, r4
 8084aec:	f7ff ff9c 	bl	8084a28 <pinAvailable>
 8084af0:	b128      	cbz	r0, 8084afe <digitalWrite+0x30>
    return;
  }

  HAL_GPIO_Write(pin, value);
 8084af2:	4629      	mov	r1, r5
 8084af4:	4620      	mov	r0, r4
}
 8084af6:	e8bd 4038 	ldmia.w	sp!, {r3, r4, r5, lr}
  HAL_GPIO_Write(pin, value);
 8084afa:	f7fc bfb1 	b.w	8081a60 <HAL_GPIO_Write>
}
 8084afe:	bd38      	pop	{r3, r4, r5, pc}

08084b00 <analogRead>:
 * @brief Read the analog value of a pin.
 * Should return a 16-bit value, 0-65536 (0 = LOW, 65536 = HIGH)
 * Note: ADC is 12-bit. Currently it returns 0-4095
 */
int32_t analogRead(pin_t pin)
{
 8084b00:	b510      	push	{r4, lr}
 8084b02:	4604      	mov	r4, r0
  // Allow people to use 0-7 to define analog pins by checking to see if the values are too low.
  if(pin < FIRST_ANALOG_PIN)
 8084b04:	2809      	cmp	r0, #9
  {
    pin = pin + FIRST_ANALOG_PIN;
 8084b06:	bf9c      	itt	ls
 8084b08:	340a      	addls	r4, #10
 8084b0a:	b2a4      	uxthls	r4, r4
  }

  // Safety check
  if( !pinAvailable(pin) ) {
 8084b0c:	4620      	mov	r0, r4
 8084b0e:	f7ff ff8b 	bl	8084a28 <pinAvailable>
 8084b12:	b150      	cbz	r0, 8084b2a <analogRead+0x2a>
    return LOW;
  }

  if(HAL_Validate_Pin_Function(pin, PF_ADC)!=PF_ADC)
 8084b14:	2103      	movs	r1, #3
 8084b16:	4620      	mov	r0, r4
 8084b18:	f7fc ff8a 	bl	8081a30 <HAL_Validate_Pin_Function>
 8084b1c:	2803      	cmp	r0, #3
 8084b1e:	d104      	bne.n	8084b2a <analogRead+0x2a>
  {
    return LOW;
  }

  return hal_adc_read(pin);
 8084b20:	4620      	mov	r0, r4
}
 8084b22:	e8bd 4010 	ldmia.w	sp!, {r4, lr}
  return hal_adc_read(pin);
 8084b26:	f7fc bfb3 	b.w	8081a90 <hal_adc_read>
}
 8084b2a:	2000      	movs	r0, #0
 8084b2c:	bd10      	pop	{r4, pc}

08084b2e <__tcf_0>:
}
#endif

TwoWire& __fetch_global_Wire()
{
	static TwoWire wire(HAL_I2C_INTERFACE1, acquireWireBuffer());
 8084b2e:	4770      	bx	lr

08084b30 <_ZN12_GLOBAL__N_117defaultWireConfigEv>:
	hal_i2c_config_t config = {
 8084b30:	2300      	movs	r3, #0
hal_i2c_config_t defaultWireConfig() {
 8084b32:	b570      	push	{r4, r5, r6, lr}
	hal_i2c_config_t config = {
 8084b34:	2520      	movs	r5, #32
 8084b36:	8043      	strh	r3, [r0, #2]
 8084b38:	2314      	movs	r3, #20
		.rx_buffer = new (std::nothrow) uint8_t[I2C_BUFFER_LENGTH],
 8084b3a:	4e08      	ldr	r6, [pc, #32]	; (8084b5c <_ZN12_GLOBAL__N_117defaultWireConfigEv+0x2c>)
hal_i2c_config_t defaultWireConfig() {
 8084b3c:	4604      	mov	r4, r0
	hal_i2c_config_t config = {
 8084b3e:	8003      	strh	r3, [r0, #0]
		.rx_buffer = new (std::nothrow) uint8_t[I2C_BUFFER_LENGTH],
 8084b40:	4631      	mov	r1, r6
	hal_i2c_config_t config = {
 8084b42:	6085      	str	r5, [r0, #8]
 8084b44:	6105      	str	r5, [r0, #16]
		.rx_buffer = new (std::nothrow) uint8_t[I2C_BUFFER_LENGTH],
 8084b46:	4628      	mov	r0, r5
 8084b48:	f000 f872 	bl	8084c30 <_ZnajRKSt9nothrow_t>
		.tx_buffer = new (std::nothrow) uint8_t[I2C_BUFFER_LENGTH],
 8084b4c:	4631      	mov	r1, r6
	};
 8084b4e:	6060      	str	r0, [r4, #4]
		.tx_buffer = new (std::nothrow) uint8_t[I2C_BUFFER_LENGTH],
 8084b50:	4628      	mov	r0, r5
 8084b52:	f000 f86d 	bl	8084c30 <_ZnajRKSt9nothrow_t>
	};
 8084b56:	60e0      	str	r0, [r4, #12]
}
 8084b58:	4620      	mov	r0, r4
 8084b5a:	bd70      	pop	{r4, r5, r6, pc}
 8084b5c:	08086630 	.word	0x08086630

08084b60 <__tcf_2>:
 8084b60:	4770      	bx	lr

08084b62 <_Z17acquireWireBufferv>:
{
 8084b62:	b510      	push	{r4, lr}
 8084b64:	4604      	mov	r4, r0
	return defaultWireConfig();
 8084b66:	f7ff ffe3 	bl	8084b30 <_ZN12_GLOBAL__N_117defaultWireConfigEv>
}
 8084b6a:	4620      	mov	r0, r4
 8084b6c:	bd10      	pop	{r4, pc}

08084b6e <_Z18acquireWire3Bufferv>:
 8084b6e:	b510      	push	{r4, lr}
 8084b70:	4604      	mov	r4, r0
 8084b72:	f7ff ffdd 	bl	8084b30 <_ZN12_GLOBAL__N_117defaultWireConfigEv>
 8084b76:	4620      	mov	r0, r4
 8084b78:	bd10      	pop	{r4, pc}
	...

08084b7c <_Z19__fetch_global_Wirev>:
{
 8084b7c:	b530      	push	{r4, r5, lr}
	static TwoWire wire(HAL_I2C_INTERFACE1, acquireWireBuffer());
 8084b7e:	4d0e      	ldr	r5, [pc, #56]	; (8084bb8 <_Z19__fetch_global_Wirev+0x3c>)
{
 8084b80:	b087      	sub	sp, #28
	static TwoWire wire(HAL_I2C_INTERFACE1, acquireWireBuffer());
 8084b82:	7829      	ldrb	r1, [r5, #0]
 8084b84:	f3bf 8f5b 	dmb	ish
 8084b88:	f011 0401 	ands.w	r4, r1, #1
 8084b8c:	d111      	bne.n	8084bb2 <_Z19__fetch_global_Wirev+0x36>
 8084b8e:	4628      	mov	r0, r5
 8084b90:	f7fb fa9c 	bl	80800cc <__cxa_guard_acquire>
 8084b94:	b168      	cbz	r0, 8084bb2 <_Z19__fetch_global_Wirev+0x36>
 8084b96:	a801      	add	r0, sp, #4
 8084b98:	f7ff ffe3 	bl	8084b62 <_Z17acquireWireBufferv>
 8084b9c:	4621      	mov	r1, r4
 8084b9e:	aa01      	add	r2, sp, #4
 8084ba0:	4806      	ldr	r0, [pc, #24]	; (8084bbc <_Z19__fetch_global_Wirev+0x40>)
 8084ba2:	f7fd ff25 	bl	80829f0 <_ZN7TwoWireC1E19hal_i2c_interface_tRK16hal_i2c_config_t>
 8084ba6:	4628      	mov	r0, r5
 8084ba8:	f7fb fa95 	bl	80800d6 <__cxa_guard_release>
 8084bac:	4804      	ldr	r0, [pc, #16]	; (8084bc0 <_Z19__fetch_global_Wirev+0x44>)
 8084bae:	f000 ffff 	bl	8085bb0 <atexit>
	return wire;
}
 8084bb2:	4802      	ldr	r0, [pc, #8]	; (8084bbc <_Z19__fetch_global_Wirev+0x40>)
 8084bb4:	b007      	add	sp, #28
 8084bb6:	bd30      	pop	{r4, r5, pc}
 8084bb8:	200006e0 	.word	0x200006e0
 8084bbc:	200006e8 	.word	0x200006e8
 8084bc0:	08084b2f 	.word	0x08084b2f

08084bc4 <_Z20__fetch_global_Wire3v>:
#endif

/* System PMIC and Fuel Gauge I2C3 */
#if Wiring_Wire3
TwoWire& __fetch_global_Wire3()
{
 8084bc4:	b510      	push	{r4, lr}
	static TwoWire wire(HAL_I2C_INTERFACE3, acquireWire3Buffer());
 8084bc6:	4c0e      	ldr	r4, [pc, #56]	; (8084c00 <_Z20__fetch_global_Wire3v+0x3c>)
{
 8084bc8:	b086      	sub	sp, #24
	static TwoWire wire(HAL_I2C_INTERFACE3, acquireWire3Buffer());
 8084bca:	7823      	ldrb	r3, [r4, #0]
 8084bcc:	f3bf 8f5b 	dmb	ish
 8084bd0:	07db      	lsls	r3, r3, #31
 8084bd2:	d411      	bmi.n	8084bf8 <_Z20__fetch_global_Wire3v+0x34>
 8084bd4:	4620      	mov	r0, r4
 8084bd6:	f7fb fa79 	bl	80800cc <__cxa_guard_acquire>
 8084bda:	b168      	cbz	r0, 8084bf8 <_Z20__fetch_global_Wire3v+0x34>
 8084bdc:	a801      	add	r0, sp, #4
 8084bde:	f7ff ffc6 	bl	8084b6e <_Z18acquireWire3Bufferv>
 8084be2:	2102      	movs	r1, #2
 8084be4:	aa01      	add	r2, sp, #4
 8084be6:	4807      	ldr	r0, [pc, #28]	; (8084c04 <_Z20__fetch_global_Wire3v+0x40>)
 8084be8:	f7fd ff02 	bl	80829f0 <_ZN7TwoWireC1E19hal_i2c_interface_tRK16hal_i2c_config_t>
 8084bec:	4620      	mov	r0, r4
 8084bee:	f7fb fa72 	bl	80800d6 <__cxa_guard_release>
 8084bf2:	4805      	ldr	r0, [pc, #20]	; (8084c08 <_Z20__fetch_global_Wire3v+0x44>)
 8084bf4:	f000 ffdc 	bl	8085bb0 <atexit>
	return wire;
}
 8084bf8:	4802      	ldr	r0, [pc, #8]	; (8084c04 <_Z20__fetch_global_Wire3v+0x40>)
 8084bfa:	b006      	add	sp, #24
 8084bfc:	bd10      	pop	{r4, pc}
 8084bfe:	bf00      	nop
 8084c00:	200006e4 	.word	0x200006e4
 8084c04:	200006fc 	.word	0x200006fc
 8084c08:	08084b61 	.word	0x08084b61

08084c0c <_GLOBAL__sub_I_INADDR_NONE>:
#include "spark_wiring_ipaddress.h"

#if !HAL_USE_SOCKET_HAL_POSIX
const IPAddress INADDR_NONE(0, 0, 0, 0);
 8084c0c:	2300      	movs	r3, #0
 8084c0e:	b507      	push	{r0, r1, r2, lr}
 8084c10:	461a      	mov	r2, r3
 8084c12:	4619      	mov	r1, r3
 8084c14:	9300      	str	r3, [sp, #0]
 8084c16:	4803      	ldr	r0, [pc, #12]	; (8084c24 <_GLOBAL__sub_I_INADDR_NONE+0x18>)
 8084c18:	f7fd ffd6 	bl	8082bc8 <_ZN9IPAddressC1Ehhhh>
 8084c1c:	b003      	add	sp, #12
 8084c1e:	f85d fb04 	ldr.w	pc, [sp], #4
 8084c22:	bf00      	nop
 8084c24:	20000710 	.word	0x20000710

08084c28 <_ZdlPvj>:
 8084c28:	f7fb ba43 	b.w	80800b2 <_ZdlPv>

08084c2c <_ZnwjRKSt9nothrow_t>:
 8084c2c:	f7fb ba3d 	b.w	80800aa <_Znwj>

08084c30 <_ZnajRKSt9nothrow_t>:
 8084c30:	f7fb ba3d 	b.w	80800ae <_Znaj>

08084c34 <_ZSt25__throw_bad_function_callv>:
 8084c34:	b508      	push	{r3, lr}
 8084c36:	f7fd f9bb 	bl	8081fb0 <abort>
	...

08084c3c <__aeabi_drsub>:
 8084c3c:	f081 4100 	eor.w	r1, r1, #2147483648	; 0x80000000
 8084c40:	e002      	b.n	8084c48 <__adddf3>
 8084c42:	bf00      	nop

08084c44 <__aeabi_dsub>:
 8084c44:	f083 4300 	eor.w	r3, r3, #2147483648	; 0x80000000

08084c48 <__adddf3>:
 8084c48:	b530      	push	{r4, r5, lr}
 8084c4a:	ea4f 0441 	mov.w	r4, r1, lsl #1
 8084c4e:	ea4f 0543 	mov.w	r5, r3, lsl #1
 8084c52:	ea94 0f05 	teq	r4, r5
 8084c56:	bf08      	it	eq
 8084c58:	ea90 0f02 	teqeq	r0, r2
 8084c5c:	bf1f      	itttt	ne
 8084c5e:	ea54 0c00 	orrsne.w	ip, r4, r0
 8084c62:	ea55 0c02 	orrsne.w	ip, r5, r2
 8084c66:	ea7f 5c64 	mvnsne.w	ip, r4, asr #21
 8084c6a:	ea7f 5c65 	mvnsne.w	ip, r5, asr #21
 8084c6e:	f000 80e2 	beq.w	8084e36 <__adddf3+0x1ee>
 8084c72:	ea4f 5454 	mov.w	r4, r4, lsr #21
 8084c76:	ebd4 5555 	rsbs	r5, r4, r5, lsr #21
 8084c7a:	bfb8      	it	lt
 8084c7c:	426d      	neglt	r5, r5
 8084c7e:	dd0c      	ble.n	8084c9a <__adddf3+0x52>
 8084c80:	442c      	add	r4, r5
 8084c82:	ea80 0202 	eor.w	r2, r0, r2
 8084c86:	ea81 0303 	eor.w	r3, r1, r3
 8084c8a:	ea82 0000 	eor.w	r0, r2, r0
 8084c8e:	ea83 0101 	eor.w	r1, r3, r1
 8084c92:	ea80 0202 	eor.w	r2, r0, r2
 8084c96:	ea81 0303 	eor.w	r3, r1, r3
 8084c9a:	2d36      	cmp	r5, #54	; 0x36
 8084c9c:	bf88      	it	hi
 8084c9e:	bd30      	pophi	{r4, r5, pc}
 8084ca0:	f011 4f00 	tst.w	r1, #2147483648	; 0x80000000
 8084ca4:	ea4f 3101 	mov.w	r1, r1, lsl #12
 8084ca8:	f44f 1c80 	mov.w	ip, #1048576	; 0x100000
 8084cac:	ea4c 3111 	orr.w	r1, ip, r1, lsr #12
 8084cb0:	d002      	beq.n	8084cb8 <__adddf3+0x70>
 8084cb2:	4240      	negs	r0, r0
 8084cb4:	eb61 0141 	sbc.w	r1, r1, r1, lsl #1
 8084cb8:	f013 4f00 	tst.w	r3, #2147483648	; 0x80000000
 8084cbc:	ea4f 3303 	mov.w	r3, r3, lsl #12
 8084cc0:	ea4c 3313 	orr.w	r3, ip, r3, lsr #12
 8084cc4:	d002      	beq.n	8084ccc <__adddf3+0x84>
 8084cc6:	4252      	negs	r2, r2
 8084cc8:	eb63 0343 	sbc.w	r3, r3, r3, lsl #1
 8084ccc:	ea94 0f05 	teq	r4, r5
 8084cd0:	f000 80a7 	beq.w	8084e22 <__adddf3+0x1da>
 8084cd4:	f1a4 0401 	sub.w	r4, r4, #1
 8084cd8:	f1d5 0e20 	rsbs	lr, r5, #32
 8084cdc:	db0d      	blt.n	8084cfa <__adddf3+0xb2>
 8084cde:	fa02 fc0e 	lsl.w	ip, r2, lr
 8084ce2:	fa22 f205 	lsr.w	r2, r2, r5
 8084ce6:	1880      	adds	r0, r0, r2
 8084ce8:	f141 0100 	adc.w	r1, r1, #0
 8084cec:	fa03 f20e 	lsl.w	r2, r3, lr
 8084cf0:	1880      	adds	r0, r0, r2
 8084cf2:	fa43 f305 	asr.w	r3, r3, r5
 8084cf6:	4159      	adcs	r1, r3
 8084cf8:	e00e      	b.n	8084d18 <__adddf3+0xd0>
 8084cfa:	f1a5 0520 	sub.w	r5, r5, #32
 8084cfe:	f10e 0e20 	add.w	lr, lr, #32
 8084d02:	2a01      	cmp	r2, #1
 8084d04:	fa03 fc0e 	lsl.w	ip, r3, lr
 8084d08:	bf28      	it	cs
 8084d0a:	f04c 0c02 	orrcs.w	ip, ip, #2
 8084d0e:	fa43 f305 	asr.w	r3, r3, r5
 8084d12:	18c0      	adds	r0, r0, r3
 8084d14:	eb51 71e3 	adcs.w	r1, r1, r3, asr #31
 8084d18:	f001 4500 	and.w	r5, r1, #2147483648	; 0x80000000
 8084d1c:	d507      	bpl.n	8084d2e <__adddf3+0xe6>
 8084d1e:	f04f 0e00 	mov.w	lr, #0
 8084d22:	f1dc 0c00 	rsbs	ip, ip, #0
 8084d26:	eb7e 0000 	sbcs.w	r0, lr, r0
 8084d2a:	eb6e 0101 	sbc.w	r1, lr, r1
 8084d2e:	f5b1 1f80 	cmp.w	r1, #1048576	; 0x100000
 8084d32:	d31b      	bcc.n	8084d6c <__adddf3+0x124>
 8084d34:	f5b1 1f00 	cmp.w	r1, #2097152	; 0x200000
 8084d38:	d30c      	bcc.n	8084d54 <__adddf3+0x10c>
 8084d3a:	0849      	lsrs	r1, r1, #1
 8084d3c:	ea5f 0030 	movs.w	r0, r0, rrx
 8084d40:	ea4f 0c3c 	mov.w	ip, ip, rrx
 8084d44:	f104 0401 	add.w	r4, r4, #1
 8084d48:	ea4f 5244 	mov.w	r2, r4, lsl #21
 8084d4c:	f512 0f80 	cmn.w	r2, #4194304	; 0x400000
 8084d50:	f080 809a 	bcs.w	8084e88 <__adddf3+0x240>
 8084d54:	f1bc 4f00 	cmp.w	ip, #2147483648	; 0x80000000
 8084d58:	bf08      	it	eq
 8084d5a:	ea5f 0c50 	movseq.w	ip, r0, lsr #1
 8084d5e:	f150 0000 	adcs.w	r0, r0, #0
 8084d62:	eb41 5104 	adc.w	r1, r1, r4, lsl #20
 8084d66:	ea41 0105 	orr.w	r1, r1, r5
 8084d6a:	bd30      	pop	{r4, r5, pc}
 8084d6c:	ea5f 0c4c 	movs.w	ip, ip, lsl #1
 8084d70:	4140      	adcs	r0, r0
 8084d72:	eb41 0101 	adc.w	r1, r1, r1
 8084d76:	3c01      	subs	r4, #1
 8084d78:	bf28      	it	cs
 8084d7a:	f5b1 1f80 	cmpcs.w	r1, #1048576	; 0x100000
 8084d7e:	d2e9      	bcs.n	8084d54 <__adddf3+0x10c>
 8084d80:	f091 0f00 	teq	r1, #0
 8084d84:	bf04      	itt	eq
 8084d86:	4601      	moveq	r1, r0
 8084d88:	2000      	moveq	r0, #0
 8084d8a:	fab1 f381 	clz	r3, r1
 8084d8e:	bf08      	it	eq
 8084d90:	3320      	addeq	r3, #32
 8084d92:	f1a3 030b 	sub.w	r3, r3, #11
 8084d96:	f1b3 0220 	subs.w	r2, r3, #32
 8084d9a:	da0c      	bge.n	8084db6 <__adddf3+0x16e>
 8084d9c:	320c      	adds	r2, #12
 8084d9e:	dd08      	ble.n	8084db2 <__adddf3+0x16a>
 8084da0:	f102 0c14 	add.w	ip, r2, #20
 8084da4:	f1c2 020c 	rsb	r2, r2, #12
 8084da8:	fa01 f00c 	lsl.w	r0, r1, ip
 8084dac:	fa21 f102 	lsr.w	r1, r1, r2
 8084db0:	e00c      	b.n	8084dcc <__adddf3+0x184>
 8084db2:	f102 0214 	add.w	r2, r2, #20
 8084db6:	bfd8      	it	le
 8084db8:	f1c2 0c20 	rsble	ip, r2, #32
 8084dbc:	fa01 f102 	lsl.w	r1, r1, r2
 8084dc0:	fa20 fc0c 	lsr.w	ip, r0, ip
 8084dc4:	bfdc      	itt	le
 8084dc6:	ea41 010c 	orrle.w	r1, r1, ip
 8084dca:	4090      	lslle	r0, r2
 8084dcc:	1ae4      	subs	r4, r4, r3
 8084dce:	bfa2      	ittt	ge
 8084dd0:	eb01 5104 	addge.w	r1, r1, r4, lsl #20
 8084dd4:	4329      	orrge	r1, r5
 8084dd6:	bd30      	popge	{r4, r5, pc}
 8084dd8:	ea6f 0404 	mvn.w	r4, r4
 8084ddc:	3c1f      	subs	r4, #31
 8084dde:	da1c      	bge.n	8084e1a <__adddf3+0x1d2>
 8084de0:	340c      	adds	r4, #12
 8084de2:	dc0e      	bgt.n	8084e02 <__adddf3+0x1ba>
 8084de4:	f104 0414 	add.w	r4, r4, #20
 8084de8:	f1c4 0220 	rsb	r2, r4, #32
 8084dec:	fa20 f004 	lsr.w	r0, r0, r4
 8084df0:	fa01 f302 	lsl.w	r3, r1, r2
 8084df4:	ea40 0003 	orr.w	r0, r0, r3
 8084df8:	fa21 f304 	lsr.w	r3, r1, r4
 8084dfc:	ea45 0103 	orr.w	r1, r5, r3
 8084e00:	bd30      	pop	{r4, r5, pc}
 8084e02:	f1c4 040c 	rsb	r4, r4, #12
 8084e06:	f1c4 0220 	rsb	r2, r4, #32
 8084e0a:	fa20 f002 	lsr.w	r0, r0, r2
 8084e0e:	fa01 f304 	lsl.w	r3, r1, r4
 8084e12:	ea40 0003 	orr.w	r0, r0, r3
 8084e16:	4629      	mov	r1, r5
 8084e18:	bd30      	pop	{r4, r5, pc}
 8084e1a:	fa21 f004 	lsr.w	r0, r1, r4
 8084e1e:	4629      	mov	r1, r5
 8084e20:	bd30      	pop	{r4, r5, pc}
 8084e22:	f094 0f00 	teq	r4, #0
 8084e26:	f483 1380 	eor.w	r3, r3, #1048576	; 0x100000
 8084e2a:	bf06      	itte	eq
 8084e2c:	f481 1180 	eoreq.w	r1, r1, #1048576	; 0x100000
 8084e30:	3401      	addeq	r4, #1
 8084e32:	3d01      	subne	r5, #1
 8084e34:	e74e      	b.n	8084cd4 <__adddf3+0x8c>
 8084e36:	ea7f 5c64 	mvns.w	ip, r4, asr #21
 8084e3a:	bf18      	it	ne
 8084e3c:	ea7f 5c65 	mvnsne.w	ip, r5, asr #21
 8084e40:	d029      	beq.n	8084e96 <__adddf3+0x24e>
 8084e42:	ea94 0f05 	teq	r4, r5
 8084e46:	bf08      	it	eq
 8084e48:	ea90 0f02 	teqeq	r0, r2
 8084e4c:	d005      	beq.n	8084e5a <__adddf3+0x212>
 8084e4e:	ea54 0c00 	orrs.w	ip, r4, r0
 8084e52:	bf04      	itt	eq
 8084e54:	4619      	moveq	r1, r3
 8084e56:	4610      	moveq	r0, r2
 8084e58:	bd30      	pop	{r4, r5, pc}
 8084e5a:	ea91 0f03 	teq	r1, r3
 8084e5e:	bf1e      	ittt	ne
 8084e60:	2100      	movne	r1, #0
 8084e62:	2000      	movne	r0, #0
 8084e64:	bd30      	popne	{r4, r5, pc}
 8084e66:	ea5f 5c54 	movs.w	ip, r4, lsr #21
 8084e6a:	d105      	bne.n	8084e78 <__adddf3+0x230>
 8084e6c:	0040      	lsls	r0, r0, #1
 8084e6e:	4149      	adcs	r1, r1
 8084e70:	bf28      	it	cs
 8084e72:	f041 4100 	orrcs.w	r1, r1, #2147483648	; 0x80000000
 8084e76:	bd30      	pop	{r4, r5, pc}
 8084e78:	f514 0480 	adds.w	r4, r4, #4194304	; 0x400000
 8084e7c:	bf3c      	itt	cc
 8084e7e:	f501 1180 	addcc.w	r1, r1, #1048576	; 0x100000
 8084e82:	bd30      	popcc	{r4, r5, pc}
 8084e84:	f001 4500 	and.w	r5, r1, #2147483648	; 0x80000000
 8084e88:	f045 41fe 	orr.w	r1, r5, #2130706432	; 0x7f000000
 8084e8c:	f441 0170 	orr.w	r1, r1, #15728640	; 0xf00000
 8084e90:	f04f 0000 	mov.w	r0, #0
 8084e94:	bd30      	pop	{r4, r5, pc}
 8084e96:	ea7f 5c64 	mvns.w	ip, r4, asr #21
 8084e9a:	bf1a      	itte	ne
 8084e9c:	4619      	movne	r1, r3
 8084e9e:	4610      	movne	r0, r2
 8084ea0:	ea7f 5c65 	mvnseq.w	ip, r5, asr #21
 8084ea4:	bf1c      	itt	ne
 8084ea6:	460b      	movne	r3, r1
 8084ea8:	4602      	movne	r2, r0
 8084eaa:	ea50 3401 	orrs.w	r4, r0, r1, lsl #12
 8084eae:	bf06      	itte	eq
 8084eb0:	ea52 3503 	orrseq.w	r5, r2, r3, lsl #12
 8084eb4:	ea91 0f03 	teqeq	r1, r3
 8084eb8:	f441 2100 	orrne.w	r1, r1, #524288	; 0x80000
 8084ebc:	bd30      	pop	{r4, r5, pc}
 8084ebe:	bf00      	nop

08084ec0 <__aeabi_ui2d>:
 8084ec0:	f090 0f00 	teq	r0, #0
 8084ec4:	bf04      	itt	eq
 8084ec6:	2100      	moveq	r1, #0
 8084ec8:	4770      	bxeq	lr
 8084eca:	b530      	push	{r4, r5, lr}
 8084ecc:	f44f 6480 	mov.w	r4, #1024	; 0x400
 8084ed0:	f104 0432 	add.w	r4, r4, #50	; 0x32
 8084ed4:	f04f 0500 	mov.w	r5, #0
 8084ed8:	f04f 0100 	mov.w	r1, #0
 8084edc:	e750      	b.n	8084d80 <__adddf3+0x138>
 8084ede:	bf00      	nop

08084ee0 <__aeabi_i2d>:
 8084ee0:	f090 0f00 	teq	r0, #0
 8084ee4:	bf04      	itt	eq
 8084ee6:	2100      	moveq	r1, #0
 8084ee8:	4770      	bxeq	lr
 8084eea:	b530      	push	{r4, r5, lr}
 8084eec:	f44f 6480 	mov.w	r4, #1024	; 0x400
 8084ef0:	f104 0432 	add.w	r4, r4, #50	; 0x32
 8084ef4:	f010 4500 	ands.w	r5, r0, #2147483648	; 0x80000000
 8084ef8:	bf48      	it	mi
 8084efa:	4240      	negmi	r0, r0
 8084efc:	f04f 0100 	mov.w	r1, #0
 8084f00:	e73e      	b.n	8084d80 <__adddf3+0x138>
 8084f02:	bf00      	nop

08084f04 <__aeabi_f2d>:
 8084f04:	0042      	lsls	r2, r0, #1
 8084f06:	ea4f 01e2 	mov.w	r1, r2, asr #3
 8084f0a:	ea4f 0131 	mov.w	r1, r1, rrx
 8084f0e:	ea4f 7002 	mov.w	r0, r2, lsl #28
 8084f12:	bf1f      	itttt	ne
 8084f14:	f012 437f 	andsne.w	r3, r2, #4278190080	; 0xff000000
 8084f18:	f093 4f7f 	teqne	r3, #4278190080	; 0xff000000
 8084f1c:	f081 5160 	eorne.w	r1, r1, #939524096	; 0x38000000
 8084f20:	4770      	bxne	lr
 8084f22:	f032 427f 	bics.w	r2, r2, #4278190080	; 0xff000000
 8084f26:	bf08      	it	eq
 8084f28:	4770      	bxeq	lr
 8084f2a:	f093 4f7f 	teq	r3, #4278190080	; 0xff000000
 8084f2e:	bf04      	itt	eq
 8084f30:	f441 2100 	orreq.w	r1, r1, #524288	; 0x80000
 8084f34:	4770      	bxeq	lr
 8084f36:	b530      	push	{r4, r5, lr}
 8084f38:	f44f 7460 	mov.w	r4, #896	; 0x380
 8084f3c:	f001 4500 	and.w	r5, r1, #2147483648	; 0x80000000
 8084f40:	f021 4100 	bic.w	r1, r1, #2147483648	; 0x80000000
 8084f44:	e71c      	b.n	8084d80 <__adddf3+0x138>
 8084f46:	bf00      	nop

08084f48 <__aeabi_ul2d>:
 8084f48:	ea50 0201 	orrs.w	r2, r0, r1
 8084f4c:	bf08      	it	eq
 8084f4e:	4770      	bxeq	lr
 8084f50:	b530      	push	{r4, r5, lr}
 8084f52:	f04f 0500 	mov.w	r5, #0
 8084f56:	e00a      	b.n	8084f6e <__aeabi_l2d+0x16>

08084f58 <__aeabi_l2d>:
 8084f58:	ea50 0201 	orrs.w	r2, r0, r1
 8084f5c:	bf08      	it	eq
 8084f5e:	4770      	bxeq	lr
 8084f60:	b530      	push	{r4, r5, lr}
 8084f62:	f011 4500 	ands.w	r5, r1, #2147483648	; 0x80000000
 8084f66:	d502      	bpl.n	8084f6e <__aeabi_l2d+0x16>
 8084f68:	4240      	negs	r0, r0
 8084f6a:	eb61 0141 	sbc.w	r1, r1, r1, lsl #1
 8084f6e:	f44f 6480 	mov.w	r4, #1024	; 0x400
 8084f72:	f104 0432 	add.w	r4, r4, #50	; 0x32
 8084f76:	ea5f 5c91 	movs.w	ip, r1, lsr #22
 8084f7a:	f43f aed8 	beq.w	8084d2e <__adddf3+0xe6>
 8084f7e:	f04f 0203 	mov.w	r2, #3
 8084f82:	ea5f 0cdc 	movs.w	ip, ip, lsr #3
 8084f86:	bf18      	it	ne
 8084f88:	3203      	addne	r2, #3
 8084f8a:	ea5f 0cdc 	movs.w	ip, ip, lsr #3
 8084f8e:	bf18      	it	ne
 8084f90:	3203      	addne	r2, #3
 8084f92:	eb02 02dc 	add.w	r2, r2, ip, lsr #3
 8084f96:	f1c2 0320 	rsb	r3, r2, #32
 8084f9a:	fa00 fc03 	lsl.w	ip, r0, r3
 8084f9e:	fa20 f002 	lsr.w	r0, r0, r2
 8084fa2:	fa01 fe03 	lsl.w	lr, r1, r3
 8084fa6:	ea40 000e 	orr.w	r0, r0, lr
 8084faa:	fa21 f102 	lsr.w	r1, r1, r2
 8084fae:	4414      	add	r4, r2
 8084fb0:	e6bd      	b.n	8084d2e <__adddf3+0xe6>
 8084fb2:	bf00      	nop

08084fb4 <__aeabi_dmul>:
 8084fb4:	b570      	push	{r4, r5, r6, lr}
 8084fb6:	f04f 0cff 	mov.w	ip, #255	; 0xff
 8084fba:	f44c 6ce0 	orr.w	ip, ip, #1792	; 0x700
 8084fbe:	ea1c 5411 	ands.w	r4, ip, r1, lsr #20
 8084fc2:	bf1d      	ittte	ne
 8084fc4:	ea1c 5513 	andsne.w	r5, ip, r3, lsr #20
 8084fc8:	ea94 0f0c 	teqne	r4, ip
 8084fcc:	ea95 0f0c 	teqne	r5, ip
 8084fd0:	f000 f8de 	bleq	8085190 <__aeabi_dmul+0x1dc>
 8084fd4:	442c      	add	r4, r5
 8084fd6:	ea81 0603 	eor.w	r6, r1, r3
 8084fda:	ea21 514c 	bic.w	r1, r1, ip, lsl #21
 8084fde:	ea23 534c 	bic.w	r3, r3, ip, lsl #21
 8084fe2:	ea50 3501 	orrs.w	r5, r0, r1, lsl #12
 8084fe6:	bf18      	it	ne
 8084fe8:	ea52 3503 	orrsne.w	r5, r2, r3, lsl #12
 8084fec:	f441 1180 	orr.w	r1, r1, #1048576	; 0x100000
 8084ff0:	f443 1380 	orr.w	r3, r3, #1048576	; 0x100000
 8084ff4:	d038      	beq.n	8085068 <__aeabi_dmul+0xb4>
 8084ff6:	fba0 ce02 	umull	ip, lr, r0, r2
 8084ffa:	f04f 0500 	mov.w	r5, #0
 8084ffe:	fbe1 e502 	umlal	lr, r5, r1, r2
 8085002:	f006 4200 	and.w	r2, r6, #2147483648	; 0x80000000
 8085006:	fbe0 e503 	umlal	lr, r5, r0, r3
 808500a:	f04f 0600 	mov.w	r6, #0
 808500e:	fbe1 5603 	umlal	r5, r6, r1, r3
 8085012:	f09c 0f00 	teq	ip, #0
 8085016:	bf18      	it	ne
 8085018:	f04e 0e01 	orrne.w	lr, lr, #1
 808501c:	f1a4 04ff 	sub.w	r4, r4, #255	; 0xff
 8085020:	f5b6 7f00 	cmp.w	r6, #512	; 0x200
 8085024:	f564 7440 	sbc.w	r4, r4, #768	; 0x300
 8085028:	d204      	bcs.n	8085034 <__aeabi_dmul+0x80>
 808502a:	ea5f 0e4e 	movs.w	lr, lr, lsl #1
 808502e:	416d      	adcs	r5, r5
 8085030:	eb46 0606 	adc.w	r6, r6, r6
 8085034:	ea42 21c6 	orr.w	r1, r2, r6, lsl #11
 8085038:	ea41 5155 	orr.w	r1, r1, r5, lsr #21
 808503c:	ea4f 20c5 	mov.w	r0, r5, lsl #11
 8085040:	ea40 505e 	orr.w	r0, r0, lr, lsr #21
 8085044:	ea4f 2ece 	mov.w	lr, lr, lsl #11
 8085048:	f1b4 0cfd 	subs.w	ip, r4, #253	; 0xfd
 808504c:	bf88      	it	hi
 808504e:	f5bc 6fe0 	cmphi.w	ip, #1792	; 0x700
 8085052:	d81e      	bhi.n	8085092 <__aeabi_dmul+0xde>
 8085054:	f1be 4f00 	cmp.w	lr, #2147483648	; 0x80000000
 8085058:	bf08      	it	eq
 808505a:	ea5f 0e50 	movseq.w	lr, r0, lsr #1
 808505e:	f150 0000 	adcs.w	r0, r0, #0
 8085062:	eb41 5104 	adc.w	r1, r1, r4, lsl #20
 8085066:	bd70      	pop	{r4, r5, r6, pc}
 8085068:	f006 4600 	and.w	r6, r6, #2147483648	; 0x80000000
 808506c:	ea46 0101 	orr.w	r1, r6, r1
 8085070:	ea40 0002 	orr.w	r0, r0, r2
 8085074:	ea81 0103 	eor.w	r1, r1, r3
 8085078:	ebb4 045c 	subs.w	r4, r4, ip, lsr #1
 808507c:	bfc2      	ittt	gt
 808507e:	ebd4 050c 	rsbsgt	r5, r4, ip
 8085082:	ea41 5104 	orrgt.w	r1, r1, r4, lsl #20
 8085086:	bd70      	popgt	{r4, r5, r6, pc}
 8085088:	f441 1180 	orr.w	r1, r1, #1048576	; 0x100000
 808508c:	f04f 0e00 	mov.w	lr, #0
 8085090:	3c01      	subs	r4, #1
 8085092:	f300 80ab 	bgt.w	80851ec <__aeabi_dmul+0x238>
 8085096:	f114 0f36 	cmn.w	r4, #54	; 0x36
 808509a:	bfde      	ittt	le
 808509c:	2000      	movle	r0, #0
 808509e:	f001 4100 	andle.w	r1, r1, #2147483648	; 0x80000000
 80850a2:	bd70      	pople	{r4, r5, r6, pc}
 80850a4:	f1c4 0400 	rsb	r4, r4, #0
 80850a8:	3c20      	subs	r4, #32
 80850aa:	da35      	bge.n	8085118 <__aeabi_dmul+0x164>
 80850ac:	340c      	adds	r4, #12
 80850ae:	dc1b      	bgt.n	80850e8 <__aeabi_dmul+0x134>
 80850b0:	f104 0414 	add.w	r4, r4, #20
 80850b4:	f1c4 0520 	rsb	r5, r4, #32
 80850b8:	fa00 f305 	lsl.w	r3, r0, r5
 80850bc:	fa20 f004 	lsr.w	r0, r0, r4
 80850c0:	fa01 f205 	lsl.w	r2, r1, r5
 80850c4:	ea40 0002 	orr.w	r0, r0, r2
 80850c8:	f001 4200 	and.w	r2, r1, #2147483648	; 0x80000000
 80850cc:	f021 4100 	bic.w	r1, r1, #2147483648	; 0x80000000
 80850d0:	eb10 70d3 	adds.w	r0, r0, r3, lsr #31
 80850d4:	fa21 f604 	lsr.w	r6, r1, r4
 80850d8:	eb42 0106 	adc.w	r1, r2, r6
 80850dc:	ea5e 0e43 	orrs.w	lr, lr, r3, lsl #1
 80850e0:	bf08      	it	eq
 80850e2:	ea20 70d3 	biceq.w	r0, r0, r3, lsr #31
 80850e6:	bd70      	pop	{r4, r5, r6, pc}
 80850e8:	f1c4 040c 	rsb	r4, r4, #12
 80850ec:	f1c4 0520 	rsb	r5, r4, #32
 80850f0:	fa00 f304 	lsl.w	r3, r0, r4
 80850f4:	fa20 f005 	lsr.w	r0, r0, r5
 80850f8:	fa01 f204 	lsl.w	r2, r1, r4
 80850fc:	ea40 0002 	orr.w	r0, r0, r2
 8085100:	f001 4100 	and.w	r1, r1, #2147483648	; 0x80000000
 8085104:	eb10 70d3 	adds.w	r0, r0, r3, lsr #31
 8085108:	f141 0100 	adc.w	r1, r1, #0
 808510c:	ea5e 0e43 	orrs.w	lr, lr, r3, lsl #1
 8085110:	bf08      	it	eq
 8085112:	ea20 70d3 	biceq.w	r0, r0, r3, lsr #31
 8085116:	bd70      	pop	{r4, r5, r6, pc}
 8085118:	f1c4 0520 	rsb	r5, r4, #32
 808511c:	fa00 f205 	lsl.w	r2, r0, r5
 8085120:	ea4e 0e02 	orr.w	lr, lr, r2
 8085124:	fa20 f304 	lsr.w	r3, r0, r4
 8085128:	fa01 f205 	lsl.w	r2, r1, r5
 808512c:	ea43 0302 	orr.w	r3, r3, r2
 8085130:	fa21 f004 	lsr.w	r0, r1, r4
 8085134:	f001 4100 	and.w	r1, r1, #2147483648	; 0x80000000
 8085138:	fa21 f204 	lsr.w	r2, r1, r4
 808513c:	ea20 0002 	bic.w	r0, r0, r2
 8085140:	eb00 70d3 	add.w	r0, r0, r3, lsr #31
 8085144:	ea5e 0e43 	orrs.w	lr, lr, r3, lsl #1
 8085148:	bf08      	it	eq
 808514a:	ea20 70d3 	biceq.w	r0, r0, r3, lsr #31
 808514e:	bd70      	pop	{r4, r5, r6, pc}
 8085150:	f094 0f00 	teq	r4, #0
 8085154:	d10f      	bne.n	8085176 <__aeabi_dmul+0x1c2>
 8085156:	f001 4600 	and.w	r6, r1, #2147483648	; 0x80000000
 808515a:	0040      	lsls	r0, r0, #1
 808515c:	eb41 0101 	adc.w	r1, r1, r1
 8085160:	f411 1f80 	tst.w	r1, #1048576	; 0x100000
 8085164:	bf08      	it	eq
 8085166:	3c01      	subeq	r4, #1
 8085168:	d0f7      	beq.n	808515a <__aeabi_dmul+0x1a6>
 808516a:	ea41 0106 	orr.w	r1, r1, r6
 808516e:	f095 0f00 	teq	r5, #0
 8085172:	bf18      	it	ne
 8085174:	4770      	bxne	lr
 8085176:	f003 4600 	and.w	r6, r3, #2147483648	; 0x80000000
 808517a:	0052      	lsls	r2, r2, #1
 808517c:	eb43 0303 	adc.w	r3, r3, r3
 8085180:	f413 1f80 	tst.w	r3, #1048576	; 0x100000
 8085184:	bf08      	it	eq
 8085186:	3d01      	subeq	r5, #1
 8085188:	d0f7      	beq.n	808517a <__aeabi_dmul+0x1c6>
 808518a:	ea43 0306 	orr.w	r3, r3, r6
 808518e:	4770      	bx	lr
 8085190:	ea94 0f0c 	teq	r4, ip
 8085194:	ea0c 5513 	and.w	r5, ip, r3, lsr #20
 8085198:	bf18      	it	ne
 808519a:	ea95 0f0c 	teqne	r5, ip
 808519e:	d00c      	beq.n	80851ba <__aeabi_dmul+0x206>
 80851a0:	ea50 0641 	orrs.w	r6, r0, r1, lsl #1
 80851a4:	bf18      	it	ne
 80851a6:	ea52 0643 	orrsne.w	r6, r2, r3, lsl #1
 80851aa:	d1d1      	bne.n	8085150 <__aeabi_dmul+0x19c>
 80851ac:	ea81 0103 	eor.w	r1, r1, r3
 80851b0:	f001 4100 	and.w	r1, r1, #2147483648	; 0x80000000
 80851b4:	f04f 0000 	mov.w	r0, #0
 80851b8:	bd70      	pop	{r4, r5, r6, pc}
 80851ba:	ea50 0641 	orrs.w	r6, r0, r1, lsl #1
 80851be:	bf06      	itte	eq
 80851c0:	4610      	moveq	r0, r2
 80851c2:	4619      	moveq	r1, r3
 80851c4:	ea52 0643 	orrsne.w	r6, r2, r3, lsl #1
 80851c8:	d019      	beq.n	80851fe <__aeabi_dmul+0x24a>
 80851ca:	ea94 0f0c 	teq	r4, ip
 80851ce:	d102      	bne.n	80851d6 <__aeabi_dmul+0x222>
 80851d0:	ea50 3601 	orrs.w	r6, r0, r1, lsl #12
 80851d4:	d113      	bne.n	80851fe <__aeabi_dmul+0x24a>
 80851d6:	ea95 0f0c 	teq	r5, ip
 80851da:	d105      	bne.n	80851e8 <__aeabi_dmul+0x234>
 80851dc:	ea52 3603 	orrs.w	r6, r2, r3, lsl #12
 80851e0:	bf1c      	itt	ne
 80851e2:	4610      	movne	r0, r2
 80851e4:	4619      	movne	r1, r3
 80851e6:	d10a      	bne.n	80851fe <__aeabi_dmul+0x24a>
 80851e8:	ea81 0103 	eor.w	r1, r1, r3
 80851ec:	f001 4100 	and.w	r1, r1, #2147483648	; 0x80000000
 80851f0:	f041 41fe 	orr.w	r1, r1, #2130706432	; 0x7f000000
 80851f4:	f441 0170 	orr.w	r1, r1, #15728640	; 0xf00000
 80851f8:	f04f 0000 	mov.w	r0, #0
 80851fc:	bd70      	pop	{r4, r5, r6, pc}
 80851fe:	f041 41fe 	orr.w	r1, r1, #2130706432	; 0x7f000000
 8085202:	f441 0178 	orr.w	r1, r1, #16252928	; 0xf80000
 8085206:	bd70      	pop	{r4, r5, r6, pc}

08085208 <__aeabi_ddiv>:
 8085208:	b570      	push	{r4, r5, r6, lr}
 808520a:	f04f 0cff 	mov.w	ip, #255	; 0xff
 808520e:	f44c 6ce0 	orr.w	ip, ip, #1792	; 0x700
 8085212:	ea1c 5411 	ands.w	r4, ip, r1, lsr #20
 8085216:	bf1d      	ittte	ne
 8085218:	ea1c 5513 	andsne.w	r5, ip, r3, lsr #20
 808521c:	ea94 0f0c 	teqne	r4, ip
 8085220:	ea95 0f0c 	teqne	r5, ip
 8085224:	f000 f8a7 	bleq	8085376 <__aeabi_ddiv+0x16e>
 8085228:	eba4 0405 	sub.w	r4, r4, r5
 808522c:	ea81 0e03 	eor.w	lr, r1, r3
 8085230:	ea52 3503 	orrs.w	r5, r2, r3, lsl #12
 8085234:	ea4f 3101 	mov.w	r1, r1, lsl #12
 8085238:	f000 8088 	beq.w	808534c <__aeabi_ddiv+0x144>
 808523c:	ea4f 3303 	mov.w	r3, r3, lsl #12
 8085240:	f04f 5580 	mov.w	r5, #268435456	; 0x10000000
 8085244:	ea45 1313 	orr.w	r3, r5, r3, lsr #4
 8085248:	ea43 6312 	orr.w	r3, r3, r2, lsr #24
 808524c:	ea4f 2202 	mov.w	r2, r2, lsl #8
 8085250:	ea45 1511 	orr.w	r5, r5, r1, lsr #4
 8085254:	ea45 6510 	orr.w	r5, r5, r0, lsr #24
 8085258:	ea4f 2600 	mov.w	r6, r0, lsl #8
 808525c:	f00e 4100 	and.w	r1, lr, #2147483648	; 0x80000000
 8085260:	429d      	cmp	r5, r3
 8085262:	bf08      	it	eq
 8085264:	4296      	cmpeq	r6, r2
 8085266:	f144 04fd 	adc.w	r4, r4, #253	; 0xfd
 808526a:	f504 7440 	add.w	r4, r4, #768	; 0x300
 808526e:	d202      	bcs.n	8085276 <__aeabi_ddiv+0x6e>
 8085270:	085b      	lsrs	r3, r3, #1
 8085272:	ea4f 0232 	mov.w	r2, r2, rrx
 8085276:	1ab6      	subs	r6, r6, r2
 8085278:	eb65 0503 	sbc.w	r5, r5, r3
 808527c:	085b      	lsrs	r3, r3, #1
 808527e:	ea4f 0232 	mov.w	r2, r2, rrx
 8085282:	f44f 1080 	mov.w	r0, #1048576	; 0x100000
 8085286:	f44f 2c00 	mov.w	ip, #524288	; 0x80000
 808528a:	ebb6 0e02 	subs.w	lr, r6, r2
 808528e:	eb75 0e03 	sbcs.w	lr, r5, r3
 8085292:	bf22      	ittt	cs
 8085294:	1ab6      	subcs	r6, r6, r2
 8085296:	4675      	movcs	r5, lr
 8085298:	ea40 000c 	orrcs.w	r0, r0, ip
 808529c:	085b      	lsrs	r3, r3, #1
 808529e:	ea4f 0232 	mov.w	r2, r2, rrx
 80852a2:	ebb6 0e02 	subs.w	lr, r6, r2
 80852a6:	eb75 0e03 	sbcs.w	lr, r5, r3
 80852aa:	bf22      	ittt	cs
 80852ac:	1ab6      	subcs	r6, r6, r2
 80852ae:	4675      	movcs	r5, lr
 80852b0:	ea40 005c 	orrcs.w	r0, r0, ip, lsr #1
 80852b4:	085b      	lsrs	r3, r3, #1
 80852b6:	ea4f 0232 	mov.w	r2, r2, rrx
 80852ba:	ebb6 0e02 	subs.w	lr, r6, r2
 80852be:	eb75 0e03 	sbcs.w	lr, r5, r3
 80852c2:	bf22      	ittt	cs
 80852c4:	1ab6      	subcs	r6, r6, r2
 80852c6:	4675      	movcs	r5, lr
 80852c8:	ea40 009c 	orrcs.w	r0, r0, ip, lsr #2
 80852cc:	085b      	lsrs	r3, r3, #1
 80852ce:	ea4f 0232 	mov.w	r2, r2, rrx
 80852d2:	ebb6 0e02 	subs.w	lr, r6, r2
 80852d6:	eb75 0e03 	sbcs.w	lr, r5, r3
 80852da:	bf22      	ittt	cs
 80852dc:	1ab6      	subcs	r6, r6, r2
 80852de:	4675      	movcs	r5, lr
 80852e0:	ea40 00dc 	orrcs.w	r0, r0, ip, lsr #3
 80852e4:	ea55 0e06 	orrs.w	lr, r5, r6
 80852e8:	d018      	beq.n	808531c <__aeabi_ddiv+0x114>
 80852ea:	ea4f 1505 	mov.w	r5, r5, lsl #4
 80852ee:	ea45 7516 	orr.w	r5, r5, r6, lsr #28
 80852f2:	ea4f 1606 	mov.w	r6, r6, lsl #4
 80852f6:	ea4f 03c3 	mov.w	r3, r3, lsl #3
 80852fa:	ea43 7352 	orr.w	r3, r3, r2, lsr #29
 80852fe:	ea4f 02c2 	mov.w	r2, r2, lsl #3
 8085302:	ea5f 1c1c 	movs.w	ip, ip, lsr #4
 8085306:	d1c0      	bne.n	808528a <__aeabi_ddiv+0x82>
 8085308:	f411 1f80 	tst.w	r1, #1048576	; 0x100000
 808530c:	d10b      	bne.n	8085326 <__aeabi_ddiv+0x11e>
 808530e:	ea41 0100 	orr.w	r1, r1, r0
 8085312:	f04f 0000 	mov.w	r0, #0
 8085316:	f04f 4c00 	mov.w	ip, #2147483648	; 0x80000000
 808531a:	e7b6      	b.n	808528a <__aeabi_ddiv+0x82>
 808531c:	f411 1f80 	tst.w	r1, #1048576	; 0x100000
 8085320:	bf04      	itt	eq
 8085322:	4301      	orreq	r1, r0
 8085324:	2000      	moveq	r0, #0
 8085326:	f1b4 0cfd 	subs.w	ip, r4, #253	; 0xfd
 808532a:	bf88      	it	hi
 808532c:	f5bc 6fe0 	cmphi.w	ip, #1792	; 0x700
 8085330:	f63f aeaf 	bhi.w	8085092 <__aeabi_dmul+0xde>
 8085334:	ebb5 0c03 	subs.w	ip, r5, r3
 8085338:	bf04      	itt	eq
 808533a:	ebb6 0c02 	subseq.w	ip, r6, r2
 808533e:	ea5f 0c50 	movseq.w	ip, r0, lsr #1
 8085342:	f150 0000 	adcs.w	r0, r0, #0
 8085346:	eb41 5104 	adc.w	r1, r1, r4, lsl #20
 808534a:	bd70      	pop	{r4, r5, r6, pc}
 808534c:	f00e 4e00 	and.w	lr, lr, #2147483648	; 0x80000000
 8085350:	ea4e 3111 	orr.w	r1, lr, r1, lsr #12
 8085354:	eb14 045c 	adds.w	r4, r4, ip, lsr #1
 8085358:	bfc2      	ittt	gt
 808535a:	ebd4 050c 	rsbsgt	r5, r4, ip
 808535e:	ea41 5104 	orrgt.w	r1, r1, r4, lsl #20
 8085362:	bd70      	popgt	{r4, r5, r6, pc}
 8085364:	f441 1180 	orr.w	r1, r1, #1048576	; 0x100000
 8085368:	f04f 0e00 	mov.w	lr, #0
 808536c:	3c01      	subs	r4, #1
 808536e:	e690      	b.n	8085092 <__aeabi_dmul+0xde>
 8085370:	ea45 0e06 	orr.w	lr, r5, r6
 8085374:	e68d      	b.n	8085092 <__aeabi_dmul+0xde>
 8085376:	ea0c 5513 	and.w	r5, ip, r3, lsr #20
 808537a:	ea94 0f0c 	teq	r4, ip
 808537e:	bf08      	it	eq
 8085380:	ea95 0f0c 	teqeq	r5, ip
 8085384:	f43f af3b 	beq.w	80851fe <__aeabi_dmul+0x24a>
 8085388:	ea94 0f0c 	teq	r4, ip
 808538c:	d10a      	bne.n	80853a4 <__aeabi_ddiv+0x19c>
 808538e:	ea50 3401 	orrs.w	r4, r0, r1, lsl #12
 8085392:	f47f af34 	bne.w	80851fe <__aeabi_dmul+0x24a>
 8085396:	ea95 0f0c 	teq	r5, ip
 808539a:	f47f af25 	bne.w	80851e8 <__aeabi_dmul+0x234>
 808539e:	4610      	mov	r0, r2
 80853a0:	4619      	mov	r1, r3
 80853a2:	e72c      	b.n	80851fe <__aeabi_dmul+0x24a>
 80853a4:	ea95 0f0c 	teq	r5, ip
 80853a8:	d106      	bne.n	80853b8 <__aeabi_ddiv+0x1b0>
 80853aa:	ea52 3503 	orrs.w	r5, r2, r3, lsl #12
 80853ae:	f43f aefd 	beq.w	80851ac <__aeabi_dmul+0x1f8>
 80853b2:	4610      	mov	r0, r2
 80853b4:	4619      	mov	r1, r3
 80853b6:	e722      	b.n	80851fe <__aeabi_dmul+0x24a>
 80853b8:	ea50 0641 	orrs.w	r6, r0, r1, lsl #1
 80853bc:	bf18      	it	ne
 80853be:	ea52 0643 	orrsne.w	r6, r2, r3, lsl #1
 80853c2:	f47f aec5 	bne.w	8085150 <__aeabi_dmul+0x19c>
 80853c6:	ea50 0441 	orrs.w	r4, r0, r1, lsl #1
 80853ca:	f47f af0d 	bne.w	80851e8 <__aeabi_dmul+0x234>
 80853ce:	ea52 0543 	orrs.w	r5, r2, r3, lsl #1
 80853d2:	f47f aeeb 	bne.w	80851ac <__aeabi_dmul+0x1f8>
 80853d6:	e712      	b.n	80851fe <__aeabi_dmul+0x24a>

080853d8 <__aeabi_d2iz>:
 80853d8:	ea4f 0241 	mov.w	r2, r1, lsl #1
 80853dc:	f512 1200 	adds.w	r2, r2, #2097152	; 0x200000
 80853e0:	d215      	bcs.n	808540e <__aeabi_d2iz+0x36>
 80853e2:	d511      	bpl.n	8085408 <__aeabi_d2iz+0x30>
 80853e4:	f46f 7378 	mvn.w	r3, #992	; 0x3e0
 80853e8:	ebb3 5262 	subs.w	r2, r3, r2, asr #21
 80853ec:	d912      	bls.n	8085414 <__aeabi_d2iz+0x3c>
 80853ee:	ea4f 23c1 	mov.w	r3, r1, lsl #11
 80853f2:	f043 4300 	orr.w	r3, r3, #2147483648	; 0x80000000
 80853f6:	ea43 5350 	orr.w	r3, r3, r0, lsr #21
 80853fa:	f011 4f00 	tst.w	r1, #2147483648	; 0x80000000
 80853fe:	fa23 f002 	lsr.w	r0, r3, r2
 8085402:	bf18      	it	ne
 8085404:	4240      	negne	r0, r0
 8085406:	4770      	bx	lr
 8085408:	f04f 0000 	mov.w	r0, #0
 808540c:	4770      	bx	lr
 808540e:	ea50 3001 	orrs.w	r0, r0, r1, lsl #12
 8085412:	d105      	bne.n	8085420 <__aeabi_d2iz+0x48>
 8085414:	f011 4000 	ands.w	r0, r1, #2147483648	; 0x80000000
 8085418:	bf08      	it	eq
 808541a:	f06f 4000 	mvneq.w	r0, #2147483648	; 0x80000000
 808541e:	4770      	bx	lr
 8085420:	f04f 0000 	mov.w	r0, #0
 8085424:	4770      	bx	lr
 8085426:	bf00      	nop

08085428 <__aeabi_d2uiz>:
 8085428:	004a      	lsls	r2, r1, #1
 808542a:	d211      	bcs.n	8085450 <__aeabi_d2uiz+0x28>
 808542c:	f512 1200 	adds.w	r2, r2, #2097152	; 0x200000
 8085430:	d211      	bcs.n	8085456 <__aeabi_d2uiz+0x2e>
 8085432:	d50d      	bpl.n	8085450 <__aeabi_d2uiz+0x28>
 8085434:	f46f 7378 	mvn.w	r3, #992	; 0x3e0
 8085438:	ebb3 5262 	subs.w	r2, r3, r2, asr #21
 808543c:	d40e      	bmi.n	808545c <__aeabi_d2uiz+0x34>
 808543e:	ea4f 23c1 	mov.w	r3, r1, lsl #11
 8085442:	f043 4300 	orr.w	r3, r3, #2147483648	; 0x80000000
 8085446:	ea43 5350 	orr.w	r3, r3, r0, lsr #21
 808544a:	fa23 f002 	lsr.w	r0, r3, r2
 808544e:	4770      	bx	lr
 8085450:	f04f 0000 	mov.w	r0, #0
 8085454:	4770      	bx	lr
 8085456:	ea50 3001 	orrs.w	r0, r0, r1, lsl #12
 808545a:	d102      	bne.n	8085462 <__aeabi_d2uiz+0x3a>
 808545c:	f04f 30ff 	mov.w	r0, #4294967295	; 0xffffffff
 8085460:	4770      	bx	lr
 8085462:	f04f 0000 	mov.w	r0, #0
 8085466:	4770      	bx	lr

08085468 <__aeabi_d2f>:
 8085468:	ea4f 0241 	mov.w	r2, r1, lsl #1
 808546c:	f1b2 43e0 	subs.w	r3, r2, #1879048192	; 0x70000000
 8085470:	bf24      	itt	cs
 8085472:	f5b3 1c00 	subscs.w	ip, r3, #2097152	; 0x200000
 8085476:	f1dc 5cfe 	rsbscs	ip, ip, #532676608	; 0x1fc00000
 808547a:	d90d      	bls.n	8085498 <__aeabi_d2f+0x30>
 808547c:	f001 4c00 	and.w	ip, r1, #2147483648	; 0x80000000
 8085480:	ea4f 02c0 	mov.w	r2, r0, lsl #3
 8085484:	ea4c 7050 	orr.w	r0, ip, r0, lsr #29
 8085488:	f1b2 4f00 	cmp.w	r2, #2147483648	; 0x80000000
 808548c:	eb40 0083 	adc.w	r0, r0, r3, lsl #2
 8085490:	bf08      	it	eq
 8085492:	f020 0001 	biceq.w	r0, r0, #1
 8085496:	4770      	bx	lr
 8085498:	f011 4f80 	tst.w	r1, #1073741824	; 0x40000000
 808549c:	d121      	bne.n	80854e2 <__aeabi_d2f+0x7a>
 808549e:	f113 7238 	adds.w	r2, r3, #48234496	; 0x2e00000
 80854a2:	bfbc      	itt	lt
 80854a4:	f001 4000 	andlt.w	r0, r1, #2147483648	; 0x80000000
 80854a8:	4770      	bxlt	lr
 80854aa:	f441 1180 	orr.w	r1, r1, #1048576	; 0x100000
 80854ae:	ea4f 5252 	mov.w	r2, r2, lsr #21
 80854b2:	f1c2 0218 	rsb	r2, r2, #24
 80854b6:	f1c2 0c20 	rsb	ip, r2, #32
 80854ba:	fa10 f30c 	lsls.w	r3, r0, ip
 80854be:	fa20 f002 	lsr.w	r0, r0, r2
 80854c2:	bf18      	it	ne
 80854c4:	f040 0001 	orrne.w	r0, r0, #1
 80854c8:	ea4f 23c1 	mov.w	r3, r1, lsl #11
 80854cc:	ea4f 23d3 	mov.w	r3, r3, lsr #11
 80854d0:	fa03 fc0c 	lsl.w	ip, r3, ip
 80854d4:	ea40 000c 	orr.w	r0, r0, ip
 80854d8:	fa23 f302 	lsr.w	r3, r3, r2
 80854dc:	ea4f 0343 	mov.w	r3, r3, lsl #1
 80854e0:	e7cc      	b.n	808547c <__aeabi_d2f+0x14>
 80854e2:	ea7f 5362 	mvns.w	r3, r2, asr #21
 80854e6:	d107      	bne.n	80854f8 <__aeabi_d2f+0x90>
 80854e8:	ea50 3301 	orrs.w	r3, r0, r1, lsl #12
 80854ec:	bf1e      	ittt	ne
 80854ee:	f04f 40fe 	movne.w	r0, #2130706432	; 0x7f000000
 80854f2:	f440 0040 	orrne.w	r0, r0, #12582912	; 0xc00000
 80854f6:	4770      	bxne	lr
 80854f8:	f001 4000 	and.w	r0, r1, #2147483648	; 0x80000000
 80854fc:	f040 40fe 	orr.w	r0, r0, #2130706432	; 0x7f000000
 8085500:	f440 0000 	orr.w	r0, r0, #8388608	; 0x800000
 8085504:	4770      	bx	lr
 8085506:	bf00      	nop

08085508 <__aeabi_frsub>:
 8085508:	f080 4000 	eor.w	r0, r0, #2147483648	; 0x80000000
 808550c:	e002      	b.n	8085514 <__addsf3>
 808550e:	bf00      	nop

08085510 <__aeabi_fsub>:
 8085510:	f081 4100 	eor.w	r1, r1, #2147483648	; 0x80000000

08085514 <__addsf3>:
 8085514:	0042      	lsls	r2, r0, #1
 8085516:	bf1f      	itttt	ne
 8085518:	ea5f 0341 	movsne.w	r3, r1, lsl #1
 808551c:	ea92 0f03 	teqne	r2, r3
 8085520:	ea7f 6c22 	mvnsne.w	ip, r2, asr #24
 8085524:	ea7f 6c23 	mvnsne.w	ip, r3, asr #24
 8085528:	d06a      	beq.n	8085600 <__addsf3+0xec>
 808552a:	ea4f 6212 	mov.w	r2, r2, lsr #24
 808552e:	ebd2 6313 	rsbs	r3, r2, r3, lsr #24
 8085532:	bfc1      	itttt	gt
 8085534:	18d2      	addgt	r2, r2, r3
 8085536:	4041      	eorgt	r1, r0
 8085538:	4048      	eorgt	r0, r1
 808553a:	4041      	eorgt	r1, r0
 808553c:	bfb8      	it	lt
 808553e:	425b      	neglt	r3, r3
 8085540:	2b19      	cmp	r3, #25
 8085542:	bf88      	it	hi
 8085544:	4770      	bxhi	lr
 8085546:	f010 4f00 	tst.w	r0, #2147483648	; 0x80000000
 808554a:	f440 0000 	orr.w	r0, r0, #8388608	; 0x800000
 808554e:	f020 407f 	bic.w	r0, r0, #4278190080	; 0xff000000
 8085552:	bf18      	it	ne
 8085554:	4240      	negne	r0, r0
 8085556:	f011 4f00 	tst.w	r1, #2147483648	; 0x80000000
 808555a:	f441 0100 	orr.w	r1, r1, #8388608	; 0x800000
 808555e:	f021 417f 	bic.w	r1, r1, #4278190080	; 0xff000000
 8085562:	bf18      	it	ne
 8085564:	4249      	negne	r1, r1
 8085566:	ea92 0f03 	teq	r2, r3
 808556a:	d03f      	beq.n	80855ec <__addsf3+0xd8>
 808556c:	f1a2 0201 	sub.w	r2, r2, #1
 8085570:	fa41 fc03 	asr.w	ip, r1, r3
 8085574:	eb10 000c 	adds.w	r0, r0, ip
 8085578:	f1c3 0320 	rsb	r3, r3, #32
 808557c:	fa01 f103 	lsl.w	r1, r1, r3
 8085580:	f000 4300 	and.w	r3, r0, #2147483648	; 0x80000000
 8085584:	d502      	bpl.n	808558c <__addsf3+0x78>
 8085586:	4249      	negs	r1, r1
 8085588:	eb60 0040 	sbc.w	r0, r0, r0, lsl #1
 808558c:	f5b0 0f00 	cmp.w	r0, #8388608	; 0x800000
 8085590:	d313      	bcc.n	80855ba <__addsf3+0xa6>
 8085592:	f1b0 7f80 	cmp.w	r0, #16777216	; 0x1000000
 8085596:	d306      	bcc.n	80855a6 <__addsf3+0x92>
 8085598:	0840      	lsrs	r0, r0, #1
 808559a:	ea4f 0131 	mov.w	r1, r1, rrx
 808559e:	f102 0201 	add.w	r2, r2, #1
 80855a2:	2afe      	cmp	r2, #254	; 0xfe
 80855a4:	d251      	bcs.n	808564a <__addsf3+0x136>
 80855a6:	f1b1 4f00 	cmp.w	r1, #2147483648	; 0x80000000
 80855aa:	eb40 50c2 	adc.w	r0, r0, r2, lsl #23
 80855ae:	bf08      	it	eq
 80855b0:	f020 0001 	biceq.w	r0, r0, #1
 80855b4:	ea40 0003 	orr.w	r0, r0, r3
 80855b8:	4770      	bx	lr
 80855ba:	0049      	lsls	r1, r1, #1
 80855bc:	eb40 0000 	adc.w	r0, r0, r0
 80855c0:	3a01      	subs	r2, #1
 80855c2:	bf28      	it	cs
 80855c4:	f5b0 0f00 	cmpcs.w	r0, #8388608	; 0x800000
 80855c8:	d2ed      	bcs.n	80855a6 <__addsf3+0x92>
 80855ca:	fab0 fc80 	clz	ip, r0
 80855ce:	f1ac 0c08 	sub.w	ip, ip, #8
 80855d2:	ebb2 020c 	subs.w	r2, r2, ip
 80855d6:	fa00 f00c 	lsl.w	r0, r0, ip
 80855da:	bfaa      	itet	ge
 80855dc:	eb00 50c2 	addge.w	r0, r0, r2, lsl #23
 80855e0:	4252      	neglt	r2, r2
 80855e2:	4318      	orrge	r0, r3
 80855e4:	bfbc      	itt	lt
 80855e6:	40d0      	lsrlt	r0, r2
 80855e8:	4318      	orrlt	r0, r3
 80855ea:	4770      	bx	lr
 80855ec:	f092 0f00 	teq	r2, #0
 80855f0:	f481 0100 	eor.w	r1, r1, #8388608	; 0x800000
 80855f4:	bf06      	itte	eq
 80855f6:	f480 0000 	eoreq.w	r0, r0, #8388608	; 0x800000
 80855fa:	3201      	addeq	r2, #1
 80855fc:	3b01      	subne	r3, #1
 80855fe:	e7b5      	b.n	808556c <__addsf3+0x58>
 8085600:	ea4f 0341 	mov.w	r3, r1, lsl #1
 8085604:	ea7f 6c22 	mvns.w	ip, r2, asr #24
 8085608:	bf18      	it	ne
 808560a:	ea7f 6c23 	mvnsne.w	ip, r3, asr #24
 808560e:	d021      	beq.n	8085654 <__addsf3+0x140>
 8085610:	ea92 0f03 	teq	r2, r3
 8085614:	d004      	beq.n	8085620 <__addsf3+0x10c>
 8085616:	f092 0f00 	teq	r2, #0
 808561a:	bf08      	it	eq
 808561c:	4608      	moveq	r0, r1
 808561e:	4770      	bx	lr
 8085620:	ea90 0f01 	teq	r0, r1
 8085624:	bf1c      	itt	ne
 8085626:	2000      	movne	r0, #0
 8085628:	4770      	bxne	lr
 808562a:	f012 4f7f 	tst.w	r2, #4278190080	; 0xff000000
 808562e:	d104      	bne.n	808563a <__addsf3+0x126>
 8085630:	0040      	lsls	r0, r0, #1
 8085632:	bf28      	it	cs
 8085634:	f040 4000 	orrcs.w	r0, r0, #2147483648	; 0x80000000
 8085638:	4770      	bx	lr
 808563a:	f112 7200 	adds.w	r2, r2, #33554432	; 0x2000000
 808563e:	bf3c      	itt	cc
 8085640:	f500 0000 	addcc.w	r0, r0, #8388608	; 0x800000
 8085644:	4770      	bxcc	lr
 8085646:	f000 4300 	and.w	r3, r0, #2147483648	; 0x80000000
 808564a:	f043 40fe 	orr.w	r0, r3, #2130706432	; 0x7f000000
 808564e:	f440 0000 	orr.w	r0, r0, #8388608	; 0x800000
 8085652:	4770      	bx	lr
 8085654:	ea7f 6222 	mvns.w	r2, r2, asr #24
 8085658:	bf16      	itet	ne
 808565a:	4608      	movne	r0, r1
 808565c:	ea7f 6323 	mvnseq.w	r3, r3, asr #24
 8085660:	4601      	movne	r1, r0
 8085662:	0242      	lsls	r2, r0, #9
 8085664:	bf06      	itte	eq
 8085666:	ea5f 2341 	movseq.w	r3, r1, lsl #9
 808566a:	ea90 0f01 	teqeq	r0, r1
 808566e:	f440 0080 	orrne.w	r0, r0, #4194304	; 0x400000
 8085672:	4770      	bx	lr

08085674 <__aeabi_ui2f>:
 8085674:	f04f 0300 	mov.w	r3, #0
 8085678:	e004      	b.n	8085684 <__aeabi_i2f+0x8>
 808567a:	bf00      	nop

0808567c <__aeabi_i2f>:
 808567c:	f010 4300 	ands.w	r3, r0, #2147483648	; 0x80000000
 8085680:	bf48      	it	mi
 8085682:	4240      	negmi	r0, r0
 8085684:	ea5f 0c00 	movs.w	ip, r0
 8085688:	bf08      	it	eq
 808568a:	4770      	bxeq	lr
 808568c:	f043 4396 	orr.w	r3, r3, #1258291200	; 0x4b000000
 8085690:	4601      	mov	r1, r0
 8085692:	f04f 0000 	mov.w	r0, #0
 8085696:	e01c      	b.n	80856d2 <__aeabi_l2f+0x2a>

08085698 <__aeabi_ul2f>:
 8085698:	ea50 0201 	orrs.w	r2, r0, r1
 808569c:	bf08      	it	eq
 808569e:	4770      	bxeq	lr
 80856a0:	f04f 0300 	mov.w	r3, #0
 80856a4:	e00a      	b.n	80856bc <__aeabi_l2f+0x14>
 80856a6:	bf00      	nop

080856a8 <__aeabi_l2f>:
 80856a8:	ea50 0201 	orrs.w	r2, r0, r1
 80856ac:	bf08      	it	eq
 80856ae:	4770      	bxeq	lr
 80856b0:	f011 4300 	ands.w	r3, r1, #2147483648	; 0x80000000
 80856b4:	d502      	bpl.n	80856bc <__aeabi_l2f+0x14>
 80856b6:	4240      	negs	r0, r0
 80856b8:	eb61 0141 	sbc.w	r1, r1, r1, lsl #1
 80856bc:	ea5f 0c01 	movs.w	ip, r1
 80856c0:	bf02      	ittt	eq
 80856c2:	4684      	moveq	ip, r0
 80856c4:	4601      	moveq	r1, r0
 80856c6:	2000      	moveq	r0, #0
 80856c8:	f043 43b6 	orr.w	r3, r3, #1526726656	; 0x5b000000
 80856cc:	bf08      	it	eq
 80856ce:	f1a3 5380 	subeq.w	r3, r3, #268435456	; 0x10000000
 80856d2:	f5a3 0300 	sub.w	r3, r3, #8388608	; 0x800000
 80856d6:	fabc f28c 	clz	r2, ip
 80856da:	3a08      	subs	r2, #8
 80856dc:	eba3 53c2 	sub.w	r3, r3, r2, lsl #23
 80856e0:	db10      	blt.n	8085704 <__aeabi_l2f+0x5c>
 80856e2:	fa01 fc02 	lsl.w	ip, r1, r2
 80856e6:	4463      	add	r3, ip
 80856e8:	fa00 fc02 	lsl.w	ip, r0, r2
 80856ec:	f1c2 0220 	rsb	r2, r2, #32
 80856f0:	f1bc 4f00 	cmp.w	ip, #2147483648	; 0x80000000
 80856f4:	fa20 f202 	lsr.w	r2, r0, r2
 80856f8:	eb43 0002 	adc.w	r0, r3, r2
 80856fc:	bf08      	it	eq
 80856fe:	f020 0001 	biceq.w	r0, r0, #1
 8085702:	4770      	bx	lr
 8085704:	f102 0220 	add.w	r2, r2, #32
 8085708:	fa01 fc02 	lsl.w	ip, r1, r2
 808570c:	f1c2 0220 	rsb	r2, r2, #32
 8085710:	ea50 004c 	orrs.w	r0, r0, ip, lsl #1
 8085714:	fa21 f202 	lsr.w	r2, r1, r2
 8085718:	eb43 0002 	adc.w	r0, r3, r2
 808571c:	bf08      	it	eq
 808571e:	ea20 70dc 	biceq.w	r0, r0, ip, lsr #31
 8085722:	4770      	bx	lr

08085724 <__aeabi_fmul>:
 8085724:	f04f 0cff 	mov.w	ip, #255	; 0xff
 8085728:	ea1c 52d0 	ands.w	r2, ip, r0, lsr #23
 808572c:	bf1e      	ittt	ne
 808572e:	ea1c 53d1 	andsne.w	r3, ip, r1, lsr #23
 8085732:	ea92 0f0c 	teqne	r2, ip
 8085736:	ea93 0f0c 	teqne	r3, ip
 808573a:	d06f      	beq.n	808581c <__aeabi_fmul+0xf8>
 808573c:	441a      	add	r2, r3
 808573e:	ea80 0c01 	eor.w	ip, r0, r1
 8085742:	0240      	lsls	r0, r0, #9
 8085744:	bf18      	it	ne
 8085746:	ea5f 2141 	movsne.w	r1, r1, lsl #9
 808574a:	d01e      	beq.n	808578a <__aeabi_fmul+0x66>
 808574c:	f04f 6300 	mov.w	r3, #134217728	; 0x8000000
 8085750:	ea43 1050 	orr.w	r0, r3, r0, lsr #5
 8085754:	ea43 1151 	orr.w	r1, r3, r1, lsr #5
 8085758:	fba0 3101 	umull	r3, r1, r0, r1
 808575c:	f00c 4000 	and.w	r0, ip, #2147483648	; 0x80000000
 8085760:	f5b1 0f00 	cmp.w	r1, #8388608	; 0x800000
 8085764:	bf3e      	ittt	cc
 8085766:	0049      	lslcc	r1, r1, #1
 8085768:	ea41 71d3 	orrcc.w	r1, r1, r3, lsr #31
 808576c:	005b      	lslcc	r3, r3, #1
 808576e:	ea40 0001 	orr.w	r0, r0, r1
 8085772:	f162 027f 	sbc.w	r2, r2, #127	; 0x7f
 8085776:	2afd      	cmp	r2, #253	; 0xfd
 8085778:	d81d      	bhi.n	80857b6 <__aeabi_fmul+0x92>
 808577a:	f1b3 4f00 	cmp.w	r3, #2147483648	; 0x80000000
 808577e:	eb40 50c2 	adc.w	r0, r0, r2, lsl #23
 8085782:	bf08      	it	eq
 8085784:	f020 0001 	biceq.w	r0, r0, #1
 8085788:	4770      	bx	lr
 808578a:	f090 0f00 	teq	r0, #0
 808578e:	f00c 4c00 	and.w	ip, ip, #2147483648	; 0x80000000
 8085792:	bf08      	it	eq
 8085794:	0249      	lsleq	r1, r1, #9
 8085796:	ea4c 2050 	orr.w	r0, ip, r0, lsr #9
 808579a:	ea40 2051 	orr.w	r0, r0, r1, lsr #9
 808579e:	3a7f      	subs	r2, #127	; 0x7f
 80857a0:	bfc2      	ittt	gt
 80857a2:	f1d2 03ff 	rsbsgt	r3, r2, #255	; 0xff
 80857a6:	ea40 50c2 	orrgt.w	r0, r0, r2, lsl #23
 80857aa:	4770      	bxgt	lr
 80857ac:	f440 0000 	orr.w	r0, r0, #8388608	; 0x800000
 80857b0:	f04f 0300 	mov.w	r3, #0
 80857b4:	3a01      	subs	r2, #1
 80857b6:	dc5d      	bgt.n	8085874 <__aeabi_fmul+0x150>
 80857b8:	f112 0f19 	cmn.w	r2, #25
 80857bc:	bfdc      	itt	le
 80857be:	f000 4000 	andle.w	r0, r0, #2147483648	; 0x80000000
 80857c2:	4770      	bxle	lr
 80857c4:	f1c2 0200 	rsb	r2, r2, #0
 80857c8:	0041      	lsls	r1, r0, #1
 80857ca:	fa21 f102 	lsr.w	r1, r1, r2
 80857ce:	f1c2 0220 	rsb	r2, r2, #32
 80857d2:	fa00 fc02 	lsl.w	ip, r0, r2
 80857d6:	ea5f 0031 	movs.w	r0, r1, rrx
 80857da:	f140 0000 	adc.w	r0, r0, #0
 80857de:	ea53 034c 	orrs.w	r3, r3, ip, lsl #1
 80857e2:	bf08      	it	eq
 80857e4:	ea20 70dc 	biceq.w	r0, r0, ip, lsr #31
 80857e8:	4770      	bx	lr
 80857ea:	f092 0f00 	teq	r2, #0
 80857ee:	f000 4c00 	and.w	ip, r0, #2147483648	; 0x80000000
 80857f2:	bf02      	ittt	eq
 80857f4:	0040      	lsleq	r0, r0, #1
 80857f6:	f410 0f00 	tsteq.w	r0, #8388608	; 0x800000
 80857fa:	3a01      	subeq	r2, #1
 80857fc:	d0f9      	beq.n	80857f2 <__aeabi_fmul+0xce>
 80857fe:	ea40 000c 	orr.w	r0, r0, ip
 8085802:	f093 0f00 	teq	r3, #0
 8085806:	f001 4c00 	and.w	ip, r1, #2147483648	; 0x80000000
 808580a:	bf02      	ittt	eq
 808580c:	0049      	lsleq	r1, r1, #1
 808580e:	f411 0f00 	tsteq.w	r1, #8388608	; 0x800000
 8085812:	3b01      	subeq	r3, #1
 8085814:	d0f9      	beq.n	808580a <__aeabi_fmul+0xe6>
 8085816:	ea41 010c 	orr.w	r1, r1, ip
 808581a:	e78f      	b.n	808573c <__aeabi_fmul+0x18>
 808581c:	ea0c 53d1 	and.w	r3, ip, r1, lsr #23
 8085820:	ea92 0f0c 	teq	r2, ip
 8085824:	bf18      	it	ne
 8085826:	ea93 0f0c 	teqne	r3, ip
 808582a:	d00a      	beq.n	8085842 <__aeabi_fmul+0x11e>
 808582c:	f030 4c00 	bics.w	ip, r0, #2147483648	; 0x80000000
 8085830:	bf18      	it	ne
 8085832:	f031 4c00 	bicsne.w	ip, r1, #2147483648	; 0x80000000
 8085836:	d1d8      	bne.n	80857ea <__aeabi_fmul+0xc6>
 8085838:	ea80 0001 	eor.w	r0, r0, r1
 808583c:	f000 4000 	and.w	r0, r0, #2147483648	; 0x80000000
 8085840:	4770      	bx	lr
 8085842:	f090 0f00 	teq	r0, #0
 8085846:	bf17      	itett	ne
 8085848:	f090 4f00 	teqne	r0, #2147483648	; 0x80000000
 808584c:	4608      	moveq	r0, r1
 808584e:	f091 0f00 	teqne	r1, #0
 8085852:	f091 4f00 	teqne	r1, #2147483648	; 0x80000000
 8085856:	d014      	beq.n	8085882 <__aeabi_fmul+0x15e>
 8085858:	ea92 0f0c 	teq	r2, ip
 808585c:	d101      	bne.n	8085862 <__aeabi_fmul+0x13e>
 808585e:	0242      	lsls	r2, r0, #9
 8085860:	d10f      	bne.n	8085882 <__aeabi_fmul+0x15e>
 8085862:	ea93 0f0c 	teq	r3, ip
 8085866:	d103      	bne.n	8085870 <__aeabi_fmul+0x14c>
 8085868:	024b      	lsls	r3, r1, #9
 808586a:	bf18      	it	ne
 808586c:	4608      	movne	r0, r1
 808586e:	d108      	bne.n	8085882 <__aeabi_fmul+0x15e>
 8085870:	ea80 0001 	eor.w	r0, r0, r1
 8085874:	f000 4000 	and.w	r0, r0, #2147483648	; 0x80000000
 8085878:	f040 40fe 	orr.w	r0, r0, #2130706432	; 0x7f000000
 808587c:	f440 0000 	orr.w	r0, r0, #8388608	; 0x800000
 8085880:	4770      	bx	lr
 8085882:	f040 40fe 	orr.w	r0, r0, #2130706432	; 0x7f000000
 8085886:	f440 0040 	orr.w	r0, r0, #12582912	; 0xc00000
 808588a:	4770      	bx	lr

0808588c <__aeabi_fdiv>:
 808588c:	f04f 0cff 	mov.w	ip, #255	; 0xff
 8085890:	ea1c 52d0 	ands.w	r2, ip, r0, lsr #23
 8085894:	bf1e      	ittt	ne
 8085896:	ea1c 53d1 	andsne.w	r3, ip, r1, lsr #23
 808589a:	ea92 0f0c 	teqne	r2, ip
 808589e:	ea93 0f0c 	teqne	r3, ip
 80858a2:	d069      	beq.n	8085978 <__aeabi_fdiv+0xec>
 80858a4:	eba2 0203 	sub.w	r2, r2, r3
 80858a8:	ea80 0c01 	eor.w	ip, r0, r1
 80858ac:	0249      	lsls	r1, r1, #9
 80858ae:	ea4f 2040 	mov.w	r0, r0, lsl #9
 80858b2:	d037      	beq.n	8085924 <__aeabi_fdiv+0x98>
 80858b4:	f04f 5380 	mov.w	r3, #268435456	; 0x10000000
 80858b8:	ea43 1111 	orr.w	r1, r3, r1, lsr #4
 80858bc:	ea43 1310 	orr.w	r3, r3, r0, lsr #4
 80858c0:	f00c 4000 	and.w	r0, ip, #2147483648	; 0x80000000
 80858c4:	428b      	cmp	r3, r1
 80858c6:	bf38      	it	cc
 80858c8:	005b      	lslcc	r3, r3, #1
 80858ca:	f142 027d 	adc.w	r2, r2, #125	; 0x7d
 80858ce:	f44f 0c00 	mov.w	ip, #8388608	; 0x800000
 80858d2:	428b      	cmp	r3, r1
 80858d4:	bf24      	itt	cs
 80858d6:	1a5b      	subcs	r3, r3, r1
 80858d8:	ea40 000c 	orrcs.w	r0, r0, ip
 80858dc:	ebb3 0f51 	cmp.w	r3, r1, lsr #1
 80858e0:	bf24      	itt	cs
 80858e2:	eba3 0351 	subcs.w	r3, r3, r1, lsr #1
 80858e6:	ea40 005c 	orrcs.w	r0, r0, ip, lsr #1
 80858ea:	ebb3 0f91 	cmp.w	r3, r1, lsr #2
 80858ee:	bf24      	itt	cs
 80858f0:	eba3 0391 	subcs.w	r3, r3, r1, lsr #2
 80858f4:	ea40 009c 	orrcs.w	r0, r0, ip, lsr #2
 80858f8:	ebb3 0fd1 	cmp.w	r3, r1, lsr #3
 80858fc:	bf24      	itt	cs
 80858fe:	eba3 03d1 	subcs.w	r3, r3, r1, lsr #3
 8085902:	ea40 00dc 	orrcs.w	r0, r0, ip, lsr #3
 8085906:	011b      	lsls	r3, r3, #4
 8085908:	bf18      	it	ne
 808590a:	ea5f 1c1c 	movsne.w	ip, ip, lsr #4
 808590e:	d1e0      	bne.n	80858d2 <__aeabi_fdiv+0x46>
 8085910:	2afd      	cmp	r2, #253	; 0xfd
 8085912:	f63f af50 	bhi.w	80857b6 <__aeabi_fmul+0x92>
 8085916:	428b      	cmp	r3, r1
 8085918:	eb40 50c2 	adc.w	r0, r0, r2, lsl #23
 808591c:	bf08      	it	eq
 808591e:	f020 0001 	biceq.w	r0, r0, #1
 8085922:	4770      	bx	lr
 8085924:	f00c 4c00 	and.w	ip, ip, #2147483648	; 0x80000000
 8085928:	ea4c 2050 	orr.w	r0, ip, r0, lsr #9
 808592c:	327f      	adds	r2, #127	; 0x7f
 808592e:	bfc2      	ittt	gt
 8085930:	f1d2 03ff 	rsbsgt	r3, r2, #255	; 0xff
 8085934:	ea40 50c2 	orrgt.w	r0, r0, r2, lsl #23
 8085938:	4770      	bxgt	lr
 808593a:	f440 0000 	orr.w	r0, r0, #8388608	; 0x800000
 808593e:	f04f 0300 	mov.w	r3, #0
 8085942:	3a01      	subs	r2, #1
 8085944:	e737      	b.n	80857b6 <__aeabi_fmul+0x92>
 8085946:	f092 0f00 	teq	r2, #0
 808594a:	f000 4c00 	and.w	ip, r0, #2147483648	; 0x80000000
 808594e:	bf02      	ittt	eq
 8085950:	0040      	lsleq	r0, r0, #1
 8085952:	f410 0f00 	tsteq.w	r0, #8388608	; 0x800000
 8085956:	3a01      	subeq	r2, #1
 8085958:	d0f9      	beq.n	808594e <__aeabi_fdiv+0xc2>
 808595a:	ea40 000c 	orr.w	r0, r0, ip
 808595e:	f093 0f00 	teq	r3, #0
 8085962:	f001 4c00 	and.w	ip, r1, #2147483648	; 0x80000000
 8085966:	bf02      	ittt	eq
 8085968:	0049      	lsleq	r1, r1, #1
 808596a:	f411 0f00 	tsteq.w	r1, #8388608	; 0x800000
 808596e:	3b01      	subeq	r3, #1
 8085970:	d0f9      	beq.n	8085966 <__aeabi_fdiv+0xda>
 8085972:	ea41 010c 	orr.w	r1, r1, ip
 8085976:	e795      	b.n	80858a4 <__aeabi_fdiv+0x18>
 8085978:	ea0c 53d1 	and.w	r3, ip, r1, lsr #23
 808597c:	ea92 0f0c 	teq	r2, ip
 8085980:	d108      	bne.n	8085994 <__aeabi_fdiv+0x108>
 8085982:	0242      	lsls	r2, r0, #9
 8085984:	f47f af7d 	bne.w	8085882 <__aeabi_fmul+0x15e>
 8085988:	ea93 0f0c 	teq	r3, ip
 808598c:	f47f af70 	bne.w	8085870 <__aeabi_fmul+0x14c>
 8085990:	4608      	mov	r0, r1
 8085992:	e776      	b.n	8085882 <__aeabi_fmul+0x15e>
 8085994:	ea93 0f0c 	teq	r3, ip
 8085998:	d104      	bne.n	80859a4 <__aeabi_fdiv+0x118>
 808599a:	024b      	lsls	r3, r1, #9
 808599c:	f43f af4c 	beq.w	8085838 <__aeabi_fmul+0x114>
 80859a0:	4608      	mov	r0, r1
 80859a2:	e76e      	b.n	8085882 <__aeabi_fmul+0x15e>
 80859a4:	f030 4c00 	bics.w	ip, r0, #2147483648	; 0x80000000
 80859a8:	bf18      	it	ne
 80859aa:	f031 4c00 	bicsne.w	ip, r1, #2147483648	; 0x80000000
 80859ae:	d1ca      	bne.n	8085946 <__aeabi_fdiv+0xba>
 80859b0:	f030 4200 	bics.w	r2, r0, #2147483648	; 0x80000000
 80859b4:	f47f af5c 	bne.w	8085870 <__aeabi_fmul+0x14c>
 80859b8:	f031 4300 	bics.w	r3, r1, #2147483648	; 0x80000000
 80859bc:	f47f af3c 	bne.w	8085838 <__aeabi_fmul+0x114>
 80859c0:	e75f      	b.n	8085882 <__aeabi_fmul+0x15e>
 80859c2:	bf00      	nop

080859c4 <__gesf2>:
 80859c4:	f04f 3cff 	mov.w	ip, #4294967295	; 0xffffffff
 80859c8:	e006      	b.n	80859d8 <__cmpsf2+0x4>
 80859ca:	bf00      	nop

080859cc <__lesf2>:
 80859cc:	f04f 0c01 	mov.w	ip, #1
 80859d0:	e002      	b.n	80859d8 <__cmpsf2+0x4>
 80859d2:	bf00      	nop

080859d4 <__cmpsf2>:
 80859d4:	f04f 0c01 	mov.w	ip, #1
 80859d8:	f84d cd04 	str.w	ip, [sp, #-4]!
 80859dc:	ea4f 0240 	mov.w	r2, r0, lsl #1
 80859e0:	ea4f 0341 	mov.w	r3, r1, lsl #1
 80859e4:	ea7f 6c22 	mvns.w	ip, r2, asr #24
 80859e8:	bf18      	it	ne
 80859ea:	ea7f 6c23 	mvnsne.w	ip, r3, asr #24
 80859ee:	d011      	beq.n	8085a14 <__cmpsf2+0x40>
 80859f0:	b001      	add	sp, #4
 80859f2:	ea52 0c53 	orrs.w	ip, r2, r3, lsr #1
 80859f6:	bf18      	it	ne
 80859f8:	ea90 0f01 	teqne	r0, r1
 80859fc:	bf58      	it	pl
 80859fe:	ebb2 0003 	subspl.w	r0, r2, r3
 8085a02:	bf88      	it	hi
 8085a04:	17c8      	asrhi	r0, r1, #31
 8085a06:	bf38      	it	cc
 8085a08:	ea6f 70e1 	mvncc.w	r0, r1, asr #31
 8085a0c:	bf18      	it	ne
 8085a0e:	f040 0001 	orrne.w	r0, r0, #1
 8085a12:	4770      	bx	lr
 8085a14:	ea7f 6c22 	mvns.w	ip, r2, asr #24
 8085a18:	d102      	bne.n	8085a20 <__cmpsf2+0x4c>
 8085a1a:	ea5f 2c40 	movs.w	ip, r0, lsl #9
 8085a1e:	d105      	bne.n	8085a2c <__cmpsf2+0x58>
 8085a20:	ea7f 6c23 	mvns.w	ip, r3, asr #24
 8085a24:	d1e4      	bne.n	80859f0 <__cmpsf2+0x1c>
 8085a26:	ea5f 2c41 	movs.w	ip, r1, lsl #9
 8085a2a:	d0e1      	beq.n	80859f0 <__cmpsf2+0x1c>
 8085a2c:	f85d 0b04 	ldr.w	r0, [sp], #4
 8085a30:	4770      	bx	lr
 8085a32:	bf00      	nop

08085a34 <__aeabi_cfrcmple>:
 8085a34:	4684      	mov	ip, r0
 8085a36:	4608      	mov	r0, r1
 8085a38:	4661      	mov	r1, ip
 8085a3a:	e7ff      	b.n	8085a3c <__aeabi_cfcmpeq>

08085a3c <__aeabi_cfcmpeq>:
 8085a3c:	b50f      	push	{r0, r1, r2, r3, lr}
 8085a3e:	f7ff ffc9 	bl	80859d4 <__cmpsf2>
 8085a42:	2800      	cmp	r0, #0
 8085a44:	bf48      	it	mi
 8085a46:	f110 0f00 	cmnmi.w	r0, #0
 8085a4a:	bd0f      	pop	{r0, r1, r2, r3, pc}

08085a4c <__aeabi_fcmpeq>:
 8085a4c:	f84d ed08 	str.w	lr, [sp, #-8]!
 8085a50:	f7ff fff4 	bl	8085a3c <__aeabi_cfcmpeq>
 8085a54:	bf0c      	ite	eq
 8085a56:	2001      	moveq	r0, #1
 8085a58:	2000      	movne	r0, #0
 8085a5a:	f85d fb08 	ldr.w	pc, [sp], #8
 8085a5e:	bf00      	nop

08085a60 <__aeabi_fcmplt>:
 8085a60:	f84d ed08 	str.w	lr, [sp, #-8]!
 8085a64:	f7ff ffea 	bl	8085a3c <__aeabi_cfcmpeq>
 8085a68:	bf34      	ite	cc
 8085a6a:	2001      	movcc	r0, #1
 8085a6c:	2000      	movcs	r0, #0
 8085a6e:	f85d fb08 	ldr.w	pc, [sp], #8
 8085a72:	bf00      	nop

08085a74 <__aeabi_fcmple>:
 8085a74:	f84d ed08 	str.w	lr, [sp, #-8]!
 8085a78:	f7ff ffe0 	bl	8085a3c <__aeabi_cfcmpeq>
 8085a7c:	bf94      	ite	ls
 8085a7e:	2001      	movls	r0, #1
 8085a80:	2000      	movhi	r0, #0
 8085a82:	f85d fb08 	ldr.w	pc, [sp], #8
 8085a86:	bf00      	nop

08085a88 <__aeabi_fcmpge>:
 8085a88:	f84d ed08 	str.w	lr, [sp, #-8]!
 8085a8c:	f7ff ffd2 	bl	8085a34 <__aeabi_cfrcmple>
 8085a90:	bf94      	ite	ls
 8085a92:	2001      	movls	r0, #1
 8085a94:	2000      	movhi	r0, #0
 8085a96:	f85d fb08 	ldr.w	pc, [sp], #8
 8085a9a:	bf00      	nop

08085a9c <__aeabi_fcmpgt>:
 8085a9c:	f84d ed08 	str.w	lr, [sp, #-8]!
 8085aa0:	f7ff ffc8 	bl	8085a34 <__aeabi_cfrcmple>
 8085aa4:	bf34      	ite	cc
 8085aa6:	2001      	movcc	r0, #1
 8085aa8:	2000      	movcs	r0, #0
 8085aaa:	f85d fb08 	ldr.w	pc, [sp], #8
 8085aae:	bf00      	nop

08085ab0 <__aeabi_f2iz>:
 8085ab0:	ea4f 0240 	mov.w	r2, r0, lsl #1
 8085ab4:	f1b2 4ffe 	cmp.w	r2, #2130706432	; 0x7f000000
 8085ab8:	d30f      	bcc.n	8085ada <__aeabi_f2iz+0x2a>
 8085aba:	f04f 039e 	mov.w	r3, #158	; 0x9e
 8085abe:	ebb3 6212 	subs.w	r2, r3, r2, lsr #24
 8085ac2:	d90d      	bls.n	8085ae0 <__aeabi_f2iz+0x30>
 8085ac4:	ea4f 2300 	mov.w	r3, r0, lsl #8
 8085ac8:	f043 4300 	orr.w	r3, r3, #2147483648	; 0x80000000
 8085acc:	f010 4f00 	tst.w	r0, #2147483648	; 0x80000000
 8085ad0:	fa23 f002 	lsr.w	r0, r3, r2
 8085ad4:	bf18      	it	ne
 8085ad6:	4240      	negne	r0, r0
 8085ad8:	4770      	bx	lr
 8085ada:	f04f 0000 	mov.w	r0, #0
 8085ade:	4770      	bx	lr
 8085ae0:	f112 0f61 	cmn.w	r2, #97	; 0x61
 8085ae4:	d101      	bne.n	8085aea <__aeabi_f2iz+0x3a>
 8085ae6:	0242      	lsls	r2, r0, #9
 8085ae8:	d105      	bne.n	8085af6 <__aeabi_f2iz+0x46>
 8085aea:	f010 4000 	ands.w	r0, r0, #2147483648	; 0x80000000
 8085aee:	bf08      	it	eq
 8085af0:	f06f 4000 	mvneq.w	r0, #2147483648	; 0x80000000
 8085af4:	4770      	bx	lr
 8085af6:	f04f 0000 	mov.w	r0, #0
 8085afa:	4770      	bx	lr

08085afc <__aeabi_f2lz>:
 8085afc:	b510      	push	{r4, lr}
 8085afe:	2100      	movs	r1, #0
 8085b00:	4604      	mov	r4, r0
 8085b02:	f7ff ffad 	bl	8085a60 <__aeabi_fcmplt>
 8085b06:	b920      	cbnz	r0, 8085b12 <__aeabi_f2lz+0x16>
 8085b08:	4620      	mov	r0, r4
 8085b0a:	e8bd 4010 	ldmia.w	sp!, {r4, lr}
 8085b0e:	f000 b809 	b.w	8085b24 <__aeabi_f2ulz>
 8085b12:	f104 4000 	add.w	r0, r4, #2147483648	; 0x80000000
 8085b16:	f000 f805 	bl	8085b24 <__aeabi_f2ulz>
 8085b1a:	4240      	negs	r0, r0
 8085b1c:	eb61 0141 	sbc.w	r1, r1, r1, lsl #1
 8085b20:	bd10      	pop	{r4, pc}
 8085b22:	bf00      	nop

08085b24 <__aeabi_f2ulz>:
 8085b24:	b5d0      	push	{r4, r6, r7, lr}
 8085b26:	f7ff f9ed 	bl	8084f04 <__aeabi_f2d>
 8085b2a:	2200      	movs	r2, #0
 8085b2c:	4b0b      	ldr	r3, [pc, #44]	; (8085b5c <__aeabi_f2ulz+0x38>)
 8085b2e:	4606      	mov	r6, r0
 8085b30:	460f      	mov	r7, r1
 8085b32:	f7ff fa3f 	bl	8084fb4 <__aeabi_dmul>
 8085b36:	f7ff fc77 	bl	8085428 <__aeabi_d2uiz>
 8085b3a:	4604      	mov	r4, r0
 8085b3c:	f7ff f9c0 	bl	8084ec0 <__aeabi_ui2d>
 8085b40:	2200      	movs	r2, #0
 8085b42:	4b07      	ldr	r3, [pc, #28]	; (8085b60 <__aeabi_f2ulz+0x3c>)
 8085b44:	f7ff fa36 	bl	8084fb4 <__aeabi_dmul>
 8085b48:	4602      	mov	r2, r0
 8085b4a:	460b      	mov	r3, r1
 8085b4c:	4630      	mov	r0, r6
 8085b4e:	4639      	mov	r1, r7
 8085b50:	f7ff f878 	bl	8084c44 <__aeabi_dsub>
 8085b54:	f7ff fc68 	bl	8085428 <__aeabi_d2uiz>
 8085b58:	4621      	mov	r1, r4
 8085b5a:	bdd0      	pop	{r4, r6, r7, pc}
 8085b5c:	3df00000 	.word	0x3df00000
 8085b60:	41f00000 	.word	0x41f00000

08085b64 <asctime_r>:
 8085b64:	b510      	push	{r4, lr}
 8085b66:	460c      	mov	r4, r1
 8085b68:	6941      	ldr	r1, [r0, #20]
 8085b6a:	b086      	sub	sp, #24
 8085b6c:	f201 716c 	addw	r1, r1, #1900	; 0x76c
 8085b70:	6903      	ldr	r3, [r0, #16]
 8085b72:	6982      	ldr	r2, [r0, #24]
 8085b74:	9104      	str	r1, [sp, #16]
 8085b76:	6801      	ldr	r1, [r0, #0]
 8085b78:	eb03 0343 	add.w	r3, r3, r3, lsl #1
 8085b7c:	9103      	str	r1, [sp, #12]
 8085b7e:	6841      	ldr	r1, [r0, #4]
 8085b80:	eb02 0242 	add.w	r2, r2, r2, lsl #1
 8085b84:	9102      	str	r1, [sp, #8]
 8085b86:	6881      	ldr	r1, [r0, #8]
 8085b88:	9101      	str	r1, [sp, #4]
 8085b8a:	68c1      	ldr	r1, [r0, #12]
 8085b8c:	4620      	mov	r0, r4
 8085b8e:	9100      	str	r1, [sp, #0]
 8085b90:	4904      	ldr	r1, [pc, #16]	; (8085ba4 <asctime_r+0x40>)
 8085b92:	440b      	add	r3, r1
 8085b94:	4904      	ldr	r1, [pc, #16]	; (8085ba8 <asctime_r+0x44>)
 8085b96:	440a      	add	r2, r1
 8085b98:	4904      	ldr	r1, [pc, #16]	; (8085bac <asctime_r+0x48>)
 8085b9a:	f7fc f9f1 	bl	8081f80 <siprintf>
 8085b9e:	4620      	mov	r0, r4
 8085ba0:	b006      	add	sp, #24
 8085ba2:	bd10      	pop	{r4, pc}
 8085ba4:	08086666 	.word	0x08086666
 8085ba8:	08086651 	.word	0x08086651
 8085bac:	08086631 	.word	0x08086631

08085bb0 <atexit>:
 8085bb0:	2300      	movs	r3, #0
 8085bb2:	4601      	mov	r1, r0
 8085bb4:	461a      	mov	r2, r3
 8085bb6:	4618      	mov	r0, r3
 8085bb8:	f000 b978 	b.w	8085eac <__register_exitproc>

08085bbc <atoi>:
 8085bbc:	220a      	movs	r2, #10
 8085bbe:	2100      	movs	r1, #0
 8085bc0:	f000 b96a 	b.w	8085e98 <strtol>

08085bc4 <difftime>:
 8085bc4:	b508      	push	{r3, lr}
 8085bc6:	1a80      	subs	r0, r0, r2
 8085bc8:	eb61 0103 	sbc.w	r1, r1, r3
 8085bcc:	f7ff f9c4 	bl	8084f58 <__aeabi_l2d>
 8085bd0:	bd08      	pop	{r3, pc}

08085bd2 <memcpy>:
 8085bd2:	440a      	add	r2, r1
 8085bd4:	4291      	cmp	r1, r2
 8085bd6:	f100 33ff 	add.w	r3, r0, #4294967295	; 0xffffffff
 8085bda:	d100      	bne.n	8085bde <memcpy+0xc>
 8085bdc:	4770      	bx	lr
 8085bde:	b510      	push	{r4, lr}
 8085be0:	f811 4b01 	ldrb.w	r4, [r1], #1
 8085be4:	4291      	cmp	r1, r2
 8085be6:	f803 4f01 	strb.w	r4, [r3, #1]!
 8085bea:	d1f9      	bne.n	8085be0 <memcpy+0xe>
 8085bec:	bd10      	pop	{r4, pc}

08085bee <memmove>:
 8085bee:	4288      	cmp	r0, r1
 8085bf0:	b510      	push	{r4, lr}
 8085bf2:	eb01 0402 	add.w	r4, r1, r2
 8085bf6:	d902      	bls.n	8085bfe <memmove+0x10>
 8085bf8:	4284      	cmp	r4, r0
 8085bfa:	4623      	mov	r3, r4
 8085bfc:	d807      	bhi.n	8085c0e <memmove+0x20>
 8085bfe:	1e43      	subs	r3, r0, #1
 8085c00:	42a1      	cmp	r1, r4
 8085c02:	d008      	beq.n	8085c16 <memmove+0x28>
 8085c04:	f811 2b01 	ldrb.w	r2, [r1], #1
 8085c08:	f803 2f01 	strb.w	r2, [r3, #1]!
 8085c0c:	e7f8      	b.n	8085c00 <memmove+0x12>
 8085c0e:	4601      	mov	r1, r0
 8085c10:	4402      	add	r2, r0
 8085c12:	428a      	cmp	r2, r1
 8085c14:	d100      	bne.n	8085c18 <memmove+0x2a>
 8085c16:	bd10      	pop	{r4, pc}
 8085c18:	f813 4d01 	ldrb.w	r4, [r3, #-1]!
 8085c1c:	f802 4d01 	strb.w	r4, [r2, #-1]!
 8085c20:	e7f7      	b.n	8085c12 <memmove+0x24>

08085c22 <memset>:
 8085c22:	4603      	mov	r3, r0
 8085c24:	4402      	add	r2, r0
 8085c26:	4293      	cmp	r3, r2
 8085c28:	d100      	bne.n	8085c2c <memset+0xa>
 8085c2a:	4770      	bx	lr
 8085c2c:	f803 1b01 	strb.w	r1, [r3], #1
 8085c30:	e7f9      	b.n	8085c26 <memset+0x4>
	...

08085c34 <srand>:
 8085c34:	b538      	push	{r3, r4, r5, lr}
 8085c36:	4b0d      	ldr	r3, [pc, #52]	; (8085c6c <srand+0x38>)
 8085c38:	4604      	mov	r4, r0
 8085c3a:	681d      	ldr	r5, [r3, #0]
 8085c3c:	6bab      	ldr	r3, [r5, #56]	; 0x38
 8085c3e:	b97b      	cbnz	r3, 8085c60 <srand+0x2c>
 8085c40:	2018      	movs	r0, #24
 8085c42:	f7fc f985 	bl	8081f50 <malloc>
 8085c46:	4a0a      	ldr	r2, [pc, #40]	; (8085c70 <srand+0x3c>)
 8085c48:	4b0a      	ldr	r3, [pc, #40]	; (8085c74 <srand+0x40>)
 8085c4a:	63a8      	str	r0, [r5, #56]	; 0x38
 8085c4c:	e9c0 2300 	strd	r2, r3, [r0]
 8085c50:	4b09      	ldr	r3, [pc, #36]	; (8085c78 <srand+0x44>)
 8085c52:	2201      	movs	r2, #1
 8085c54:	6083      	str	r3, [r0, #8]
 8085c56:	230b      	movs	r3, #11
 8085c58:	8183      	strh	r3, [r0, #12]
 8085c5a:	2300      	movs	r3, #0
 8085c5c:	e9c0 2304 	strd	r2, r3, [r0, #16]
 8085c60:	2200      	movs	r2, #0
 8085c62:	6bab      	ldr	r3, [r5, #56]	; 0x38
 8085c64:	611c      	str	r4, [r3, #16]
 8085c66:	615a      	str	r2, [r3, #20]
 8085c68:	bd38      	pop	{r3, r4, r5, pc}
 8085c6a:	bf00      	nop
 8085c6c:	20000098 	.word	0x20000098
 8085c70:	abcd330e 	.word	0xabcd330e
 8085c74:	e66d1234 	.word	0xe66d1234
 8085c78:	0005deec 	.word	0x0005deec

08085c7c <strcat>:
 8085c7c:	4602      	mov	r2, r0
 8085c7e:	b510      	push	{r4, lr}
 8085c80:	7814      	ldrb	r4, [r2, #0]
 8085c82:	4613      	mov	r3, r2
 8085c84:	3201      	adds	r2, #1
 8085c86:	2c00      	cmp	r4, #0
 8085c88:	d1fa      	bne.n	8085c80 <strcat+0x4>
 8085c8a:	3b01      	subs	r3, #1
 8085c8c:	f811 2b01 	ldrb.w	r2, [r1], #1
 8085c90:	f803 2f01 	strb.w	r2, [r3, #1]!
 8085c94:	2a00      	cmp	r2, #0
 8085c96:	d1f9      	bne.n	8085c8c <strcat+0x10>
 8085c98:	bd10      	pop	{r4, pc}

08085c9a <strchr>:
 8085c9a:	4603      	mov	r3, r0
 8085c9c:	b2c9      	uxtb	r1, r1
 8085c9e:	4618      	mov	r0, r3
 8085ca0:	f813 2b01 	ldrb.w	r2, [r3], #1
 8085ca4:	b112      	cbz	r2, 8085cac <strchr+0x12>
 8085ca6:	428a      	cmp	r2, r1
 8085ca8:	d1f9      	bne.n	8085c9e <strchr+0x4>
 8085caa:	4770      	bx	lr
 8085cac:	2900      	cmp	r1, #0
 8085cae:	bf18      	it	ne
 8085cb0:	2000      	movne	r0, #0
 8085cb2:	4770      	bx	lr

08085cb4 <strchrnul>:
 8085cb4:	b510      	push	{r4, lr}
 8085cb6:	4604      	mov	r4, r0
 8085cb8:	f7ff ffef 	bl	8085c9a <strchr>
 8085cbc:	b918      	cbnz	r0, 8085cc6 <strchrnul+0x12>
 8085cbe:	4620      	mov	r0, r4
 8085cc0:	f000 f82f 	bl	8085d22 <strlen>
 8085cc4:	4420      	add	r0, r4
 8085cc6:	bd10      	pop	{r4, pc}

08085cc8 <strcmp>:
 8085cc8:	f810 2b01 	ldrb.w	r2, [r0], #1
 8085ccc:	f811 3b01 	ldrb.w	r3, [r1], #1
 8085cd0:	2a01      	cmp	r2, #1
 8085cd2:	bf28      	it	cs
 8085cd4:	429a      	cmpcs	r2, r3
 8085cd6:	d0f7      	beq.n	8085cc8 <strcmp>
 8085cd8:	1ad0      	subs	r0, r2, r3
 8085cda:	4770      	bx	lr

08085cdc <strcpy>:
 8085cdc:	4603      	mov	r3, r0
 8085cde:	f811 2b01 	ldrb.w	r2, [r1], #1
 8085ce2:	f803 2b01 	strb.w	r2, [r3], #1
 8085ce6:	2a00      	cmp	r2, #0
 8085ce8:	d1f9      	bne.n	8085cde <strcpy+0x2>
 8085cea:	4770      	bx	lr

08085cec <strdup>:
 8085cec:	4b02      	ldr	r3, [pc, #8]	; (8085cf8 <strdup+0xc>)
 8085cee:	4601      	mov	r1, r0
 8085cf0:	6818      	ldr	r0, [r3, #0]
 8085cf2:	f000 b803 	b.w	8085cfc <_strdup_r>
 8085cf6:	bf00      	nop
 8085cf8:	20000098 	.word	0x20000098

08085cfc <_strdup_r>:
 8085cfc:	b570      	push	{r4, r5, r6, lr}
 8085cfe:	4604      	mov	r4, r0
 8085d00:	4608      	mov	r0, r1
 8085d02:	460d      	mov	r5, r1
 8085d04:	f000 f80d 	bl	8085d22 <strlen>
 8085d08:	1c46      	adds	r6, r0, #1
 8085d0a:	4631      	mov	r1, r6
 8085d0c:	4620      	mov	r0, r4
 8085d0e:	f7fc f957 	bl	8081fc0 <_malloc_r>
 8085d12:	4604      	mov	r4, r0
 8085d14:	b118      	cbz	r0, 8085d1e <_strdup_r+0x22>
 8085d16:	4632      	mov	r2, r6
 8085d18:	4629      	mov	r1, r5
 8085d1a:	f7ff ff5a 	bl	8085bd2 <memcpy>
 8085d1e:	4620      	mov	r0, r4
 8085d20:	bd70      	pop	{r4, r5, r6, pc}

08085d22 <strlen>:
 8085d22:	4603      	mov	r3, r0
 8085d24:	f813 2b01 	ldrb.w	r2, [r3], #1
 8085d28:	2a00      	cmp	r2, #0
 8085d2a:	d1fb      	bne.n	8085d24 <strlen+0x2>
 8085d2c:	1a18      	subs	r0, r3, r0
 8085d2e:	3801      	subs	r0, #1
 8085d30:	4770      	bx	lr

08085d32 <strncmp>:
 8085d32:	b510      	push	{r4, lr}
 8085d34:	b16a      	cbz	r2, 8085d52 <strncmp+0x20>
 8085d36:	3901      	subs	r1, #1
 8085d38:	1884      	adds	r4, r0, r2
 8085d3a:	f810 3b01 	ldrb.w	r3, [r0], #1
 8085d3e:	f811 2f01 	ldrb.w	r2, [r1, #1]!
 8085d42:	4293      	cmp	r3, r2
 8085d44:	d103      	bne.n	8085d4e <strncmp+0x1c>
 8085d46:	42a0      	cmp	r0, r4
 8085d48:	d001      	beq.n	8085d4e <strncmp+0x1c>
 8085d4a:	2b00      	cmp	r3, #0
 8085d4c:	d1f5      	bne.n	8085d3a <strncmp+0x8>
 8085d4e:	1a98      	subs	r0, r3, r2
 8085d50:	bd10      	pop	{r4, pc}
 8085d52:	4610      	mov	r0, r2
 8085d54:	e7fc      	b.n	8085d50 <strncmp+0x1e>

08085d56 <strncpy>:
 8085d56:	4603      	mov	r3, r0
 8085d58:	b510      	push	{r4, lr}
 8085d5a:	3901      	subs	r1, #1
 8085d5c:	b132      	cbz	r2, 8085d6c <strncpy+0x16>
 8085d5e:	f811 4f01 	ldrb.w	r4, [r1, #1]!
 8085d62:	3a01      	subs	r2, #1
 8085d64:	f803 4b01 	strb.w	r4, [r3], #1
 8085d68:	2c00      	cmp	r4, #0
 8085d6a:	d1f7      	bne.n	8085d5c <strncpy+0x6>
 8085d6c:	2100      	movs	r1, #0
 8085d6e:	441a      	add	r2, r3
 8085d70:	4293      	cmp	r3, r2
 8085d72:	d100      	bne.n	8085d76 <strncpy+0x20>
 8085d74:	bd10      	pop	{r4, pc}
 8085d76:	f803 1b01 	strb.w	r1, [r3], #1
 8085d7a:	e7f9      	b.n	8085d70 <strncpy+0x1a>

08085d7c <strrchr>:
 8085d7c:	b538      	push	{r3, r4, r5, lr}
 8085d7e:	4603      	mov	r3, r0
 8085d80:	460c      	mov	r4, r1
 8085d82:	b969      	cbnz	r1, 8085da0 <strrchr+0x24>
 8085d84:	e8bd 4038 	ldmia.w	sp!, {r3, r4, r5, lr}
 8085d88:	f7ff bf87 	b.w	8085c9a <strchr>
 8085d8c:	4605      	mov	r5, r0
 8085d8e:	1c43      	adds	r3, r0, #1
 8085d90:	4621      	mov	r1, r4
 8085d92:	4618      	mov	r0, r3
 8085d94:	f7ff ff81 	bl	8085c9a <strchr>
 8085d98:	2800      	cmp	r0, #0
 8085d9a:	d1f7      	bne.n	8085d8c <strrchr+0x10>
 8085d9c:	4628      	mov	r0, r5
 8085d9e:	bd38      	pop	{r3, r4, r5, pc}
 8085da0:	2500      	movs	r5, #0
 8085da2:	e7f5      	b.n	8085d90 <strrchr+0x14>

08085da4 <_strtol_l.isra.0>:
 8085da4:	e92d 47f0 	stmdb	sp!, {r4, r5, r6, r7, r8, r9, sl, lr}
 8085da8:	468c      	mov	ip, r1
 8085daa:	4686      	mov	lr, r0
 8085dac:	4e39      	ldr	r6, [pc, #228]	; (8085e94 <_strtol_l.isra.0+0xf0>)
 8085dae:	4660      	mov	r0, ip
 8085db0:	f81c 4b01 	ldrb.w	r4, [ip], #1
 8085db4:	5da5      	ldrb	r5, [r4, r6]
 8085db6:	f015 0508 	ands.w	r5, r5, #8
 8085dba:	d1f8      	bne.n	8085dae <_strtol_l.isra.0+0xa>
 8085dbc:	2c2d      	cmp	r4, #45	; 0x2d
 8085dbe:	d133      	bne.n	8085e28 <_strtol_l.isra.0+0x84>
 8085dc0:	f04f 0801 	mov.w	r8, #1
 8085dc4:	f89c 4000 	ldrb.w	r4, [ip]
 8085dc8:	f100 0c02 	add.w	ip, r0, #2
 8085dcc:	2b00      	cmp	r3, #0
 8085dce:	d05c      	beq.n	8085e8a <_strtol_l.isra.0+0xe6>
 8085dd0:	2b10      	cmp	r3, #16
 8085dd2:	d10c      	bne.n	8085dee <_strtol_l.isra.0+0x4a>
 8085dd4:	2c30      	cmp	r4, #48	; 0x30
 8085dd6:	d10a      	bne.n	8085dee <_strtol_l.isra.0+0x4a>
 8085dd8:	f89c 0000 	ldrb.w	r0, [ip]
 8085ddc:	f000 00df 	and.w	r0, r0, #223	; 0xdf
 8085de0:	2858      	cmp	r0, #88	; 0x58
 8085de2:	d14d      	bne.n	8085e80 <_strtol_l.isra.0+0xdc>
 8085de4:	2310      	movs	r3, #16
 8085de6:	f89c 4001 	ldrb.w	r4, [ip, #1]
 8085dea:	f10c 0c02 	add.w	ip, ip, #2
 8085dee:	2600      	movs	r6, #0
 8085df0:	f108 4700 	add.w	r7, r8, #2147483648	; 0x80000000
 8085df4:	3f01      	subs	r7, #1
 8085df6:	fbb7 f9f3 	udiv	r9, r7, r3
 8085dfa:	4630      	mov	r0, r6
 8085dfc:	fb03 7a19 	mls	sl, r3, r9, r7
 8085e00:	f1a4 0530 	sub.w	r5, r4, #48	; 0x30
 8085e04:	2d09      	cmp	r5, #9
 8085e06:	d818      	bhi.n	8085e3a <_strtol_l.isra.0+0x96>
 8085e08:	462c      	mov	r4, r5
 8085e0a:	42a3      	cmp	r3, r4
 8085e0c:	dd24      	ble.n	8085e58 <_strtol_l.isra.0+0xb4>
 8085e0e:	1c75      	adds	r5, r6, #1
 8085e10:	d007      	beq.n	8085e22 <_strtol_l.isra.0+0x7e>
 8085e12:	4581      	cmp	r9, r0
 8085e14:	d31d      	bcc.n	8085e52 <_strtol_l.isra.0+0xae>
 8085e16:	d101      	bne.n	8085e1c <_strtol_l.isra.0+0x78>
 8085e18:	45a2      	cmp	sl, r4
 8085e1a:	db1a      	blt.n	8085e52 <_strtol_l.isra.0+0xae>
 8085e1c:	2601      	movs	r6, #1
 8085e1e:	fb00 4003 	mla	r0, r0, r3, r4
 8085e22:	f81c 4b01 	ldrb.w	r4, [ip], #1
 8085e26:	e7eb      	b.n	8085e00 <_strtol_l.isra.0+0x5c>
 8085e28:	2c2b      	cmp	r4, #43	; 0x2b
 8085e2a:	bf08      	it	eq
 8085e2c:	f89c 4000 	ldrbeq.w	r4, [ip]
 8085e30:	46a8      	mov	r8, r5
 8085e32:	bf08      	it	eq
 8085e34:	f100 0c02 	addeq.w	ip, r0, #2
 8085e38:	e7c8      	b.n	8085dcc <_strtol_l.isra.0+0x28>
 8085e3a:	f1a4 0541 	sub.w	r5, r4, #65	; 0x41
 8085e3e:	2d19      	cmp	r5, #25
 8085e40:	d801      	bhi.n	8085e46 <_strtol_l.isra.0+0xa2>
 8085e42:	3c37      	subs	r4, #55	; 0x37
 8085e44:	e7e1      	b.n	8085e0a <_strtol_l.isra.0+0x66>
 8085e46:	f1a4 0561 	sub.w	r5, r4, #97	; 0x61
 8085e4a:	2d19      	cmp	r5, #25
 8085e4c:	d804      	bhi.n	8085e58 <_strtol_l.isra.0+0xb4>
 8085e4e:	3c57      	subs	r4, #87	; 0x57
 8085e50:	e7db      	b.n	8085e0a <_strtol_l.isra.0+0x66>
 8085e52:	f04f 36ff 	mov.w	r6, #4294967295	; 0xffffffff
 8085e56:	e7e4      	b.n	8085e22 <_strtol_l.isra.0+0x7e>
 8085e58:	1c73      	adds	r3, r6, #1
 8085e5a:	d106      	bne.n	8085e6a <_strtol_l.isra.0+0xc6>
 8085e5c:	2322      	movs	r3, #34	; 0x22
 8085e5e:	4638      	mov	r0, r7
 8085e60:	f8ce 3000 	str.w	r3, [lr]
 8085e64:	b942      	cbnz	r2, 8085e78 <_strtol_l.isra.0+0xd4>
 8085e66:	e8bd 87f0 	ldmia.w	sp!, {r4, r5, r6, r7, r8, r9, sl, pc}
 8085e6a:	f1b8 0f00 	cmp.w	r8, #0
 8085e6e:	d000      	beq.n	8085e72 <_strtol_l.isra.0+0xce>
 8085e70:	4240      	negs	r0, r0
 8085e72:	2a00      	cmp	r2, #0
 8085e74:	d0f7      	beq.n	8085e66 <_strtol_l.isra.0+0xc2>
 8085e76:	b10e      	cbz	r6, 8085e7c <_strtol_l.isra.0+0xd8>
 8085e78:	f10c 31ff 	add.w	r1, ip, #4294967295	; 0xffffffff
 8085e7c:	6011      	str	r1, [r2, #0]
 8085e7e:	e7f2      	b.n	8085e66 <_strtol_l.isra.0+0xc2>
 8085e80:	2430      	movs	r4, #48	; 0x30
 8085e82:	2b00      	cmp	r3, #0
 8085e84:	d1b3      	bne.n	8085dee <_strtol_l.isra.0+0x4a>
 8085e86:	2308      	movs	r3, #8
 8085e88:	e7b1      	b.n	8085dee <_strtol_l.isra.0+0x4a>
 8085e8a:	2c30      	cmp	r4, #48	; 0x30
 8085e8c:	d0a4      	beq.n	8085dd8 <_strtol_l.isra.0+0x34>
 8085e8e:	230a      	movs	r3, #10
 8085e90:	e7ad      	b.n	8085dee <_strtol_l.isra.0+0x4a>
 8085e92:	bf00      	nop
 8085e94:	0808668b 	.word	0x0808668b

08085e98 <strtol>:
 8085e98:	4613      	mov	r3, r2
 8085e9a:	460a      	mov	r2, r1
 8085e9c:	4601      	mov	r1, r0
 8085e9e:	4802      	ldr	r0, [pc, #8]	; (8085ea8 <strtol+0x10>)
 8085ea0:	6800      	ldr	r0, [r0, #0]
 8085ea2:	f7ff bf7f 	b.w	8085da4 <_strtol_l.isra.0>
 8085ea6:	bf00      	nop
 8085ea8:	20000098 	.word	0x20000098

08085eac <__register_exitproc>:
 8085eac:	e92d 43f8 	stmdb	sp!, {r3, r4, r5, r6, r7, r8, r9, lr}
 8085eb0:	f8df 80bc 	ldr.w	r8, [pc, #188]	; 8085f70 <__register_exitproc+0xc4>
 8085eb4:	4606      	mov	r6, r0
 8085eb6:	f8d8 0000 	ldr.w	r0, [r8]
 8085eba:	461f      	mov	r7, r3
 8085ebc:	460d      	mov	r5, r1
 8085ebe:	4691      	mov	r9, r2
 8085ec0:	f000 f858 	bl	8085f74 <__retarget_lock_acquire_recursive>
 8085ec4:	4b26      	ldr	r3, [pc, #152]	; (8085f60 <__register_exitproc+0xb4>)
 8085ec6:	681c      	ldr	r4, [r3, #0]
 8085ec8:	b934      	cbnz	r4, 8085ed8 <__register_exitproc+0x2c>
 8085eca:	4c26      	ldr	r4, [pc, #152]	; (8085f64 <__register_exitproc+0xb8>)
 8085ecc:	601c      	str	r4, [r3, #0]
 8085ece:	4b26      	ldr	r3, [pc, #152]	; (8085f68 <__register_exitproc+0xbc>)
 8085ed0:	b113      	cbz	r3, 8085ed8 <__register_exitproc+0x2c>
 8085ed2:	681b      	ldr	r3, [r3, #0]
 8085ed4:	f8c4 3088 	str.w	r3, [r4, #136]	; 0x88
 8085ed8:	6863      	ldr	r3, [r4, #4]
 8085eda:	2b1f      	cmp	r3, #31
 8085edc:	dd07      	ble.n	8085eee <__register_exitproc+0x42>
 8085ede:	f8d8 0000 	ldr.w	r0, [r8]
 8085ee2:	f000 f849 	bl	8085f78 <__retarget_lock_release_recursive>
 8085ee6:	f04f 30ff 	mov.w	r0, #4294967295	; 0xffffffff
 8085eea:	e8bd 83f8 	ldmia.w	sp!, {r3, r4, r5, r6, r7, r8, r9, pc}
 8085eee:	b35e      	cbz	r6, 8085f48 <__register_exitproc+0x9c>
 8085ef0:	f8d4 0088 	ldr.w	r0, [r4, #136]	; 0x88
 8085ef4:	b988      	cbnz	r0, 8085f1a <__register_exitproc+0x6e>
 8085ef6:	4b1d      	ldr	r3, [pc, #116]	; (8085f6c <__register_exitproc+0xc0>)
 8085ef8:	b923      	cbnz	r3, 8085f04 <__register_exitproc+0x58>
 8085efa:	f8d8 0000 	ldr.w	r0, [r8]
 8085efe:	f000 f83a 	bl	8085f76 <__retarget_lock_release>
 8085f02:	e7f0      	b.n	8085ee6 <__register_exitproc+0x3a>
 8085f04:	f44f 7084 	mov.w	r0, #264	; 0x108
 8085f08:	f7fc f822 	bl	8081f50 <malloc>
 8085f0c:	2800      	cmp	r0, #0
 8085f0e:	d0f4      	beq.n	8085efa <__register_exitproc+0x4e>
 8085f10:	2300      	movs	r3, #0
 8085f12:	e9c0 3340 	strd	r3, r3, [r0, #256]	; 0x100
 8085f16:	f8c4 0088 	str.w	r0, [r4, #136]	; 0x88
 8085f1a:	2201      	movs	r2, #1
 8085f1c:	6863      	ldr	r3, [r4, #4]
 8085f1e:	2e02      	cmp	r6, #2
 8085f20:	f840 9023 	str.w	r9, [r0, r3, lsl #2]
 8085f24:	fa02 f203 	lsl.w	r2, r2, r3
 8085f28:	eb00 0183 	add.w	r1, r0, r3, lsl #2
 8085f2c:	f8d0 3100 	ldr.w	r3, [r0, #256]	; 0x100
 8085f30:	ea43 0302 	orr.w	r3, r3, r2
 8085f34:	f8c0 3100 	str.w	r3, [r0, #256]	; 0x100
 8085f38:	f8c1 7080 	str.w	r7, [r1, #128]	; 0x80
 8085f3c:	bf02      	ittt	eq
 8085f3e:	f8d0 3104 	ldreq.w	r3, [r0, #260]	; 0x104
 8085f42:	431a      	orreq	r2, r3
 8085f44:	f8c0 2104 	streq.w	r2, [r0, #260]	; 0x104
 8085f48:	6863      	ldr	r3, [r4, #4]
 8085f4a:	f8d8 0000 	ldr.w	r0, [r8]
 8085f4e:	1c5a      	adds	r2, r3, #1
 8085f50:	3302      	adds	r3, #2
 8085f52:	6062      	str	r2, [r4, #4]
 8085f54:	f844 5023 	str.w	r5, [r4, r3, lsl #2]
 8085f58:	f000 f80e 	bl	8085f78 <__retarget_lock_release_recursive>
 8085f5c:	2000      	movs	r0, #0
 8085f5e:	e7c4      	b.n	8085eea <__register_exitproc+0x3e>
 8085f60:	200007a4 	.word	0x200007a4
 8085f64:	20000718 	.word	0x20000718
 8085f68:	00000000 	.word	0x00000000
 8085f6c:	08081f51 	.word	0x08081f51
 8085f70:	200000fc 	.word	0x200000fc

08085f74 <__retarget_lock_acquire_recursive>:
 8085f74:	4770      	bx	lr

08085f76 <__retarget_lock_release>:
 8085f76:	4770      	bx	lr

08085f78 <__retarget_lock_release_recursive>:
 8085f78:	4770      	bx	lr

08085f7a <link_code_end>:
	...

08085f7c <dynalib_user>:
 8085f7c:	0031 0808 0071 0808 0099 0808 009d 0808     1...q...........
 8085f8c:	0000 0000 6e55 6e6b 776f 006e 6f4e 656e     ....Unknown.None
 8085f9c:	5700 4669 0069 5347 004d 4d55 5354 4300     .WiFi.GSM.UMTS.C
 8085fac:	4d44 0041 544c 0045 4549 4545 3038 3132     DMA.LTE.IEEE8021
 8085fbc:	3435 4c00 4554 435f 5441 4d5f 0031 544c     54.LTE_CAT_M1.LT
 8085fcc:	5f45 4143 5f54 424e 0031 6f50 726f 4c00     E_CAT_NB1.Poor.L
 8085fdc:	776f 4d00 6465 7569 006d 6556 7972 4720     ow.Medium.Very G
 8085fec:	6f6f 0064 7247 6165 0074 2e30 3537 2500     ood.Great.0.75.%
 8085ffc:	2073 3a53 3225 302e 2566 2c25 5120 253a     s S:%2.0f%%, Q:%
 808600c:	2e32 6630 2525 0020 6552 6573 7474 6e69     2.0f%% .Resettin
 808601c:	2067 6e69 7020 6f72 7267 7365 0073 3532     g in progress.25
 808602c:	2025 6f64 656e 3500 2530 6420 6e6f 0065     % done.50% done.
 808603c:	3537 2025 6f64 656e 4400 6e6f 0065 6f42     75% done.Done.Bo
 808604c:	736f 6574 2072 6f4e 4620 6f6c 2077 2031     oster No Flow 1 
 808605c:	202d 4200 6f6f 7473 7265 4e20 206f 6c46     - .Booster No Fl
 808606c:	776f 3220 2d20 0020 7453 726f 6761 2065     ow 2 - .Storage 
 808607c:	6154 6b6e 4c20 776f 2d20 0020 7550 706d     Tank Low - .Pump
 808608c:	3120 4320 6c61 656c 2064 202d 5000 6d75      1 Called - .Pum
 808609c:	2070 2032 6143 6c6c 6465 2d20 0020 6f4c     p 2 Called - .Lo
 80860ac:	7473 5020 776f 7265 4100 656c 7472 0073     st Power.Alerts.
 80860bc:	227b 6c61 7265 5674 6c61 6575 3a22 6925     {"alertValue":%i
 80860cc:	202c 7022 6d75 4d70 6e69 2273 253a 2c69     , "pumpMins":%i,
 80860dc:	2220 6162 7474 7265 2279 253a 2c69 2220      "battery":%i, "
 80860ec:	6574 706d 3a22 6925 202c 7222 7365 7465     temp":%i, "reset
 80860fc:	2273 253a 7d69 4d00 6e6f 7469 726f 6e69     s":%i}.Monitorin
 808610c:	5f67 6f48 7275 796c 7b00 6422 7461 2261     g_Hourly.{"data"
 808611c:	253a 7d69 4d00 6e6f 7469 726f 6e69 2d67     :%i}.Monitoring-
 808612c:	6255 4669 6e75 7463 6f69 2d6e 6f48 6b6f     UbiFunction-Hook
 808613c:	4e00 206f 6144 6174 5500 6962 6f64 7374     .No Data.Ubidots
 808614c:	4820 6f6f 006b 6552 7073 6e6f 6573 5220      Hook.Response R
 808615c:	6365 6965 6576 0064 666f 0066 6950 206e     eceived.off.Pin 
 808616c:	6176 756c 7365 203a 7570 706d 3120 203a     values: pump 1: 
 808617c:	7325 202c 7570 706d 3220 203a 7325 5400     %s, pump 2: %s.T
 808618c:	7365 0074 6553 2074 6556 6272 736f 2065     est.Set Verbose 
 808619c:	6f4d 6564 3000 4300 656c 7261 6465 5620     Mode.0.Cleared V
 80861ac:	7265 6f62 6573 4d20 646f 0065 7554 6e72     erbose Mode.Turn
 80861bc:	6465 6f20 206e 7550 706d 4320 6c61 656c     ed on Pump Calle
 80861cc:	0064 7550 706d 6320 6c61 656c 2064 6c61     d.Pump called al
 80861dc:	7265 7374 3d20 2520 0069 6c43 6165 6572     erts = %i.Cleare
 80861ec:	2064 7550 706d 4320 6c61 656c 0064 7550     d Pump Called.Pu
 80861fc:	706d 6320 6e61 6563 6c6c 6465 6120 656c     mp cancelled ale
 808620c:	7472 2073 203d 6925 5400 6d69 2065 6f7a     rts = %i.Time zo
 808621c:	656e 6f20 6666 6573 2074 6925 5400 6d69     ne offset %i.Tim
 808622c:	0065 7246 6d6f 2520 2073 6f74 2520 0073     e.From %s to %s.
 808623c:	7453 7461 2065 7254 6e61 6973 6974 6e6f     State Transition
 808624c:	4100 656c 7472 6156 756c 2065 203d 6925     .AlertValue = %i
 808625c:	5700 6961 6974 676e 6620 726f 5220 7365     .Waiting for Res
 808626c:	6f70 736e 0065 6449 656c 5200 7365 6f70     ponse.Idle.Respo
 808627c:	736e 2065 6954 656d 756f 2074 7245 6f72     nse Timeout Erro
 808628c:	0072 5245 4f52 5f52 5453 5441 2045 202d     r.ERROR_STATE - 
 808629c:	6552 6573 7474 6e69 0067 7441 6574 706d     Resetting.Attemp
 80862ac:	6974 676e 7420 206f 6572 6f63 6e6e 6365     ting to reconnec
 80862bc:	2074 6f74 5020 7261 6974 6c63 0065 6953     t to Particle.Si
 80862cc:	6e67 6c61 5200 7365 7465 6f43 6e75 0074     gnal.ResetCount.
 80862dc:	6554 706d 7265 7461 7275 0065 6552 656c     Temperature.Rele
 80862ec:	7361 0065 7473 7461 4f65 4366 6768 7000     ase.stateOfChg.p
 80862fc:	6d75 4d70 6e69 7475 7365 5200 7365 7465     umpMinutes.Reset
 808630c:	462d 4152 004d 6552 6573 2d74 6f43 6e75     -FRAM.Reset-Coun
 808631c:	7374 4800 7261 2d64 6552 6573 0074 6553     ts.Hard-Reset.Se
 808632c:	646e 4e2d 776f 5600 7265 6f62 6573 4d2d     nd-Now.Verbose-M
 808633c:	646f 0065 6553 2d74 6954 656d 6f7a 656e     ode.Set-Timezone
 808634c:	5300 7465 7550 706d 7453 7461 0065 0000     .SetPumpState...

0808635c <_ZTVN5spark10LogHandlerE>:
	...
 808636c:	00b9 0808 0217 0808                         ........

08086374 <_ZTVN5spark16SerialLogHandlerE>:
	...
 808637c:	0299 0808 02cd 0808 3c39 0808 0219 0808     ........9<......
 808638c:	5f90 0808 5f98 0808 5f9d 0808 5fa2 0808     ._..._..._..._..
 808639c:	5fa6 0808 5fab 0808 5fb0 0808 5fb4 0808     ._..._..._..._..
 80863ac:	5fbf 0808 5fca 0808                         ._..._..

080863b4 <_ZTVN5spark13CellularClassE>:
	...
 80863bc:	2093 0808 2089 0808 207f 0808 02ed 0808     . ... ... ......
 80863cc:	2073 0808 02e1 0808 3f95 0808 3f9d 0808     s .......?...?..
 80863dc:	2067 0808 205f 0808 2055 0808 204b 0808     g .._ ..U ..K ..
 80863ec:	200f 0808                                   . ..

080863f0 <_ZTV14CellularSignal>:
	...
 80863f8:	2141 0808 2173 0808 2143 0808 2181 0808     A!..s!..C!...!..
 8086408:	21b1 0808 21d5 0808 2205 0808 224d 0808     .!...!..."..M"..
 8086418:	2147 0808 216d 0808 fffc ffff 0000 0000     G!..m!..........
 8086428:	2273 0808                                   s"..

0808642c <_ZTVSt15_Sp_counted_ptrIPN8particle6detail10FutureImplIbNS1_13FutureContextEEELN9__gnu_cxx12_Lock_policyE0EE>:
	...
 8086434:	2293 0808 2299 0808 22e9 0808 22a7 0808     ."..."..."..."..
 8086444:	2295 0808                                   ."..

08086448 <_ZTV7TwoWire>:
	...
 8086450:	2999 0808 29e3 0808 29bb 0808 299b 0808     .)...)...)...)..
 8086460:	29c3 0808 29cb 0808 29d3 0808 29db 0808     .)...)...)...)..

08086470 <_ZTV9IPAddress>:
	...
 8086478:	2b51 0808 2b41 0808 2b43 0808 6425 2500     Q+..A+..C+..%d.%
 8086488:	0075 2575 3430 0078 6162 6475 5300 7265     u.u%04x.baud.Ser
 8086498:	6169 006c 5355 5342 7265 6169 316c 4a00     ial.USBSerial1.J
 80864a8:	4f53 534e 7274 6165 4c6d 676f 6148 646e     SONStreamLogHand
 80864b8:	656c 0072 7061 0070 3025 3031 2075 5d00     ler.app.%010u .]
 80864c8:	0020 202c 2800 3a29 0020 5b20 6300 646f      ., .(): . [.cod
 80864d8:	2065 203d 6400 7465 6961 736c 3d20 0020     e = .details = .
 80864e8:	0a0d 6300 6c00 006e 6e66 6300 646f 0065     ...c.ln.fn.code.
 80864f8:	6564 6174 6c69 0000                         detail..

08086500 <_ZTVN5spark16JSONStreamWriterE>:
	...
 8086508:	2fcd 0808 2ff3 0808 2fb1 0808 2c0f 0808     ./.../.../...,..

08086518 <_ZTVN5spark16StreamLogHandlerE>:
	...
 8086520:	3459 0808 3471 0808 3c39 0808 0219 0808     Y4..q4..9<......

08086530 <_ZTVN5spark20JSONStreamLogHandlerE>:
	...
 8086538:	3485 0808 3499 0808 3de1 0808 2fb9 0808     .4...4...=.../..

08086548 <_ZTVN5spark24DefaultLogHandlerFactoryE>:
	...
 8086550:	2fcb 0808 3001 0808 3b75 0808 2fbb 0808     ./...0..u;.../..

08086560 <_ZTVN5spark26DefaultOutputStreamFactoryE>:
	...
 8086568:	2fc9 0808 300f 0808 3381 0808 302d 0808     ./...0...3..-0..

08086578 <_ZTVN5spark12NetworkClassE>:
	...
 8086580:	3f55 0808 3f5f 0808 3f69 0808 3f73 0808     U?.._?..i?..s?..
 8086590:	3f7d 0808 3f89 0808 3f95 0808 3f9d 0808     }?...?...?...?..
 80865a0:	3fa5 0808 3fb1 0808 3fb9 0808 3fc3 0808     .?...?...?...?..
 80865b0:	3fcd 0808 5925 252d 2d6d 6425 2554 3a48     .?..%Y-%m-%dT%H:
 80865c0:	4d25 253a 2553 007a 7361 7463 6d69 0065     %M:%S%z.asctime.

080865d0 <_ZTV11USARTSerial>:
	...
 80865d8:	4605 0808 466f 0808 464b 0808 4047 0808     .F..oF..KF..G@..
 80865e8:	461b 0808 4637 0808 4629 0808 4645 0808     .F..7F..)F..EF..
 80865f8:	4607 0808 460d 0808                         .F...F..

08086600 <_ZTV9USBSerial>:
	...
 8086608:	470b 0808 4771 0808 4749 0808 4047 0808     .G..qG..IG..G@..
 8086618:	473b 0808 470d 0808 471d 0808 476b 0808     ;G...G...G..kG..
 8086628:	472d 0808 4705 0808                         -G...G..

08086630 <_ZSt7nothrow>:
 8086630:	2500 332e 2073 2e25 7333 3325 2064 2e25     .%.3s %.3s%3d %.
 8086640:	6432 253a 322e 3a64 2e25 6432 2520 0a64     2d:%.2d:%.2d %d.
	...

08086651 <day_name.4782>:
 8086651:	7553 4d6e 6e6f 7554 5765 6465 6854 4675     SunMonTueWedThuF
 8086661:	6972 6153                                    riSat

08086666 <mon_name.4783>:
 8086666:	614a 466e 6265 614d 4172 7270 614d 4a79     JanFebMarAprMayJ
 8086676:	6e75 754a 416c 6775 6553 4f70 7463 6f4e     unJulAugSepOctNo
 8086686:	4476 6365                                   vDec

0808668a <_ctype_>:
 808668a:	2000 2020 2020 2020 2020 2828 2828 2028     .         ((((( 
 808669a:	2020 2020 2020 2020 2020 2020 2020 2020                     
 80866aa:	8820 1010 1010 1010 1010 1010 1010 1010      ...............
 80866ba:	0410 0404 0404 0404 0404 1004 1010 1010     ................
 80866ca:	1010 4141 4141 4141 0101 0101 0101 0101     ..AAAAAA........
 80866da:	0101 0101 0101 0101 0101 0101 1010 1010     ................
 80866ea:	1010 4242 4242 4242 0202 0202 0202 0202     ..BBBBBB........
 80866fa:	0202 0202 0202 0202 0202 0202 1010 1010     ................
 808670a:	0020 0000 0000 0000 0000 0000 0000 0000      ...............
	...

0808678b <link_const_variable_data_end>:
	...

0808678c <link_constructors_location>:
 808678c:	08081855 	.word	0x08081855
 8086790:	08082111 	.word	0x08082111
 8086794:	08083c29 	.word	0x08083c29
 8086798:	08084015 	.word	0x08084015
 808679c:	08084161 	.word	0x08084161
 80867a0:	0808440d 	.word	0x0808440d
 80867a4:	080845f1 	.word	0x080845f1
 80867a8:	08084c0d 	.word	0x08084c0d

080867ac <link_constructors_end>:
 80867ac:	00000000 	.word	0x00000000
